Component: ARM Compiler 5.06 update 6 (build 750) Tool: armlink [4d35ed]

==============================================================================

Section Cross References

    appfactory.o(i._ZN7Factory10appPrepareEv) refers to peripheralcontroller.o(i._ZN3ble20PeripheralController18initSecurityAndGapEv) for ble::PeripheralController::initSecurityAndGap()
    appfactory.o(i._ZN7Factory10appPrepareEv) refers to mhfsservice.o(i._ZN3ble11MhfsService11addObserverEPNS_12MhfsObserverE) for ble::MhfsService::addObserver(ble::MhfsObserver*)
    appfactory.o(i._ZN7Factory10appPrepareEv) refers to ads1118.o(i._ZN6sensor7ADS11184bindEPN3ble11MhfsServiceE) for sensor::ADS1118::bind(ble::MhfsService*)
    appfactory.o(i._ZN7Factory10appPrepareEv) refers to xfreactive.o(i._ZN10XFReactive14startBehaviourEv) for XFReactive::startBehaviour()
    appfactory.o(i._ZN7Factory10appPrepareEv) refers to factory.o(.bss) for Factory::peripheralController
    appfactory.o(i._ZN7Factory10appPrepareEv) refers to appfactory.o(.bss) for .bss
    appfactory.o(i._ZN7Factory10appRestoreEv) refers to flashcontroller.o(i._ZN5flash15FlashController10restoreAllEv) for flash::FlashController::restoreAll()
    appfactory.o(i._ZN7Factory10appRestoreEv) refers to factory.o(.bss) for Factory::flashController
    appfactory.o(i._ZN7Factory14appEnableFlashEv) refers to flashcontroller.o(i._ZN5flash15FlashController6enableEv) for flash::FlashController::enable()
    appfactory.o(i._ZN7Factory14appEnableFlashEv) refers to factory.o(.bss) for Factory::flashController
    appfactory.o(i._ZN7Factory7appBindEv) refers to peripheralcontroller.o(i._ZN3ble20PeripheralController4bindEPNS_13BleControllerE) for ble::PeripheralController::bind(ble::BleController*)
    appfactory.o(i._ZN7Factory7appBindEv) refers to flashcontroller.o(i._ZN5flash15FlashController12addPersisterEPNS_9PersisterENS_11FlashFileId12eFlashFileIdE) for flash::FlashController::addPersister(flash::Persister*, flash::FlashFileId::eFlashFileId)
    appfactory.o(i._ZN7Factory7appBindEv) refers to mhfsservice.o(i._ZN3ble11MhfsService4bindEPNS_13BleControllerE) for ble::MhfsService::bind(ble::BleController*)
    appfactory.o(i._ZN7Factory7appBindEv) refers to batterymanager.o(i._ZN7battery14BatteryManager4bindEPN3hal8SaadcHalE) for battery::BatteryManager::bind(hal::SaadcHal*)
    appfactory.o(i._ZN7Factory7appBindEv) refers to heatflow.o(i._ZN11application8HeatFlow4bindEPN3ble20PeripheralControllerEPN5flash15FlashControllerEPN7battery14BatteryManagerEPN4gpio13LedControllerESC_SC_PN3hal6PwmHalEPN6sensor16SensorControllerE) for application::HeatFlow::bind(ble::PeripheralController*, flash::FlashController*, battery::BatteryManager*, gpio::LedController*, gpio::LedController*, gpio::LedController*, hal::PwmHal*, sensor::SensorController*)
    appfactory.o(i._ZN7Factory7appBindEv) refers to sensorcontroller.o(i._ZN6sensor16SensorController4bindEPNS_7ADS1118ES2_) for sensor::SensorController::bind(sensor::ADS1118*, sensor::ADS1118*)
    appfactory.o(i._ZN7Factory7appBindEv) refers to factory.o(.bss) for Factory::bleController
    appfactory.o(i._ZN7Factory7appBindEv) refers to appfactory.o(.bss) for .bss
    appfactory.o(i._ZN7Factory7appInitEv) refers to sdktools.o(i._ZN5tools8SDKTools4initEv) for tools::SDKTools::init()
    appfactory.o(i._ZN7Factory7appInitEv) refers to blecontroller.o(i._ZN3ble13BleController10initializeEv) for ble::BleController::initialize()
    appfactory.o(i._ZN7Factory7appInitEv) refers to blevendor.o(i._ZN3ble9BleVendor14registerVendorEP13ble_uuid128_tt) for ble::BleVendor::registerVendor(ble_uuid128_t*, unsigned short)
    appfactory.o(i._ZN7Factory7appInitEv) refers to factory.o(.bss) for Factory::bleController
    appfactory.o(i._ZN7Factory7appInitEv) refers to appfactory.o(.constdata) for .constdata
    appfactory.o(i._ZN7Factory7appInitEv) refers to factory.o(.data) for Factory::heiVendor
    appfactory.o(i._ZN7Factory8appBuildEv) refers to peripheralcontroller.o(i._ZN3ble20PeripheralController10initializeEP21ble_gap_conn_params_tS2_) for ble::PeripheralController::initialize(ble_gap_conn_params_t*, ble_gap_conn_params_t*)
    appfactory.o(i._ZN7Factory8appBuildEv) refers to peripheralcontroller.o(i._ZN3ble20PeripheralController15registerServiceEPNS_14PrivateServiceE) for ble::PeripheralController::registerService(ble::PrivateService*)
    appfactory.o(i._ZN7Factory8appBuildEv) refers to ledcontroller.o(i._ZN4gpio13LedController10initializeEhtt) for gpio::LedController::initialize(unsigned char, unsigned short, unsigned short)
    appfactory.o(i._ZN7Factory8appBuildEv) refers to batterymanager.o(i._ZN7battery14BatteryManager10initializeEv) for battery::BatteryManager::initialize()
    appfactory.o(i._ZN7Factory8appBuildEv) refers to flashcontroller.o(i._ZN5flash15FlashController10initializeEv) for flash::FlashController::initialize()
    appfactory.o(i._ZN7Factory8appBuildEv) refers to ads1118.o(i._ZN6sensor7ADS111810initializeEhh) for sensor::ADS1118::initialize(unsigned char, unsigned char)
    appfactory.o(i._ZN7Factory8appBuildEv) refers to sensorcontroller.o(i._ZN6sensor16SensorController10initializeEv) for sensor::SensorController::initialize()
    appfactory.o(i._ZN7Factory8appBuildEv) refers to heatflow.o(i._ZN11application8HeatFlow10initializeEv) for application::HeatFlow::initialize()
    appfactory.o(i._ZN7Factory8appBuildEv) refers to factory.o(.bss) for Factory::peripheralController
    appfactory.o(i._ZN7Factory8appBuildEv) refers to appfactory.o(.bss) for .bss
    appfactory.o(i._ZN7Factory8appStartEv) refers to xfreactive.o(i._ZN10XFReactive14startBehaviourEv) for XFReactive::startBehaviour()
    appfactory.o(i._ZN7Factory8appStartEv) refers to appfactory.o(.bss) for .bss
    appfactory.o(i.__sti___14_appfactory_cpp_e8217f57) refers to heatflow.o(i._ZN11application8HeatFlowC1Ev) for application::HeatFlow::HeatFlow()
    appfactory.o(i.__sti___14_appfactory_cpp_e8217f57) refers to aeabi_atexit.o(.text) for __aeabi_atexit
    appfactory.o(i.__sti___14_appfactory_cpp_e8217f57) refers to appfactory.o(.bss) for .bss
    appfactory.o(i.__sti___14_appfactory_cpp_e8217f57) refers to appfactory.o(i._ZN11application8HeatFlowD1Ev) for application::HeatFlow::~HeatFlow()
    appfactory.o(.ARM.exidx) refers to appfactory.o(i._ZN7Factory7appInitEv) for i._ZN7Factory7appInitEv
    appfactory.o(.ARM.exidx) refers to appfactory.o(i._ZN7Factory8appBuildEv) for i._ZN7Factory8appBuildEv
    appfactory.o(.ARM.exidx) refers to appfactory.o(i._ZN7Factory7appBindEv) for i._ZN7Factory7appBindEv
    appfactory.o(.ARM.exidx) refers to appfactory.o(i._ZN7Factory14appEnableFlashEv) for i._ZN7Factory14appEnableFlashEv
    appfactory.o(.ARM.exidx) refers to appfactory.o(i._ZN7Factory10appRestoreEv) for i._ZN7Factory10appRestoreEv
    appfactory.o(.ARM.exidx) refers to appfactory.o(i._ZN7Factory8appCheckEv) for i._ZN7Factory8appCheckEv
    appfactory.o(.ARM.exidx) refers to appfactory.o(i._ZN7Factory8appStartEv) for i._ZN7Factory8appStartEv
    appfactory.o(.ARM.exidx) refers to appfactory.o(i._ZN7Factory10appPrepareEv) for i._ZN7Factory10appPrepareEv
    appfactory.o(.ARM.exidx) refers to appfactory.o(i.__sti___14_appfactory_cpp_e8217f57) for i.__sti___14_appfactory_cpp_e8217f57
    appfactory.o(.init_array) refers to appfactory.o(i.__sti___14_appfactory_cpp_e8217f57) for __sti___14_appfactory_cpp_e8217f57
    appfactory.o(.init_array) refers to cpp_init.o(.text) for __cpp_initialize__aeabi_
    heatflow.o(i._ZN11application8HeatFlow12processEventEv) refers to xfreactive.o(i._ZN10XFReactive17getCurrentTimeoutEv) for XFReactive::getCurrentTimeout()
    heatflow.o(i._ZN11application8HeatFlow12processEventEv) refers to heatflow.o(i._ZN11application8HeatFlow21_ST_SYSTEM_OFF_ActionEv) for application::HeatFlow::_ST_SYSTEM_OFF_Action()
    heatflow.o(i._ZN11application8HeatFlow12processEventEv) refers to heatflow.o(i._ZN11application8HeatFlow24_handleNoActivityTimeoutEb) for application::HeatFlow::_handleNoActivityTimeout(bool)
    heatflow.o(i._ZN11application8HeatFlow12processEventEv) refers to sensorcontroller.o(i._ZN6sensor16SensorController8setStateENS0_22eSensorControllerStateE) for sensor::SensorController::setState(sensor::SensorController::eSensorControllerState)
    heatflow.o(i._ZN11application8HeatFlow12processEventEv) refers to heatflow.o(i._ZN11application8HeatFlow17_handleAdsTimeoutEb) for application::HeatFlow::_handleAdsTimeout(bool)
    heatflow.o(i._ZN11application8HeatFlow12processEventEv) refers to heatflow.o(i._ZN11application8HeatFlow15_startAdvertiseEb) for application::HeatFlow::_startAdvertise(bool)
    heatflow.o(i._ZN11application8HeatFlow12processEventEv) refers to batterymanager.o(i._ZN7battery14BatteryManager6enableEv) for battery::BatteryManager::enable()
    heatflow.o(i._ZN11application8HeatFlow12processEventEv) refers to heatflow.o(.data) for .data
    heatflow.o(i._ZN11application8HeatFlow14_stopAdvertiseEv) refers to ledcontroller.o(i._ZN4gpio13LedController17startSlowBlinkingEv) for gpio::LedController::startSlowBlinking()
    heatflow.o(i._ZN11application8HeatFlow15_onBleConnectedEv) refers to heatflow.o(i._ZN11application8HeatFlow14_stopAdvertiseEv) for application::HeatFlow::_stopAdvertise()
    heatflow.o(i._ZN11application8HeatFlow15_onBleConnectedEv) refers to ledcontroller.o(i._ZN4gpio13LedController18startQuickBlinkingEv) for gpio::LedController::startQuickBlinking()
    heatflow.o(i._ZN11application8HeatFlow15_startAdvertiseEb) refers to peripheralcontroller.o(i._ZN3ble20PeripheralController16startAdvertisingEb14ble_adv_mode_t) for ble::PeripheralController::startAdvertising(bool, ble_adv_mode_t)
    heatflow.o(i._ZN11application8HeatFlow15_startAdvertiseEb) refers to ledcontroller.o(i._ZN4gpio13LedController6ledOffEv) for gpio::LedController::ledOff()
    heatflow.o(i._ZN11application8HeatFlow15onCommandChangeEPN3ble11MhfsServiceE14eMhfsCommandId) refers to heatflow.o(i._ZN11application8HeatFlow18_handleMeasurementEb) for application::HeatFlow::_handleMeasurement(bool)
    heatflow.o(i._ZN11application8HeatFlow16onAdvertiseErrorEPN3ble20PeripheralControllerEj) refers to ledcontroller.o(i._ZN4gpio13LedController5ledOnEv) for gpio::LedController::ledOn()
    heatflow.o(i._ZN11application8HeatFlow17_handleAdsTimeoutEb) refers to xfthread.o(i._ZN8XFThread15scheduleTimeoutEhtP11IXFReactive) for XFThread::scheduleTimeout(unsigned char, unsigned short, IXFReactive*)
    heatflow.o(i._ZN11application8HeatFlow17_handleAdsTimeoutEb) refers to xfthread.o(i._ZN8XFThread17unscheduleTimeoutEhP11IXFReactive) for XFThread::unscheduleTimeout(unsigned char, IXFReactive*)
    heatflow.o(i._ZN11application8HeatFlow17_handleAdsTimeoutEb) refers to sensorcontroller.o(i._ZN6sensor16SensorController8setStateENS0_22eSensorControllerStateE) for sensor::SensorController::setState(sensor::SensorController::eSensorControllerState)
    heatflow.o(i._ZN11application8HeatFlow18_handleMeasurementEb) refers to sensorcontroller.o(i._ZN6sensor16SensorController8setStateENS0_22eSensorControllerStateE) for sensor::SensorController::setState(sensor::SensorController::eSensorControllerState)
    heatflow.o(i._ZN11application8HeatFlow18_onBleDisconnectedEv) refers to heatflow.o(i._ZN11application8HeatFlow18_handleMeasurementEb) for application::HeatFlow::_handleMeasurement(bool)
    heatflow.o(i._ZN11application8HeatFlow21_ST_SYSTEM_OFF_ActionEv) refers to ledcontroller.o(i._ZN4gpio13LedController6ledOffEv) for gpio::LedController::ledOff()
    heatflow.o(i._ZN11application8HeatFlow21onBatteryLevelChangedEPN7battery14BatteryManagerEh) refers to ble_bas.o(i.ble_bas_battery_level_update) for ble_bas_battery_level_update
    heatflow.o(i._ZN11application8HeatFlow21onPeripheralConnectedEPN3ble20PeripheralControllerE) refers to heatflow.o(i._ZN11application8HeatFlow15_onBleConnectedEv) for application::HeatFlow::_onBleConnected()
    heatflow.o(i._ZN11application8HeatFlow23onAdvertiseStateChangedEPN3ble20PeripheralControllerE13ble_adv_evt_t) refers to ledcontroller.o(i._ZN4gpio13LedController21startStandardBlinkingEv) for gpio::LedController::startStandardBlinking()
    heatflow.o(i._ZN11application8HeatFlow23onAdvertiseStateChangedEPN3ble20PeripheralControllerE13ble_adv_evt_t) refers to ledcontroller.o(i._ZN4gpio13LedController17startSlowBlinkingEv) for gpio::LedController::startSlowBlinking()
    heatflow.o(i._ZN11application8HeatFlow23onAdvertiseStateChangedEPN3ble20PeripheralControllerE13ble_adv_evt_t) refers to ledcontroller.o(i._ZN4gpio13LedController6ledOffEv) for gpio::LedController::ledOff()
    heatflow.o(i._ZN11application8HeatFlow24_handleNoActivityTimeoutEb) refers to xfthread.o(i._ZN8XFThread15scheduleTimeoutEhtP11IXFReactive) for XFThread::scheduleTimeout(unsigned char, unsigned short, IXFReactive*)
    heatflow.o(i._ZN11application8HeatFlow24_handleNoActivityTimeoutEb) refers to xfthread.o(i._ZN8XFThread17unscheduleTimeoutEhP11IXFReactive) for XFThread::unscheduleTimeout(unsigned char, IXFReactive*)
    heatflow.o(i._ZN11application8HeatFlow24onPeripheralDisconnectedEPN3ble20PeripheralControllerE) refers to heatflow.o(i._ZN11application8HeatFlow18_onBleDisconnectedEv) for application::HeatFlow::_onBleDisconnected()
    heatflow.o(i._ZN11application8HeatFlow31_updateSecurityLevelForServicesEbbb) refers to peripheralcontroller.o(i._ZN3ble20PeripheralController19setSecuritySettingsEbbbb) for ble::PeripheralController::setSecuritySettings(bool, bool, bool, bool)
    heatflow.o(i._ZN11application8HeatFlow31_updateSecurityLevelForServicesEbbb) refers to peripheralcontroller.o(i._ZN3ble20PeripheralController32updateSecurityForCharacteristicsEv) for ble::PeripheralController::updateSecurityForCharacteristics()
    heatflow.o(i._ZN11application8HeatFlow31_updateSecurityLevelForServicesEbbb) refers to peripheralcontroller.o(i._ZN3ble20PeripheralController16startAdvertisingEb14ble_adv_mode_t) for ble::PeripheralController::startAdvertising(bool, ble_adv_mode_t)
    heatflow.o(i._ZN11application8HeatFlow4bindEPN3ble20PeripheralControllerEPN5flash15FlashControllerEPN7battery14BatteryManagerEPN4gpio13LedControllerESC_SC_PN3hal6PwmHalEPN6sensor16SensorControllerE) refers to pwmhal.o(i._ZN3hal6PwmHal12initilializeENS0_6ePwmIdE18nrf_pwm_dec_load_t) for hal::PwmHal::initilialize(hal::PwmHal::ePwmId, nrf_pwm_dec_load_t)
    heatflow.o(i._ZN11application8HeatFlow4bindEPN3ble20PeripheralControllerEPN5flash15FlashControllerEPN7battery14BatteryManagerEPN4gpio13LedControllerESC_SC_PN3hal6PwmHalEPN6sensor16SensorControllerE) refers to pwmhal.o(i._ZN3hal6PwmHal12addOutputPinEhhb) for hal::PwmHal::addOutputPin(unsigned char, unsigned char, bool)
    heatflow.o(i._ZN11application8HeatFlow4bindEPN3ble20PeripheralControllerEPN5flash15FlashControllerEPN7battery14BatteryManagerEPN4gpio13LedControllerESC_SC_PN3hal6PwmHalEPN6sensor16SensorControllerE) refers to pwmhal.o(i._ZN3hal6PwmHal12setFrequencyEjb) for hal::PwmHal::setFrequency(unsigned, bool)
    heatflow.o(i._ZN11application8HeatFlowC1Ev) refers to heatflow.o(i._ZN11application8HeatFlowC2Ev) for application::HeatFlow::HeatFlow__sub_object()
    heatflow.o(i._ZN11application8HeatFlowC1Ev) refers to heatflow.o(.constdata__ZTVN11application8HeatFlowE) for VTT for application::HeatFlow
    heatflow.o(i._ZN11application8HeatFlowC1Ev) refers to heatflow.o(.constdata__ZTVN3ble25BlePrivateServiceObserverE) for vtable for ble::BlePrivateServiceObserver
    heatflow.o(i._ZN11application8HeatFlowC2Ev) refers to xfreactive.o(i._ZN10XFReactiveC1EP8XFThread) for XFReactive::XFReactive(XFThread*)
    heatflow.o(i._ZN11application8HeatFlowC2Ev) refers to heatflow.o(.constdata__ZTVN11application8HeatFlowE) for VTT for application::HeatFlow
    heatflow.o(i._ZN11application8HeatFlowC2Ev) refers to heatflow.o(.constdata__ZTVN3ble25BlePrivateServiceObserverE) for vtable for ble::BlePrivateServiceObserver
    heatflow.o(i._ZN11application8HeatFlowC2Ev) refers to heatflow.o(.constdata__ZTVN11application8HeatFlowE) for vtable for application::HeatFlow
    heatflow.o(i._ZThn12_N11application8HeatFlow16onAdvertiseErrorEPN3ble20PeripheralControllerEj) refers to ledcontroller.o(i._ZN4gpio13LedController5ledOnEv) for gpio::LedController::ledOn()
    heatflow.o(i._ZThn12_N11application8HeatFlow21onPeripheralConnectedEPN3ble20PeripheralControllerE) refers to heatflow.o(i._ZN11application8HeatFlow21onPeripheralConnectedEPN3ble20PeripheralControllerE) for application::HeatFlow::onPeripheralConnected(ble::PeripheralController*)
    heatflow.o(i._ZThn12_N11application8HeatFlow23onAdvertiseStateChangedEPN3ble20PeripheralControllerE13ble_adv_evt_t) refers to heatflow.o(i._ZN11application8HeatFlow23onAdvertiseStateChangedEPN3ble20PeripheralControllerE13ble_adv_evt_t) for application::HeatFlow::onAdvertiseStateChanged(ble::PeripheralController*, ble_adv_evt_t)
    heatflow.o(i._ZThn12_N11application8HeatFlow24onPeripheralDisconnectedEPN3ble20PeripheralControllerE) refers to heatflow.o(i._ZN11application8HeatFlow18_onBleDisconnectedEv) for application::HeatFlow::_onBleDisconnected()
    heatflow.o(i._ZThn16_N11application8HeatFlow15onCommandChangeEPN3ble11MhfsServiceE14eMhfsCommandId) refers to heatflow.o(i._ZN11application8HeatFlow15onCommandChangeEPN3ble11MhfsServiceE14eMhfsCommandId) for application::HeatFlow::onCommandChange(ble::MhfsService*, eMhfsCommandId)
    heatflow.o(i._ZThn20_N11application8HeatFlow21onBatteryLevelChangedEPN7battery14BatteryManagerEh) refers to heatflow.o(i._ZN11application8HeatFlow21onBatteryLevelChangedEPN7battery14BatteryManagerEh) for application::HeatFlow::onBatteryLevelChanged(battery::BatteryManager*, unsigned char)
    heatflow.o(.ARM.exidx) refers to heatflow.o(i._ZN11application8HeatFlowC2Ev) for i._ZN11application8HeatFlowC2Ev
    heatflow.o(.ARM.exidx) refers to heatflow.o(i._ZN11application8HeatFlowC1Ev) for i._ZN11application8HeatFlowC1Ev
    heatflow.o(.ARM.exidx) refers to heatflow.o(i._ZN11application8HeatFlow10initializeEv) for i._ZN11application8HeatFlow10initializeEv
    heatflow.o(.ARM.exidx) refers to heatflow.o(i._ZN11application8HeatFlow4bindEPN3ble20PeripheralControllerEPN5flash15FlashControllerEPN7battery14BatteryManagerEPN4gpio13LedControllerESC_SC_PN3hal6PwmHalEPN6sensor16SensorControllerE) for i._ZN11application8HeatFlow4bindEPN3ble20PeripheralControllerEPN5flash15FlashControllerEPN7battery14BatteryManagerEPN4gpio13LedControllerESC_SC_PN3hal6PwmHalEPN6sensor16SensorControllerE
    heatflow.o(.ARM.exidx) refers to heatflow.o(i._ZN11application8HeatFlow24_handleNoActivityTimeoutEb) for i._ZN11application8HeatFlow24_handleNoActivityTimeoutEb
    heatflow.o(.ARM.exidx) refers to heatflow.o(i._ZN11application8HeatFlow15_startAdvertiseEb) for i._ZN11application8HeatFlow15_startAdvertiseEb
    heatflow.o(.ARM.exidx) refers to heatflow.o(i._ZN11application8HeatFlow17_handleAdsTimeoutEb) for i._ZN11application8HeatFlow17_handleAdsTimeoutEb
    heatflow.o(.ARM.exidx) refers to heatflow.o(i._ZN11application8HeatFlow21_ST_SYSTEM_OFF_ActionEv) for i._ZN11application8HeatFlow21_ST_SYSTEM_OFF_ActionEv
    heatflow.o(.ARM.exidx) refers to heatflow.o(i._ZN11application8HeatFlow12processEventEv) for i._ZN11application8HeatFlow12processEventEv
    heatflow.o(.ARM.exidx) refers to heatflow.o(i._ZN11application8HeatFlow18onAdvertiseStoppedEPN3ble20PeripheralControllerE) for i._ZN11application8HeatFlow18onAdvertiseStoppedEPN3ble20PeripheralControllerE
    heatflow.o(.ARM.exidx) refers to heatflow.o(i._ZThn12_N11application8HeatFlow18onAdvertiseStoppedEPN3ble20PeripheralControllerE) for i._ZThn12_N11application8HeatFlow18onAdvertiseStoppedEPN3ble20PeripheralControllerE
    heatflow.o(.ARM.exidx) refers to heatflow.o(i._ZN11application8HeatFlow23onAdvertiseStateChangedEPN3ble20PeripheralControllerE13ble_adv_evt_t) for i._ZN11application8HeatFlow23onAdvertiseStateChangedEPN3ble20PeripheralControllerE13ble_adv_evt_t
    heatflow.o(.ARM.exidx) refers to heatflow.o(i._ZThn12_N11application8HeatFlow23onAdvertiseStateChangedEPN3ble20PeripheralControllerE13ble_adv_evt_t) for i._ZThn12_N11application8HeatFlow23onAdvertiseStateChangedEPN3ble20PeripheralControllerE13ble_adv_evt_t
    heatflow.o(.ARM.exidx) refers to heatflow.o(i._ZN11application8HeatFlow16onAdvertiseErrorEPN3ble20PeripheralControllerEj) for i._ZN11application8HeatFlow16onAdvertiseErrorEPN3ble20PeripheralControllerEj
    heatflow.o(.ARM.exidx) refers to heatflow.o(i._ZThn12_N11application8HeatFlow16onAdvertiseErrorEPN3ble20PeripheralControllerEj) for i._ZThn12_N11application8HeatFlow16onAdvertiseErrorEPN3ble20PeripheralControllerEj
    heatflow.o(.ARM.exidx) refers to heatflow.o(i._ZN11application8HeatFlow14_stopAdvertiseEv) for i._ZN11application8HeatFlow14_stopAdvertiseEv
    heatflow.o(.ARM.exidx) refers to heatflow.o(i._ZN11application8HeatFlow15_onBleConnectedEv) for i._ZN11application8HeatFlow15_onBleConnectedEv
    heatflow.o(.ARM.exidx) refers to heatflow.o(i._ZN11application8HeatFlow21onPeripheralConnectedEPN3ble20PeripheralControllerE) for i._ZN11application8HeatFlow21onPeripheralConnectedEPN3ble20PeripheralControllerE
    heatflow.o(.ARM.exidx) refers to heatflow.o(i._ZThn12_N11application8HeatFlow21onPeripheralConnectedEPN3ble20PeripheralControllerE) for i._ZThn12_N11application8HeatFlow21onPeripheralConnectedEPN3ble20PeripheralControllerE
    heatflow.o(.ARM.exidx) refers to heatflow.o(i._ZN11application8HeatFlow18_handleMeasurementEb) for i._ZN11application8HeatFlow18_handleMeasurementEb
    heatflow.o(.ARM.exidx) refers to heatflow.o(i._ZN11application8HeatFlow18_onBleDisconnectedEv) for i._ZN11application8HeatFlow18_onBleDisconnectedEv
    heatflow.o(.ARM.exidx) refers to heatflow.o(i._ZN11application8HeatFlow24onPeripheralDisconnectedEPN3ble20PeripheralControllerE) for i._ZN11application8HeatFlow24onPeripheralDisconnectedEPN3ble20PeripheralControllerE
    heatflow.o(.ARM.exidx) refers to heatflow.o(i._ZThn12_N11application8HeatFlow24onPeripheralDisconnectedEPN3ble20PeripheralControllerE) for i._ZThn12_N11application8HeatFlow24onPeripheralDisconnectedEPN3ble20PeripheralControllerE
    heatflow.o(.ARM.exidx) refers to heatflow.o(i._ZN11application8HeatFlow24onPeripheralStateChangedEPN3ble20PeripheralControllerEh) for i._ZN11application8HeatFlow24onPeripheralStateChangedEPN3ble20PeripheralControllerEh
    heatflow.o(.ARM.exidx) refers to heatflow.o(i._ZThn12_N11application8HeatFlow24onPeripheralStateChangedEPN3ble20PeripheralControllerEh) for i._ZThn12_N11application8HeatFlow24onPeripheralStateChangedEPN3ble20PeripheralControllerEh
    heatflow.o(.ARM.exidx) refers to heatflow.o(i._ZN11application8HeatFlow16onPasskeyDisplayEPN3ble20PeripheralControllerEPc) for i._ZN11application8HeatFlow16onPasskeyDisplayEPN3ble20PeripheralControllerEPc
    heatflow.o(.ARM.exidx) refers to heatflow.o(i._ZThn12_N11application8HeatFlow16onPasskeyDisplayEPN3ble20PeripheralControllerEPc) for i._ZThn12_N11application8HeatFlow16onPasskeyDisplayEPN3ble20PeripheralControllerEPc
    heatflow.o(.ARM.exidx) refers to heatflow.o(i._ZN11application8HeatFlow19onAuthStatusUpdatedEPN3ble20PeripheralControllerE25ble_gap_evt_auth_status_t) for i._ZN11application8HeatFlow19onAuthStatusUpdatedEPN3ble20PeripheralControllerE25ble_gap_evt_auth_status_t
    heatflow.o(.ARM.exidx) refers to heatflow.o(i._ZThn12_N11application8HeatFlow19onAuthStatusUpdatedEPN3ble20PeripheralControllerE25ble_gap_evt_auth_status_t) for i._ZThn12_N11application8HeatFlow19onAuthStatusUpdatedEPN3ble20PeripheralControllerE25ble_gap_evt_auth_status_t
    heatflow.o(.ARM.exidx) refers to heatflow.o(i._ZN11application8HeatFlow21onConfigurationChangeEPN3ble11MhfsServiceEht) for i._ZN11application8HeatFlow21onConfigurationChangeEPN3ble11MhfsServiceEht
    heatflow.o(.ARM.exidx) refers to heatflow.o(i._ZThn16_N11application8HeatFlow21onConfigurationChangeEPN3ble11MhfsServiceEht) for i._ZThn16_N11application8HeatFlow21onConfigurationChangeEPN3ble11MhfsServiceEht
    heatflow.o(.ARM.exidx) refers to heatflow.o(i._ZN11application8HeatFlow15onCommandChangeEPN3ble11MhfsServiceE14eMhfsCommandId) for i._ZN11application8HeatFlow15onCommandChangeEPN3ble11MhfsServiceE14eMhfsCommandId
    heatflow.o(.ARM.exidx) refers to heatflow.o(i._ZThn16_N11application8HeatFlow15onCommandChangeEPN3ble11MhfsServiceE14eMhfsCommandId) for i._ZThn16_N11application8HeatFlow15onCommandChangeEPN3ble11MhfsServiceE14eMhfsCommandId
    heatflow.o(.ARM.exidx) refers to heatflow.o(i._ZN11application8HeatFlow21onBatteryStateChangedEPN7battery14BatteryManagerENS1_12BatteryState13eBatteryStateE) for i._ZN11application8HeatFlow21onBatteryStateChangedEPN7battery14BatteryManagerENS1_12BatteryState13eBatteryStateE
    heatflow.o(.ARM.exidx) refers to heatflow.o(i._ZThn20_N11application8HeatFlow21onBatteryStateChangedEPN7battery14BatteryManagerENS1_12BatteryState13eBatteryStateE) for i._ZThn20_N11application8HeatFlow21onBatteryStateChangedEPN7battery14BatteryManagerENS1_12BatteryState13eBatteryStateE
    heatflow.o(.ARM.exidx) refers to heatflow.o(i._ZN11application8HeatFlow21onBatteryLevelChangedEPN7battery14BatteryManagerEh) for i._ZN11application8HeatFlow21onBatteryLevelChangedEPN7battery14BatteryManagerEh
    heatflow.o(.ARM.exidx) refers to heatflow.o(i._ZThn20_N11application8HeatFlow21onBatteryLevelChangedEPN7battery14BatteryManagerEh) for i._ZThn20_N11application8HeatFlow21onBatteryLevelChangedEPN7battery14BatteryManagerEh
    heatflow.o(.ARM.exidx) refers to heatflow.o(i._ZN11application8HeatFlow31_updateSecurityLevelForServicesEbbb) for i._ZN11application8HeatFlow31_updateSecurityLevelForServicesEbbb
    heatflow.o(.constdata) refers to heatflow.o(.constdata__ZTIN3ble12MhfsObserverE) for typeinfo for ble::MhfsObserver
    heatflow.o(.constdata) refers to heatflow.o(i._ZN3ble12MhfsObserverD1Ev) for ble::MhfsObserver::~MhfsObserver()
    heatflow.o(.constdata) refers to heatflow.o(i._ZN3ble12MhfsObserverD0Ev) for ble::MhfsObserver::~MhfsObserver__deallocating()
    heatflow.o(.constdata) refers to pure_virt.o(i.__cxa_pure_virtual) for __cxa_pure_virtual
    uptime.o(i._ZN6UpTime12processEventEv) refers to xfthread.o(i._ZN8XFThread15scheduleTimeoutEhtP11IXFReactive) for XFThread::scheduleTimeout(unsigned char, unsigned short, IXFReactive*)
    uptime.o(i._ZN6UpTime12processEventEv) refers to uptime.o(i._ZN6UpTime15doMinuteElapsedEv) for UpTime::doMinuteElapsed()
    uptime.o(i._ZN6UpTime15doMinuteElapsedEv) refers to uptime.o(i._ZN6UpTime15notifyObserversEv) for UpTime::notifyObservers()
    uptime.o(i._ZN6UpTimeC1Ev) refers to xfreactive.o(i._ZN10XFReactiveC1EP8XFThread) for XFReactive::XFReactive(XFThread*)
    uptime.o(i._ZN6UpTimeC1Ev) refers to uptime.o(.constdata__ZTV6UpTime) for vtable for UpTime
    uptime.o(i._ZN6UpTimeC1Ev) refers to uptime.o(.data) for .data
    uptime.o(i._ZN6UpTimeD0Ev) refers to uptime.o(i._ZN6UpTimeD1Ev) for UpTime::~UpTime()
    uptime.o(i._ZN6UpTimeD0Ev) refers to delete.o(i._ZdlPv) for operator delete (void*)
    uptime.o(i._ZN6UpTimeD1Ev) refers to xfreactive.o(i._ZN10XFReactiveD1Ev) for XFReactive::~XFReactive()
    uptime.o(i._ZNK6UpTime12upTimeStringEv) refers to printf8.o(i.__0sprintf$8) for __2sprintf
    uptime.o(i._ZNK6UpTime12upTimeStringEv) refers to uptime.o(.bss) for .bss
    uptime.o(.ARM.exidx) refers to uptime.o(i._ZN6UpTimeC1Ev) for i._ZN6UpTimeC1Ev
    uptime.o(.ARM.exidx) refers to uptime.o(i._ZN6UpTimeD1Ev) for i._ZN6UpTimeD1Ev
    uptime.o(.ARM.exidx) refers to uptime.o(i._ZN6UpTimeD0Ev) for i._ZN6UpTimeD0Ev
    uptime.o(.ARM.exidx) refers to uptime.o(i._ZN6UpTime9subscribeERNS_9IObserverE) for i._ZN6UpTime9subscribeERNS_9IObserverE
    uptime.o(.ARM.exidx) refers to uptime.o(i._ZNK6UpTime12upTimeStringEv) for i._ZNK6UpTime12upTimeStringEv
    uptime.o(.ARM.exidx) refers to uptime.o(i._ZN6UpTime15notifyObserversEv) for i._ZN6UpTime15notifyObserversEv
    uptime.o(.ARM.exidx) refers to uptime.o(i._ZN6UpTime15doMinuteElapsedEv) for i._ZN6UpTime15doMinuteElapsedEv
    uptime.o(.ARM.exidx) refers to uptime.o(i._ZN6UpTime12processEventEv) for i._ZN6UpTime12processEventEv
    factory.o(i._ZN7Factory18onFlashInitializedEPN5flash15FlashControllerE) refers to appfactory.o(i._ZN7Factory10appRestoreEv) for Factory::appRestore()
    factory.o(i._ZN7Factory18onFlashInitializedEPN5flash15FlashControllerE) refers to appfactory.o(i._ZN7Factory8appCheckEv) for Factory::appCheck()
    factory.o(i._ZN7Factory18onFlashInitializedEPN5flash15FlashControllerE) refers to appfactory.o(i._ZN7Factory10appPrepareEv) for Factory::appPrepare()
    factory.o(i._ZN7Factory18onFlashInitializedEPN5flash15FlashControllerE) refers to factory.o(.data) for .data
    factory.o(i._ZN7Factory6launchE12eProductMode) refers to appfactory.o(i._ZN7Factory7appInitEv) for Factory::appInit()
    factory.o(i._ZN7Factory6launchE12eProductMode) refers to appfactory.o(i._ZN7Factory8appBuildEv) for Factory::appBuild()
    factory.o(i._ZN7Factory6launchE12eProductMode) refers to appfactory.o(i._ZN7Factory7appBindEv) for Factory::appBind()
    factory.o(i._ZN7Factory6launchE12eProductMode) refers to appfactory.o(i._ZN7Factory14appEnableFlashEv) for Factory::appEnableFlash()
    factory.o(i._ZN7Factory6launchE12eProductMode) refers to factory.o(.data) for .data
    factory.o(i._ZN7FactoryC1Ev) refers to factory.o(.constdata__ZTV7Factory) for vtable for Factory
    factory.o(i._ZN7FactoryC1Ev) refers to factory.o(.data) for .data
    factory.o(i.__sti___11_factory_cpp_b39dd76b) refers to blecontroller.o(i._ZN3ble13BleControllerC1Ev) for ble::BleController::BleController()
    factory.o(i.__sti___11_factory_cpp_b39dd76b) refers to aeabi_atexit.o(.text) for __aeabi_atexit
    factory.o(i.__sti___11_factory_cpp_b39dd76b) refers to peripheralcontroller.o(i._ZN3ble20PeripheralControllerC1Ev) for ble::PeripheralController::PeripheralController()
    factory.o(i.__sti___11_factory_cpp_b39dd76b) refers to blevendor.o(i._ZN3ble9BleVendorC1Ev) for ble::BleVendor::BleVendor()
    factory.o(i.__sti___11_factory_cpp_b39dd76b) refers to mhfsservice.o(i._ZN3ble11MhfsServiceC1Ev) for ble::MhfsService::MhfsService()
    factory.o(i.__sti___11_factory_cpp_b39dd76b) refers to ledcontroller.o(i._ZN4gpio13LedControllerC1Ev) for gpio::LedController::LedController()
    factory.o(i.__sti___11_factory_cpp_b39dd76b) refers to flashcontroller.o(i._ZN5flash15FlashControllerC1Ev) for flash::FlashController::FlashController()
    factory.o(i.__sti___11_factory_cpp_b39dd76b) refers to saadchal.o(i._ZN3hal8SaadcHalC1Ev) for hal::SaadcHal::SaadcHal()
    factory.o(i.__sti___11_factory_cpp_b39dd76b) refers to batterymanager.o(i._ZN7battery14BatteryManagerC1Ev) for battery::BatteryManager::BatteryManager()
    factory.o(i.__sti___11_factory_cpp_b39dd76b) refers to pwmhal.o(i._ZN3hal6PwmHalC1Ev) for hal::PwmHal::PwmHal()
    factory.o(i.__sti___11_factory_cpp_b39dd76b) refers to ads1118.o(i._ZN6sensor7ADS1118C1Ev) for sensor::ADS1118::ADS1118()
    factory.o(i.__sti___11_factory_cpp_b39dd76b) refers to sensorcontroller.o(i._ZN6sensor16SensorControllerC1Ev) for sensor::SensorController::SensorController()
    factory.o(i.__sti___11_factory_cpp_b39dd76b) refers to factory.o(.bss) for .bss
    factory.o(i.__sti___11_factory_cpp_b39dd76b) refers to blecontroller.o(i._ZN3ble13BleControllerD1Ev) for ble::BleController::~BleController()
    factory.o(i.__sti___11_factory_cpp_b39dd76b) refers to peripheralcontroller.o(i._ZN3ble20PeripheralControllerD1Ev) for ble::PeripheralController::~PeripheralController()
    factory.o(i.__sti___11_factory_cpp_b39dd76b) refers to factory.o(.data) for .data
    factory.o(i.__sti___11_factory_cpp_b39dd76b) refers to blevendor.o(i._ZN3ble9BleVendorD1Ev) for ble::BleVendor::~BleVendor()
    factory.o(i.__sti___11_factory_cpp_b39dd76b) refers to mhfsservice.o(i._ZN3ble11MhfsServiceD1Ev) for ble::MhfsService::~MhfsService()
    factory.o(i.__sti___11_factory_cpp_b39dd76b) refers to ledcontroller.o(i._ZN4gpio13LedControllerD1Ev) for gpio::LedController::~LedController()
    factory.o(i.__sti___11_factory_cpp_b39dd76b) refers to flashcontroller.o(i._ZN5flash15FlashControllerD1Ev) for flash::FlashController::~FlashController()
    factory.o(i.__sti___11_factory_cpp_b39dd76b) refers to saadchal.o(i._ZN3hal8SaadcHalD1Ev) for hal::SaadcHal::~SaadcHal()
    factory.o(i.__sti___11_factory_cpp_b39dd76b) refers to batterymanager.o(i._ZN7battery14BatteryManagerD1Ev) for battery::BatteryManager::~BatteryManager()
    factory.o(i.__sti___11_factory_cpp_b39dd76b) refers to pwmhal.o(i._ZN3hal6PwmHalD1Ev) for hal::PwmHal::~PwmHal()
    factory.o(i.__sti___11_factory_cpp_b39dd76b) refers to ads1118.o(i._ZN6sensor7ADS1118D1Ev) for sensor::ADS1118::~ADS1118()
    factory.o(i.__sti___11_factory_cpp_b39dd76b) refers to sensorcontroller.o(i._ZN6sensor16SensorControllerD1Ev) for sensor::SensorController::~SensorController()
    factory.o(.ARM.exidx) refers to factory.o(i._ZN7FactoryC1Ev) for i._ZN7FactoryC1Ev
    factory.o(.ARM.exidx) refers to factory.o(i._ZN7Factory6launchE12eProductMode) for i._ZN7Factory6launchE12eProductMode
    factory.o(.ARM.exidx) refers to factory.o(i._ZN7Factory18onFlashInitializedEPN5flash15FlashControllerE) for i._ZN7Factory18onFlashInitializedEPN5flash15FlashControllerE
    factory.o(.ARM.exidx) refers to factory.o(i.__sti___11_factory_cpp_b39dd76b) for i.__sti___11_factory_cpp_b39dd76b
    factory.o(.init_array) refers to factory.o(i.__sti___11_factory_cpp_b39dd76b) for __sti___11_factory_cpp_b39dd76b
    factory.o(.init_array) refers to cpp_init.o(.text) for __cpp_initialize__aeabi_
    main.o(i.__sti___8_main_cpp_48b9ef9b) refers to factory.o(i._ZN7FactoryC1Ev) for Factory::Factory()
    main.o(i.__sti___8_main_cpp_48b9ef9b) refers to main.o(.data) for .data
    main.o(i.main) refers to gpiohal.o(i._ZN3hal7GpioHal4initEv) for hal::GpioHal::init()
    main.o(i.main) refers to gpiohal.o(i._ZN3hal7GpioHal12cfgPinOutputEjjjj) for hal::GpioHal::cfgPinOutput(unsigned, unsigned, unsigned, unsigned)
    main.o(i.main) refers to gpiohal.o(i._ZN3hal7GpioHal6pinSetEj) for hal::GpioHal::pinSet(unsigned)
    main.o(i.main) refers to factory.o(i._ZN7Factory6launchE12eProductMode) for Factory::launch(eProductMode)
    main.o(i.main) refers to xf.o(i._ZN2XF5startEv) for XF::start()
    main.o(i.main) refers to main.o(.data) for .data
    main.o(.ARM.exidx) refers to main.o(i.assert_nrf_callback) for i.assert_nrf_callback
    main.o(.ARM.exidx) refers to main.o(i.HardFault_Handler) for i.HardFault_Handler
    main.o(.ARM.exidx) refers to main.o(i.main) for i.main
    main.o(.ARM.exidx) refers to main.o(i.__sti___8_main_cpp_48b9ef9b) for i.__sti___8_main_cpp_48b9ef9b
    main.o(.init_array) refers to main.o(i.__sti___8_main_cpp_48b9ef9b) for __sti___8_main_cpp_48b9ef9b
    main.o(.init_array) refers to cpp_init.o(.text) for __cpp_initialize__aeabi_
    gpiohal.o(i._ZN3hal7GpioHal11cfgPinInputEjjjj) refers to gpiohal.o(i._Z12nrf_gpio_cfgj18nrf_gpio_pin_dir_t20nrf_gpio_pin_input_t19nrf_gpio_pin_pull_t20nrf_gpio_pin_drive_t20nrf_gpio_pin_sense_t) for nrf_gpio_cfg(unsigned, nrf_gpio_pin_dir_t, nrf_gpio_pin_input_t, nrf_gpio_pin_pull_t, nrf_gpio_pin_drive_t, nrf_gpio_pin_sense_t)
    gpiohal.o(i._ZN3hal7GpioHal12cfgPinOutputEjjjj) refers to gpiohal.o(i._Z12nrf_gpio_cfgj18nrf_gpio_pin_dir_t20nrf_gpio_pin_input_t19nrf_gpio_pin_pull_t20nrf_gpio_pin_drive_t20nrf_gpio_pin_sense_t) for nrf_gpio_cfg(unsigned, nrf_gpio_pin_dir_t, nrf_gpio_pin_input_t, nrf_gpio_pin_pull_t, nrf_gpio_pin_drive_t, nrf_gpio_pin_sense_t)
    gpiohal.o(i._ZN3hal7GpioHal13pinMaskToggleEy) refers to gpiohal.o(i._ZN3hal7GpioHal10pinMaskSetEy) for hal::GpioHal::pinMaskSet(unsigned long long)
    gpiohal.o(i._ZN3hal7GpioHal13pinMaskToggleEy) refers to gpiohal.o(i._ZN3hal7GpioHal12pinMaskClearEy) for hal::GpioHal::pinMaskClear(unsigned long long)
    gpiohal.o(i._ZN3hal7GpioHal14cfgQuickOutputEjj) refers to gpiohal.o(i._ZN3hal7GpioHal12cfgPinOutputEjjjj) for hal::GpioHal::cfgPinOutput(unsigned, unsigned, unsigned, unsigned)
    gpiohal.o(i._ZN3hal7GpioHal17cfgPinInputNoPullEj) refers to gpiohal.o(i._ZN3hal7GpioHal11cfgPinInputEjjjj) for hal::GpioHal::cfgPinInput(unsigned, unsigned, unsigned, unsigned)
    gpiohal.o(i._ZN3hal7GpioHal17cfgPinInputPullupEj) refers to gpiohal.o(i._ZN3hal7GpioHal11cfgPinInputEjjjj) for hal::GpioHal::cfgPinInput(unsigned, unsigned, unsigned, unsigned)
    gpiohal.o(i._ZN3hal7GpioHal19cfgPinInputPullDownEj) refers to gpiohal.o(i._ZN3hal7GpioHal11cfgPinInputEjjjj) for hal::GpioHal::cfgPinInput(unsigned, unsigned, unsigned, unsigned)
    gpiohal.o(i._ZN3hal7GpioHal4initEv) refers to gpiohal.o(i._Z12nrf_gpio_cfgj18nrf_gpio_pin_dir_t20nrf_gpio_pin_input_t19nrf_gpio_pin_pull_t20nrf_gpio_pin_drive_t20nrf_gpio_pin_sense_t) for nrf_gpio_cfg(unsigned, nrf_gpio_pin_dir_t, nrf_gpio_pin_input_t, nrf_gpio_pin_pull_t, nrf_gpio_pin_drive_t, nrf_gpio_pin_sense_t)
    gpiohal.o(i._ZN3hal7GpioHal6pinSetEj) refers to llshl.o(.text) for __aeabi_llsl
    gpiohal.o(i._ZN3hal7GpioHal8pinClearEj) refers to llshl.o(.text) for __aeabi_llsl
    gpiohal.o(i._ZN3hal7GpioHal8pinWriteEjh) refers to llshl.o(.text) for __aeabi_llsl
    gpiohal.o(i._ZN3hal7GpioHal9pinToggleEj) refers to llshl.o(.text) for __aeabi_llsl
    gpiohal.o(.ARM.exidx) refers to gpiohal.o(i._ZN3hal7GpioHal4initEv) for i._ZN3hal7GpioHal4initEv
    gpiohal.o(.ARM.exidx) refers to gpiohal.o(i._ZN3hal7GpioHal11cfgPinInputEjjjj) for i._ZN3hal7GpioHal11cfgPinInputEjjjj
    gpiohal.o(.ARM.exidx) refers to gpiohal.o(i._ZN3hal7GpioHal17cfgPinInputNoPullEj) for i._ZN3hal7GpioHal17cfgPinInputNoPullEj
    gpiohal.o(.ARM.exidx) refers to gpiohal.o(i._ZN3hal7GpioHal17cfgPinInputPullupEj) for i._ZN3hal7GpioHal17cfgPinInputPullupEj
    gpiohal.o(.ARM.exidx) refers to gpiohal.o(i._ZN3hal7GpioHal19cfgPinInputPullDownEj) for i._ZN3hal7GpioHal19cfgPinInputPullDownEj
    gpiohal.o(.ARM.exidx) refers to gpiohal.o(i._ZN3hal7GpioHal12cfgPinOutputEjjjj) for i._ZN3hal7GpioHal12cfgPinOutputEjjjj
    gpiohal.o(.ARM.exidx) refers to gpiohal.o(i._ZN3hal7GpioHal14cfgQuickOutputEjj) for i._ZN3hal7GpioHal14cfgQuickOutputEjj
    gpiohal.o(.ARM.exidx) refers to gpiohal.o(i._ZN3hal7GpioHal12pinMaskClearEy) for i._ZN3hal7GpioHal12pinMaskClearEy
    gpiohal.o(.ARM.exidx) refers to gpiohal.o(i._ZN3hal7GpioHal10pinMaskSetEy) for i._ZN3hal7GpioHal10pinMaskSetEy
    gpiohal.o(.ARM.exidx) refers to gpiohal.o(i._ZN3hal7GpioHal13pinMaskToggleEy) for i._ZN3hal7GpioHal13pinMaskToggleEy
    gpiohal.o(.ARM.exidx) refers to gpiohal.o(i._ZN3hal7GpioHal8pinClearEj) for i._ZN3hal7GpioHal8pinClearEj
    gpiohal.o(.ARM.exidx) refers to gpiohal.o(i._ZN3hal7GpioHal6pinSetEj) for i._ZN3hal7GpioHal6pinSetEj
    gpiohal.o(.ARM.exidx) refers to gpiohal.o(i._ZN3hal7GpioHal9pinToggleEj) for i._ZN3hal7GpioHal9pinToggleEj
    gpiohal.o(.ARM.exidx) refers to gpiohal.o(i._ZN3hal7GpioHal8pinWriteEjh) for i._ZN3hal7GpioHal8pinWriteEjh
    gpiohal.o(.ARM.exidx) refers to gpiohal.o(i._ZN3hal7GpioHal7pinReadEj) for i._ZN3hal7GpioHal7pinReadEj
    gpiohal.o(.ARM.exidx) refers to gpiohal.o(i._ZN3hal7GpioHal11pinMaskReadEy) for i._ZN3hal7GpioHal11pinMaskReadEy
    gpiohal.o(.ARM.exidx) refers to gpiohal.o(i._Z12nrf_gpio_cfgj18nrf_gpio_pin_dir_t20nrf_gpio_pin_input_t19nrf_gpio_pin_pull_t20nrf_gpio_pin_drive_t20nrf_gpio_pin_sense_t) for i._Z12nrf_gpio_cfgj18nrf_gpio_pin_dir_t20nrf_gpio_pin_input_t19nrf_gpio_pin_pull_t20nrf_gpio_pin_drive_t20nrf_gpio_pin_sense_t
    irqlinetouartmaster.o(i._ZN3hal19IrqLineToUartMaster10initializeEv) refers to gpiohal.o(i._ZN3hal7GpioHal14cfgQuickOutputEjj) for hal::GpioHal::cfgQuickOutput(unsigned, unsigned)
    irqlinetouartmaster.o(i._ZN3hal19IrqLineToUartMaster3setEv) refers to gpiohal.o(i._ZN3hal7GpioHal6pinSetEj) for hal::GpioHal::pinSet(unsigned)
    irqlinetouartmaster.o(i._ZN3hal19IrqLineToUartMaster5clearEv) refers to gpiohal.o(i._ZN3hal7GpioHal8pinClearEj) for hal::GpioHal::pinClear(unsigned)
    irqlinetouartmaster.o(.ARM.exidx) refers to irqlinetouartmaster.o(i._ZN3hal19IrqLineToUartMaster10initializeEv) for i._ZN3hal19IrqLineToUartMaster10initializeEv
    irqlinetouartmaster.o(.ARM.exidx) refers to irqlinetouartmaster.o(i._ZN3hal19IrqLineToUartMaster3setEv) for i._ZN3hal19IrqLineToUartMaster3setEv
    irqlinetouartmaster.o(.ARM.exidx) refers to irqlinetouartmaster.o(i._ZN3hal19IrqLineToUartMaster5clearEv) for i._ZN3hal19IrqLineToUartMaster5clearEv
    ledhal.o(i._ZN3hal6LedHal10_switchOffEh) refers to gpiohal.o(i._ZN3hal7GpioHal6pinSetEj) for hal::GpioHal::pinSet(unsigned)
    ledhal.o(i._ZN3hal6LedHal12_switchOnOffEhb) refers to gpiohal.o(i._ZN3hal7GpioHal8pinClearEj) for hal::GpioHal::pinClear(unsigned)
    ledhal.o(i._ZN3hal6LedHal12_switchOnOffEhb) refers to gpiohal.o(i._ZN3hal7GpioHal6pinSetEj) for hal::GpioHal::pinSet(unsigned)
    ledhal.o(i._ZN3hal6LedHal7initLedEh) refers to gpiohal.o(i._ZN3hal7GpioHal12cfgPinOutputEjjjj) for hal::GpioHal::cfgPinOutput(unsigned, unsigned, unsigned, unsigned)
    ledhal.o(i._ZN3hal6LedHal8initLedsEv) refers to gpiohal.o(i._ZN3hal7GpioHal12cfgPinOutputEjjjj) for hal::GpioHal::cfgPinOutput(unsigned, unsigned, unsigned, unsigned)
    ledhal.o(i._ZN3hal6LedHal8setLedOnEh) refers to ledhal.o(i._ZN3hal6LedHal12_switchOnOffEhb) for hal::LedHal::_switchOnOff(unsigned char, bool)
    ledhal.o(i._ZN3hal6LedHal9_switchOnEh) refers to gpiohal.o(i._ZN3hal7GpioHal8pinClearEj) for hal::GpioHal::pinClear(unsigned)
    ledhal.o(i._ZN3hal6LedHal9setLedOffEh) refers to ledhal.o(i._ZN3hal6LedHal12_switchOnOffEhb) for hal::LedHal::_switchOnOff(unsigned char, bool)
    ledhal.o(i._ZN3hal6LedHal9toggleLedEh) refers to gpiohal.o(i._ZN3hal7GpioHal9pinToggleEj) for hal::GpioHal::pinToggle(unsigned)
    ledhal.o(.ARM.exidx) refers to ledhal.o(i._ZN3hal6LedHal8initLedsEv) for i._ZN3hal6LedHal8initLedsEv
    ledhal.o(.ARM.exidx) refers to ledhal.o(i._ZN3hal6LedHal7initLedEh) for i._ZN3hal6LedHal7initLedEh
    ledhal.o(.ARM.exidx) refers to ledhal.o(i._ZN3hal6LedHal10_switchOffEh) for i._ZN3hal6LedHal10_switchOffEh
    ledhal.o(.ARM.exidx) refers to ledhal.o(i._ZN3hal6LedHal9_switchOnEh) for i._ZN3hal6LedHal9_switchOnEh
    ledhal.o(.ARM.exidx) refers to ledhal.o(i._ZN3hal6LedHal12_switchOnOffEhb) for i._ZN3hal6LedHal12_switchOnOffEhb
    ledhal.o(.ARM.exidx) refers to ledhal.o(i._ZN3hal6LedHal9setLedOffEh) for i._ZN3hal6LedHal9setLedOffEh
    ledhal.o(.ARM.exidx) refers to ledhal.o(i._ZN3hal6LedHal8setLedOnEh) for i._ZN3hal6LedHal8setLedOnEh
    ledhal.o(.ARM.exidx) refers to ledhal.o(i._ZN3hal6LedHal9toggleLedEh) for i._ZN3hal6LedHal9toggleLedEh
    saadchal.o(i._ZN3hal8SaadcHal10_initSaadcEv) refers to nrfx_saadc.o(i.nrfx_saadc_init) for nrfx_saadc_init
    saadchal.o(i._ZN3hal8SaadcHal10_initSaadcEv) refers to saadchal.o(i.saadcEventHandler) for saadcEventHandler
    saadchal.o(i._ZN3hal8SaadcHal12_initChannelEh) refers to nrfx_saadc.o(i.nrfx_saadc_channel_init) for nrfx_saadc_channel_init
    saadchal.o(i._ZN3hal8SaadcHal12_uninitSaadcEv) refers to nrfx_saadc.o(i.nrfx_saadc_uninit) for nrfx_saadc_uninit
    saadchal.o(i._ZN3hal8SaadcHal12onSaadcEventEPK16nrfx_saadc_evt_t) refers to saadchal.o(i._ZN3hal8SaadcHal19_setupSampleBuffersEv) for hal::SaadcHal::_setupSampleBuffers()
    saadchal.o(i._ZN3hal8SaadcHal12onSaadcEventEPK16nrfx_saadc_evt_t) refers to nrfx_saadc.o(i.nrfx_saadc_abort) for nrfx_saadc_abort
    saadchal.o(i._ZN3hal8SaadcHal12onSaadcEventEPK16nrfx_saadc_evt_t) refers to nrfx_saadc.o(i.nrfx_saadc_calibrate_offset) for nrfx_saadc_calibrate_offset
    saadchal.o(i._ZN3hal8SaadcHal12onSaadcEventEPK16nrfx_saadc_evt_t) refers to nrfx_saadc.o(i.nrfx_saadc_buffer_convert) for nrfx_saadc_buffer_convert
    saadchal.o(i._ZN3hal8SaadcHal12onSaadcEventEPK16nrfx_saadc_evt_t) refers to saadchal.o(i._ZN3hal8SaadcHal25_notifyObserverNewMeasureEPst) for hal::SaadcHal::_notifyObserverNewMeasure(short*, unsigned short)
    saadchal.o(i._ZN3hal8SaadcHal12onSaadcEventEPK16nrfx_saadc_evt_t) refers to saadchal.o(.data) for .data
    saadchal.o(i._ZN3hal8SaadcHal14_uninitChannelEh) refers to nrfx_saadc.o(i.nrfx_saadc_channel_uninit) for nrfx_saadc_channel_uninit
    saadchal.o(i._ZN3hal8SaadcHal19_setupSampleBuffersEv) refers to nrfx_saadc.o(i.nrfx_saadc_buffer_convert) for nrfx_saadc_buffer_convert
    saadchal.o(i._ZN3hal8SaadcHal4initEP19nrfx_saadc_config_tP26nrf_saadc_channel_config_t) refers to saadchal.o(i._ZN3hal8SaadcHal15_setSaadcConfigEP19nrfx_saadc_config_t) for hal::SaadcHal::_setSaadcConfig(nrfx_saadc_config_t*)
    saadchal.o(i._ZN3hal8SaadcHal4initEP19nrfx_saadc_config_tP26nrf_saadc_channel_config_t) refers to saadchal.o(i._ZN3hal8SaadcHal17_setChannelConfigEP26nrf_saadc_channel_config_t) for hal::SaadcHal::_setChannelConfig(nrf_saadc_channel_config_t*)
    saadchal.o(i._ZN3hal8SaadcHal4initEP19nrfx_saadc_config_tP26nrf_saadc_channel_config_t) refers to saadchal.o(i._ZN3hal8SaadcHal10_initSaadcEv) for hal::SaadcHal::_initSaadc()
    saadchal.o(i._ZN3hal8SaadcHal4initEP19nrfx_saadc_config_tP26nrf_saadc_channel_config_t) refers to saadchal.o(i._ZN3hal8SaadcHal12_initChannelEh) for hal::SaadcHal::_initChannel(unsigned char)
    saadchal.o(i._ZN3hal8SaadcHal4initEP19nrfx_saadc_config_tP26nrf_saadc_channel_config_t) refers to saadchal.o(i._ZN3hal8SaadcHal19_setupSampleBuffersEv) for hal::SaadcHal::_setupSampleBuffers()
    saadchal.o(i._ZN3hal8SaadcHal4initEP19nrfx_saadc_config_tP26nrf_saadc_channel_config_t) refers to saadchal.o(i._ZN3hal8SaadcHal17_setDefaultConfigEv) for hal::SaadcHal::_setDefaultConfig()
    saadchal.o(i._ZN3hal8SaadcHal6sampleEv) refers to nrfx_saadc.o(i.nrfx_saadc_sample) for nrfx_saadc_sample
    saadchal.o(i.saadcEventHandler) refers to saadchal.o(i._ZN3hal8SaadcHal12onSaadcEventEPK16nrfx_saadc_evt_t) for hal::SaadcHal::onSaadcEvent(const nrfx_saadc_evt_t*)
    saadchal.o(i.saadcEventHandler) refers to factory.o(.bss) for Factory::saadcHal
    saadchal.o(.ARM.exidx) refers to saadchal.o(i._ZN3hal8SaadcHal19_setupSampleBuffersEv) for i._ZN3hal8SaadcHal19_setupSampleBuffersEv
    saadchal.o(.ARM.exidx) refers to saadchal.o(i._ZN3hal8SaadcHal25_notifyObserverNewMeasureEPst) for i._ZN3hal8SaadcHal25_notifyObserverNewMeasureEPst
    saadchal.o(.ARM.exidx) refers to saadchal.o(i._ZN3hal8SaadcHal12onSaadcEventEPK16nrfx_saadc_evt_t) for i._ZN3hal8SaadcHal12onSaadcEventEPK16nrfx_saadc_evt_t
    saadchal.o(.ARM.exidx) refers to saadchal.o(i.saadcEventHandler) for i.saadcEventHandler
    saadchal.o(.ARM.exidx) refers to saadchal.o(i._ZN3hal8SaadcHalC1Ev) for i._ZN3hal8SaadcHalC1Ev
    saadchal.o(.ARM.exidx) refers to saadchal.o(i._ZN3hal8SaadcHalD1Ev) for i._ZN3hal8SaadcHalD1Ev
    saadchal.o(.ARM.exidx) refers to saadchal.o(i._ZN3hal8SaadcHal12_initChannelEh) for i._ZN3hal8SaadcHal12_initChannelEh
    saadchal.o(.ARM.exidx) refers to saadchal.o(i._ZN3hal8SaadcHal10_initSaadcEv) for i._ZN3hal8SaadcHal10_initSaadcEv
    saadchal.o(.ARM.exidx) refers to saadchal.o(i._ZN3hal8SaadcHal17_setChannelConfigEP26nrf_saadc_channel_config_t) for i._ZN3hal8SaadcHal17_setChannelConfigEP26nrf_saadc_channel_config_t
    saadchal.o(.ARM.exidx) refers to saadchal.o(i._ZN3hal8SaadcHal15_setSaadcConfigEP19nrfx_saadc_config_t) for i._ZN3hal8SaadcHal15_setSaadcConfigEP19nrfx_saadc_config_t
    saadchal.o(.ARM.exidx) refers to saadchal.o(i._ZN3hal8SaadcHal17_setDefaultConfigEv) for i._ZN3hal8SaadcHal17_setDefaultConfigEv
    saadchal.o(.ARM.exidx) refers to saadchal.o(i._ZN3hal8SaadcHal4initEP19nrfx_saadc_config_tP26nrf_saadc_channel_config_t) for i._ZN3hal8SaadcHal4initEP19nrfx_saadc_config_tP26nrf_saadc_channel_config_t
    saadchal.o(.ARM.exidx) refers to saadchal.o(i._ZN3hal8SaadcHal6sampleEv) for i._ZN3hal8SaadcHal6sampleEv
    saadchal.o(.ARM.exidx) refers to saadchal.o(i._ZN3hal8SaadcHal12_uninitSaadcEv) for i._ZN3hal8SaadcHal12_uninitSaadcEv
    saadchal.o(.ARM.exidx) refers to saadchal.o(i._ZN3hal8SaadcHal14_uninitChannelEh) for i._ZN3hal8SaadcHal14_uninitChannelEh
    pwmhal.o(i._ZN3hal6PwmHal10_uninitPwmEv) refers to nrfx_pwm.o(i.nrfx_pwm_uninit) for nrfx_pwm_uninit
    pwmhal.o(i._ZN3hal6PwmHal12initilializeENS0_6ePwmIdE18nrf_pwm_dec_load_t) refers to pwmhal.o(i._ZN3hal6PwmHal14_baseFrequencyEv) for hal::PwmHal::_baseFrequency()
    pwmhal.o(i._ZN3hal6PwmHal12setFrequencyEjb) refers to pwmhal.o(i._ZN3hal6PwmHal10_uninitPwmEv) for hal::PwmHal::_uninitPwm()
    pwmhal.o(i._ZN3hal6PwmHal12setFrequencyEjb) refers to pwmhal.o(i._ZN3hal6PwmHal11_setBaseClkEj) for hal::PwmHal::_setBaseClk(unsigned)
    pwmhal.o(i._ZN3hal6PwmHal12setFrequencyEjb) refers to pwmhal.o(i._ZN3hal6PwmHal14_baseFrequencyEv) for hal::PwmHal::_baseFrequency()
    pwmhal.o(i._ZN3hal6PwmHal12setFrequencyEjb) refers to sdktools.o(i._ZN5tools8SDKTools10roundedDivEyy) for tools::SDKTools::roundedDiv(unsigned long long, unsigned long long)
    pwmhal.o(i._ZN3hal6PwmHal12setOutputPinEPhjb) refers to pwmhal.o(i._ZN3hal6PwmHal10_uninitPwmEv) for hal::PwmHal::_uninitPwm()
    pwmhal.o(i._ZN3hal6PwmHal12setOutputPinEPhjb) refers to memseta.o(.text) for __aeabi_memset
    pwmhal.o(i._ZN3hal6PwmHal20setSequenceDurationsEhjj) refers to sdktools.o(i._ZN5tools8SDKTools10roundedDivEyy) for tools::SDKTools::roundedDiv(unsigned long long, unsigned long long)
    pwmhal.o(i._ZN3hal6PwmHal29setSequenceValuesAndDurationsEhPtjjj) refers to pwmhal.o(i._ZN3hal6PwmHal17setSequenceValuesEhPtj) for hal::PwmHal::setSequenceValues(unsigned char, unsigned short*, unsigned)
    pwmhal.o(i._ZN3hal6PwmHal29setSequenceValuesAndDurationsEhPtjjj) refers to pwmhal.o(i._ZN3hal6PwmHal20setSequenceDurationsEhjj) for hal::PwmHal::setSequenceDurations(unsigned char, unsigned, unsigned)
    pwmhal.o(i._ZN3hal6PwmHal5startEtb) refers to pwmhal.o(i._ZN3hal6PwmHal10_uninitPwmEv) for hal::PwmHal::_uninitPwm()
    pwmhal.o(i._ZN3hal6PwmHal5startEtb) refers to nrfx_pwm.o(i.nrfx_pwm_init) for nrfx_pwm_init
    pwmhal.o(i._ZN3hal6PwmHal5startEtb) refers to nrfx_pwm.o(i.nrfx_pwm_complex_playback) for nrfx_pwm_complex_playback
    pwmhal.o(i._ZN3hal6PwmHal5startEtb) refers to nrfx_pwm.o(i.nrfx_pwm_simple_playback) for nrfx_pwm_simple_playback
    pwmhal.o(i._ZN3hal6PwmHalC1Ev) refers to memseta.o(.text) for __aeabi_memset
    pwmhal.o(i._ZN3hal6PwmHalC1Ev) refers to pwmhal.o(.constdata__ZTVN3hal6PwmHalE) for vtable for hal::PwmHal
    pwmhal.o(i._ZN3hal6PwmHalD0Ev) refers to delete.o(i._ZdlPv) for operator delete (void*)
    pwmhal.o(.ARM.exidx) refers to pwmhal.o(i._ZN3hal6PwmHalC1Ev) for i._ZN3hal6PwmHalC1Ev
    pwmhal.o(.ARM.exidx) refers to pwmhal.o(i._ZN3hal6PwmHalD1Ev) for i._ZN3hal6PwmHalD1Ev
    pwmhal.o(.ARM.exidx) refers to pwmhal.o(i._ZN3hal6PwmHalD0Ev) for i._ZN3hal6PwmHalD0Ev
    pwmhal.o(.ARM.exidx) refers to pwmhal.o(i._ZN3hal6PwmHal12initilializeENS0_6ePwmIdE18nrf_pwm_dec_load_t) for i._ZN3hal6PwmHal12initilializeENS0_6ePwmIdE18nrf_pwm_dec_load_t
    pwmhal.o(.ARM.exidx) refers to pwmhal.o(i._ZN3hal6PwmHal20registerEventHandlerEPFYv19nrfx_pwm_evt_type_tEj) for i._ZN3hal6PwmHal20registerEventHandlerEPFYv19nrfx_pwm_evt_type_tEj
    pwmhal.o(.ARM.exidx) refers to pwmhal.o(i._ZN3hal6PwmHal11_setBaseClkEj) for i._ZN3hal6PwmHal11_setBaseClkEj
    pwmhal.o(.ARM.exidx) refers to pwmhal.o(i._ZN3hal6PwmHal10_uninitPwmEv) for i._ZN3hal6PwmHal10_uninitPwmEv
    pwmhal.o(.ARM.exidx) refers to pwmhal.o(i._ZN3hal6PwmHal12setFrequencyEjb) for i._ZN3hal6PwmHal12setFrequencyEjb
    pwmhal.o(.ARM.exidx) refers to pwmhal.o(i._ZN3hal6PwmHal12setOutputPinEPhjb) for i._ZN3hal6PwmHal12setOutputPinEPhjb
    pwmhal.o(.ARM.exidx) refers to pwmhal.o(i._ZN3hal6PwmHal12addOutputPinEhhb) for i._ZN3hal6PwmHal12addOutputPinEhhb
    pwmhal.o(.ARM.exidx) refers to pwmhal.o(i._ZN3hal6PwmHal20setSequenceDurationsEhjj) for i._ZN3hal6PwmHal20setSequenceDurationsEhjj
    pwmhal.o(.ARM.exidx) refers to pwmhal.o(i._ZN3hal6PwmHal17setSequenceValuesEhPtj) for i._ZN3hal6PwmHal17setSequenceValuesEhPtj
    pwmhal.o(.ARM.exidx) refers to pwmhal.o(i._ZN3hal6PwmHal29setSequenceValuesAndDurationsEhPtjjj) for i._ZN3hal6PwmHal29setSequenceValuesAndDurationsEhPtjjj
    pwmhal.o(.ARM.exidx) refers to pwmhal.o(i._ZN3hal6PwmHal19clearSequenceValuesEh) for i._ZN3hal6PwmHal19clearSequenceValuesEh
    pwmhal.o(.ARM.exidx) refers to pwmhal.o(i._ZN3hal6PwmHal5startEtb) for i._ZN3hal6PwmHal5startEtb
    pwmhal.o(.ARM.exidx) refers to pwmhal.o(i._ZN3hal6PwmHal10_outputPinEPh) for i._ZN3hal6PwmHal10_outputPinEPh
    critical.o(i.enterCritical) refers to critical.o(i.inIsr) for inIsr
    critical.o(i.enterCritical) refers to critical.o(.data) for .data
    critical.o(i.exitCritical) refers to critical.o(i.inIsr) for inIsr
    critical.o(i.exitCritical) refers to critical.o(.data) for .data
    batterymanager.o(i._ZN7battery14BatteryManager10_stopTimerEv) refers to sdktools.o(i._ZN5tools8SDKTools12appTimerStopEPv) for tools::SDKTools::appTimerStop(void*)
    batterymanager.o(i._ZN7battery14BatteryManager10_stopTimerEv) refers to batterymanager.o(.constdata) for .constdata
    batterymanager.o(i._ZN7battery14BatteryManager10initializeEv) refers to sdktools.o(i._ZN5tools8SDKTools14appTimerCreateEPKvhPv) for tools::SDKTools::appTimerCreate(const void*, unsigned char, void*)
    batterymanager.o(i._ZN7battery14BatteryManager10initializeEv) refers to batterymanager.o(i.battManagerTimeoutHandler) for battManagerTimeoutHandler
    batterymanager.o(i._ZN7battery14BatteryManager10initializeEv) refers to batterymanager.o(.constdata) for .constdata
    batterymanager.o(i._ZN7battery14BatteryManager11_startTimerEj) refers to sdktools.o(i._ZN5tools8SDKTools13appTimerStartEPvjS1_) for tools::SDKTools::appTimerStart(void*, unsigned, void*)
    batterymanager.o(i._ZN7battery14BatteryManager11_startTimerEj) refers to batterymanager.o(.constdata) for .constdata
    batterymanager.o(i._ZN7battery14BatteryManager13_initMeasurerEv) refers to saadchal.o(i._ZN3hal8SaadcHal4initEP19nrfx_saadc_config_tP26nrf_saadc_channel_config_t) for hal::SaadcHal::init(nrfx_saadc_config_t*, nrf_saadc_channel_config_t*)
    batterymanager.o(i._ZN7battery14BatteryManager13onMeasureDoneEPN3hal8SaadcHalEPst) refers to batterymanager.o(i._ZN7battery14BatteryManager22_getBattLevelInPercentEs) for battery::BatteryManager::_getBattLevelInPercent(short)
    batterymanager.o(i._ZN7battery14BatteryManager13onMeasureDoneEPN3hal8SaadcHalEPst) refers to batterymanager.o(i._ZN7battery14BatteryManager11_startTimerEj) for battery::BatteryManager::_startTimer(unsigned)
    batterymanager.o(i._ZN7battery14BatteryManager13onMeasureDoneEPN3hal8SaadcHalEPst) refers to batterymanager.o(.data) for .data
    batterymanager.o(i._ZN7battery14BatteryManager19_updateBatteryStateEb) refers to batterymanager.o(i._ZN7battery14BatteryManager23_notifyBattStateChangedEv) for battery::BatteryManager::_notifyBattStateChanged()
    batterymanager.o(i._ZN7battery14BatteryManager19_updateBatteryStateEv) refers to batterymanager.o(i._ZN7battery14BatteryManager19_updateBatteryStateEb) for battery::BatteryManager::_updateBatteryState(bool)
    batterymanager.o(i._ZN7battery14BatteryManager19performShippingModeEb) refers to batterymanager.o(i._ZN7battery14BatteryManager7disableEv) for battery::BatteryManager::disable()
    batterymanager.o(i._ZN7battery14BatteryManager19performShippingModeEb) refers to batterymanager.o(i._ZN7battery14BatteryManager19_updateBatteryStateEb) for battery::BatteryManager::_updateBatteryState(bool)
    batterymanager.o(i._ZN7battery14BatteryManager19performShippingModeEb) refers to batterymanager.o(i._ZN7battery14BatteryManager24_startBatteryMeasurementEv) for battery::BatteryManager::_startBatteryMeasurement()
    batterymanager.o(i._ZN7battery14BatteryManager22_getBattLevelInPercentEs) refers to ffltul.o(.text) for __aeabi_ul2f
    batterymanager.o(i._ZN7battery14BatteryManager22_getBattLevelInPercentEs) refers to ffixul.o(.text) for __aeabi_f2ulz
    batterymanager.o(i._ZN7battery14BatteryManager22_getBattLevelInPercentEs) refers to batterymanager.o(i._ZN7battery14BatteryManager23_notifyBattLevelChangedEv) for battery::BatteryManager::_notifyBattLevelChanged()
    batterymanager.o(i._ZN7battery14BatteryManager22_getBattLevelInPercentEs) refers to batterymanager.o(i._ZN7battery14BatteryManager19_updateBatteryStateEv) for battery::BatteryManager::_updateBatteryState()
    batterymanager.o(i._ZN7battery14BatteryManager23onBatteryManagerTimeoutEv) refers to saadchal.o(i._ZN3hal8SaadcHal12_uninitSaadcEv) for hal::SaadcHal::_uninitSaadc()
    batterymanager.o(i._ZN7battery14BatteryManager23onBatteryManagerTimeoutEv) refers to batterymanager.o(i._ZN7battery14BatteryManager11_startTimerEj) for battery::BatteryManager::_startTimer(unsigned)
    batterymanager.o(i._ZN7battery14BatteryManager23onBatteryManagerTimeoutEv) refers to batterymanager.o(i._ZN7battery14BatteryManager13_initMeasurerEv) for battery::BatteryManager::_initMeasurer()
    batterymanager.o(i._ZN7battery14BatteryManager23onBatteryManagerTimeoutEv) refers to batterymanager.o(i._ZN7battery14BatteryManager8_measureEv) for battery::BatteryManager::_measure()
    batterymanager.o(i._ZN7battery14BatteryManager24_startBatteryMeasurementEv) refers to batterymanager.o(i._ZN7battery14BatteryManager7disableEv) for battery::BatteryManager::disable()
    batterymanager.o(i._ZN7battery14BatteryManager24_startBatteryMeasurementEv) refers to batterymanager.o(i._ZN7battery14BatteryManager11_startTimerEj) for battery::BatteryManager::_startTimer(unsigned)
    batterymanager.o(i._ZN7battery14BatteryManager4bindEPN3hal8SaadcHalE) refers to batterymanager.o(t._ZN8ISubjectIN3hal13SaadcObserverELi12EE11addObserverEPS1_) for ISubject<hal::SaadcObserver, (int)12>::addObserver(hal::SaadcObserver*)
    batterymanager.o(i._ZN7battery14BatteryManager6enableEv) refers to batterymanager.o(i._ZN7battery14BatteryManager24_startBatteryMeasurementEv) for battery::BatteryManager::_startBatteryMeasurement()
    batterymanager.o(i._ZN7battery14BatteryManager7disableEv) refers to batterymanager.o(i._ZN7battery14BatteryManager10_stopTimerEv) for battery::BatteryManager::_stopTimer()
    batterymanager.o(i._ZN7battery14BatteryManager8_measureEv) refers to batterymanager.o(i._ZN7battery14BatteryManager13_initMeasurerEv) for battery::BatteryManager::_initMeasurer()
    batterymanager.o(i._ZN7battery14BatteryManager8_measureEv) refers to saadchal.o(i._ZN3hal8SaadcHal6sampleEv) for hal::SaadcHal::sample()
    batterymanager.o(i._ZN7battery14BatteryManagerC1Ev) refers to ffixul.o(.text) for __aeabi_f2ulz
    batterymanager.o(i._ZN7battery14BatteryManagerC1Ev) refers to batterymanager.o(.constdata__ZTVN7battery14BatteryManagerE) for vtable for battery::BatteryManager
    batterymanager.o(i._ZN7battery14BatteryManagerD0Ev) refers to delete.o(i._ZdlPv) for operator delete (void*)
    batterymanager.o(i._ZThn84_N7battery14BatteryManager13onMeasureDoneEPN3hal8SaadcHalEPst) refers to batterymanager.o(i._ZN7battery14BatteryManager13onMeasureDoneEPN3hal8SaadcHalEPst) for battery::BatteryManager::onMeasureDone(hal::SaadcHal*, short*, unsigned short)
    batterymanager.o(i.battManagerTimeoutHandler) refers to batterymanager.o(i._ZN7battery14BatteryManager23onBatteryManagerTimeoutEv) for battery::BatteryManager::onBatteryManagerTimeout()
    batterymanager.o(.ARM.exidx) refers to batterymanager.o(i._ZN7battery14BatteryManager11_startTimerEj) for i._ZN7battery14BatteryManager11_startTimerEj
    batterymanager.o(.ARM.exidx) refers to batterymanager.o(i._ZN7battery14BatteryManager13_initMeasurerEv) for i._ZN7battery14BatteryManager13_initMeasurerEv
    batterymanager.o(.ARM.exidx) refers to batterymanager.o(i._ZN7battery14BatteryManager8_measureEv) for i._ZN7battery14BatteryManager8_measureEv
    batterymanager.o(.ARM.exidx) refers to batterymanager.o(i._ZN7battery14BatteryManager23onBatteryManagerTimeoutEv) for i._ZN7battery14BatteryManager23onBatteryManagerTimeoutEv
    batterymanager.o(.ARM.exidx) refers to batterymanager.o(i.battManagerTimeoutHandler) for i.battManagerTimeoutHandler
    batterymanager.o(.ARM.exidx) refers to batterymanager.o(i._ZN7battery14BatteryManagerC1Ev) for i._ZN7battery14BatteryManagerC1Ev
    batterymanager.o(.ARM.exidx) refers to batterymanager.o(i._ZN7battery14BatteryManagerD1Ev) for i._ZN7battery14BatteryManagerD1Ev
    batterymanager.o(.ARM.exidx) refers to batterymanager.o(i._ZN7battery14BatteryManagerD0Ev) for i._ZN7battery14BatteryManagerD0Ev
    batterymanager.o(.ARM.exidx) refers to batterymanager.o(i._ZN7battery14BatteryManager10initializeEv) for i._ZN7battery14BatteryManager10initializeEv
    batterymanager.o(.ARM.exidx) refers to batterymanager.o(i._ZN7battery14BatteryManager4bindEPN3hal8SaadcHalE) for i._ZN7battery14BatteryManager4bindEPN3hal8SaadcHalE
    batterymanager.o(.ARM.exidx) refers to batterymanager.o(i._ZN7battery14BatteryManager10_stopTimerEv) for i._ZN7battery14BatteryManager10_stopTimerEv
    batterymanager.o(.ARM.exidx) refers to batterymanager.o(i._ZN7battery14BatteryManager7disableEv) for i._ZN7battery14BatteryManager7disableEv
    batterymanager.o(.ARM.exidx) refers to batterymanager.o(i._ZN7battery14BatteryManager24_startBatteryMeasurementEv) for i._ZN7battery14BatteryManager24_startBatteryMeasurementEv
    batterymanager.o(.ARM.exidx) refers to batterymanager.o(i._ZN7battery14BatteryManager6enableEv) for i._ZN7battery14BatteryManager6enableEv
    batterymanager.o(.ARM.exidx) refers to batterymanager.o(i._ZN7battery14BatteryManager23_notifyBattStateChangedEv) for i._ZN7battery14BatteryManager23_notifyBattStateChangedEv
    batterymanager.o(.ARM.exidx) refers to batterymanager.o(i._ZN7battery14BatteryManager19_updateBatteryStateEb) for i._ZN7battery14BatteryManager19_updateBatteryStateEb
    batterymanager.o(.ARM.exidx) refers to batterymanager.o(i._ZN7battery14BatteryManager19performShippingModeEb) for i._ZN7battery14BatteryManager19performShippingModeEb
    batterymanager.o(.ARM.exidx) refers to batterymanager.o(i._ZN7battery14BatteryManager4saveEPt) for i._ZN7battery14BatteryManager4saveEPt
    batterymanager.o(.ARM.exidx) refers to batterymanager.o(i._ZN7battery14BatteryManager7restoreEPj) for i._ZN7battery14BatteryManager7restoreEPj
    batterymanager.o(.ARM.exidx) refers to batterymanager.o(i._ZN7battery14BatteryManager19_updateBatteryStateEv) for i._ZN7battery14BatteryManager19_updateBatteryStateEv
    batterymanager.o(.ARM.exidx) refers to batterymanager.o(i._ZN7battery14BatteryManager23_notifyBattLevelChangedEv) for i._ZN7battery14BatteryManager23_notifyBattLevelChangedEv
    batterymanager.o(.ARM.exidx) refers to batterymanager.o(i._ZN7battery14BatteryManager22_getBattLevelInPercentEs) for i._ZN7battery14BatteryManager22_getBattLevelInPercentEs
    batterymanager.o(.ARM.exidx) refers to batterymanager.o(i._ZN7battery14BatteryManager13onMeasureDoneEPN3hal8SaadcHalEPst) for i._ZN7battery14BatteryManager13onMeasureDoneEPN3hal8SaadcHalEPst
    batterymanager.o(.ARM.exidx) refers to batterymanager.o(i._ZThn84_N7battery14BatteryManager13onMeasureDoneEPN3hal8SaadcHalEPst) for i._ZThn84_N7battery14BatteryManager13onMeasureDoneEPN3hal8SaadcHalEPst
    batterymanager.o(.constdata) refers to batterymanager.o(.bss) for _batteryManagerTimerId_data
    advertiser.o(i._ZN3ble10Advertiser10initializeEbbbbbbhb) refers to memseta.o(.text) for __aeabi_memclr4
    advertiser.o(i._ZN3ble10Advertiser10initializeEbbbbbbhb) refers to advertiser.o(i._ZN3ble10Advertiser15setupParametersEbbbbbbb) for ble::Advertiser::setupParameters(bool, bool, bool, bool, bool, bool, bool)
    advertiser.o(i._ZN3ble10Advertiser10initializeEbbbbbbhb) refers to advertiser.o(i._ZN3ble10Advertiser21_updateAdvertisingSetEv) for ble::Advertiser::_updateAdvertisingSet()
    advertiser.o(i._ZN3ble10Advertiser10initializeEbbbbbbhb) refers to advertiser.o(i.advEventHandler) for advEventHandler
    advertiser.o(i._ZN3ble10Advertiser10initializeEbbbbbbhb) refers to advertiser.o(i.advErrorHandler) for advErrorHandler
    advertiser.o(i._ZN3ble10Advertiser14updateTimeoutsEhjj) refers to advertiser.o(i._ZN3ble10Advertiser21_updateAdvertisingSetEv) for ble::Advertiser::_updateAdvertisingSet()
    advertiser.o(i._ZN3ble10Advertiser15setTxPowerLevelEa) refers to advertiser.o(i._ZN3ble10Advertiser21_updateAdvertisingSetEv) for ble::Advertiser::_updateAdvertisingSet()
    advertiser.o(i._ZN3ble10Advertiser15setupParametersEbbbbbbb) refers to advertiser.o(i._ZN3ble10Advertiser21_updateAdvertisingSetEv) for ble::Advertiser::_updateAdvertisingSet()
    advertiser.o(i._ZN3ble10Advertiser15updateIntervalsEjj) refers to advertiser.o(i._ZN3ble10Advertiser21_updateAdvertisingSetEv) for ble::Advertiser::_updateAdvertisingSet()
    advertiser.o(i._ZN3ble10Advertiser16peerAddressReplyEP14ble_gap_addr_t) refers to ble_advertising.o(i.ble_advertising_peer_addr_reply) for ble_advertising_peer_addr_reply
    advertiser.o(i._ZN3ble10Advertiser16setAdvertiseUUIDEthb) refers to advertiser.o(i._ZN3ble10Advertiser21_updateAdvertisingSetEv) for ble::Advertiser::_updateAdvertisingSet()
    advertiser.o(i._ZN3ble10Advertiser16startAdvertisingEb14ble_adv_mode_t) refers to ble_advertising.o(i.ble_advertising_restart_without_whitelist) for ble_advertising_restart_without_whitelist
    advertiser.o(i._ZN3ble10Advertiser16startAdvertisingEb14ble_adv_mode_t) refers to ble_advertising.o(i.ble_advertising_start) for ble_advertising_start
    advertiser.o(i._ZN3ble10Advertiser18setFastModeEnabledEb) refers to advertiser.o(i._ZN3ble10Advertiser21_updateAdvertisingSetEv) for ble::Advertiser::_updateAdvertisingSet()
    advertiser.o(i._ZN3ble10Advertiser18setSlowModeEnabledEb) refers to advertiser.o(i._ZN3ble10Advertiser21_updateAdvertisingSetEv) for ble::Advertiser::_updateAdvertisingSet()
    advertiser.o(i._ZN3ble10Advertiser21_updateAdvertisingSetEv) refers to memseta.o(.text) for __aeabi_memclr4
    advertiser.o(i._ZN3ble10Advertiser21_updateAdvertisingSetEv) refers to ble_advdata.o(i.ble_advdata_encode) for ble_advdata_encode
    advertiser.o(i._ZN3ble10Advertiser22setDirectedModeEnabledEb) refers to advertiser.o(i._ZN3ble10Advertiser21_updateAdvertisingSetEv) for ble::Advertiser::_updateAdvertisingSet()
    advertiser.o(i._ZN3ble10Advertiser23setWhitelistModeEnabledEb) refers to advertiser.o(i._ZN3ble10Advertiser21_updateAdvertisingSetEv) for ble::Advertiser::_updateAdvertisingSet()
    advertiser.o(i._ZN3ble10AdvertiserC1Ev) refers to cxa_guard_acquire.o(i.__cxa_guard_acquire) for __cxa_guard_acquire
    advertiser.o(i._ZN3ble10AdvertiserC1Ev) refers to advertiser.o(.constdata__ZTVN3ble10AdvertiserE) for vtable for ble::Advertiser
    advertiser.o(i._ZN3ble10AdvertiserC1Ev) refers to advertiser.o(.data) for .data
    advertiser.o(i._ZN3ble10AdvertiserC1Ev) refers to advertiser.o(sdh_ble_observers2) for sdh_ble_observers2
    advertiser.o(i._ZN3ble10AdvertiserC1Ev) refers to advertiser.o(sdh_soc_observers1) for sdh_soc_observers1
    advertiser.o(i._ZN3ble10AdvertiserD0Ev) refers to delete.o(i._ZdlPv) for operator delete (void*)
    advertiser.o(i.advErrorHandler) refers to peripheralcontroller.o(i._ZN3ble20PeripheralController10onAdvErrorEj) for ble::PeripheralController::onAdvError(unsigned)
    advertiser.o(i.advErrorHandler) refers to factory.o(.bss) for Factory::peripheralController
    advertiser.o(i.advEventHandler) refers to peripheralcontroller.o(i._ZN3ble20PeripheralController17onAdvStateChangedE13ble_adv_evt_t) for ble::PeripheralController::onAdvStateChanged(ble_adv_evt_t)
    advertiser.o(i.advEventHandler) refers to security.o(i._ZN3ble8Security18peerAddressRequestEv) for ble::Security::peerAddressRequest()
    advertiser.o(i.advEventHandler) refers to peripheralcontroller.o(i._ZN3ble20PeripheralController17onAdvWhitelistReqEv) for ble::PeripheralController::onAdvWhitelistReq()
    advertiser.o(i.advEventHandler) refers to factory.o(.bss) for Factory::peripheralController
    advertiser.o(.ARM.exidx) refers to advertiser.o(i.advEventHandler) for i.advEventHandler
    advertiser.o(.ARM.exidx) refers to advertiser.o(i.advErrorHandler) for i.advErrorHandler
    advertiser.o(.ARM.exidx) refers to advertiser.o(i._ZN3ble10AdvertiserC1Ev) for i._ZN3ble10AdvertiserC1Ev
    advertiser.o(.ARM.exidx) refers to advertiser.o(i._ZN3ble10AdvertiserD1Ev) for i._ZN3ble10AdvertiserD1Ev
    advertiser.o(.ARM.exidx) refers to advertiser.o(i._ZN3ble10AdvertiserD0Ev) for i._ZN3ble10AdvertiserD0Ev
    advertiser.o(.ARM.exidx) refers to advertiser.o(i._ZN3ble10Advertiser21_updateAdvertisingSetEv) for i._ZN3ble10Advertiser21_updateAdvertisingSetEv
    advertiser.o(.ARM.exidx) refers to advertiser.o(i._ZN3ble10Advertiser15setupParametersEbbbbbbb) for i._ZN3ble10Advertiser15setupParametersEbbbbbbb
    advertiser.o(.ARM.exidx) refers to advertiser.o(i._ZN3ble10Advertiser10initializeEbbbbbbhb) for i._ZN3ble10Advertiser10initializeEbbbbbbhb
    advertiser.o(.ARM.exidx) refers to advertiser.o(i._ZN3ble10Advertiser16setAdvertiseUUIDEthb) for i._ZN3ble10Advertiser16setAdvertiseUUIDEthb
    advertiser.o(.ARM.exidx) refers to advertiser.o(i._ZN3ble10Advertiser16startAdvertisingEb14ble_adv_mode_t) for i._ZN3ble10Advertiser16startAdvertisingEb14ble_adv_mode_t
    advertiser.o(.ARM.exidx) refers to advertiser.o(i._ZN3ble10Advertiser16peerAddressReplyEP14ble_gap_addr_t) for i._ZN3ble10Advertiser16peerAddressReplyEP14ble_gap_addr_t
    advertiser.o(.ARM.exidx) refers to advertiser.o(i._ZN3ble10Advertiser15updateIntervalsEjj) for i._ZN3ble10Advertiser15updateIntervalsEjj
    advertiser.o(.ARM.exidx) refers to advertiser.o(i._ZN3ble10Advertiser14updateTimeoutsEhjj) for i._ZN3ble10Advertiser14updateTimeoutsEhjj
    advertiser.o(.ARM.exidx) refers to advertiser.o(i._ZN3ble10Advertiser15setTxPowerLevelEa) for i._ZN3ble10Advertiser15setTxPowerLevelEa
    advertiser.o(.ARM.exidx) refers to advertiser.o(i._ZN3ble10Advertiser23setWhitelistModeEnabledEb) for i._ZN3ble10Advertiser23setWhitelistModeEnabledEb
    advertiser.o(.ARM.exidx) refers to advertiser.o(i._ZN3ble10Advertiser22setDirectedModeEnabledEb) for i._ZN3ble10Advertiser22setDirectedModeEnabledEb
    advertiser.o(.ARM.exidx) refers to advertiser.o(i._ZN3ble10Advertiser18setFastModeEnabledEb) for i._ZN3ble10Advertiser18setFastModeEnabledEb
    advertiser.o(.ARM.exidx) refers to advertiser.o(i._ZN3ble10Advertiser18setSlowModeEnabledEb) for i._ZN3ble10Advertiser18setSlowModeEnabledEb
    advertiser.o(sdh_ble_observers2) refers to ble_advertising.o(i.ble_advertising_on_ble_evt) for ble_advertising_on_ble_evt
    advertiser.o(sdh_soc_observers1) refers to ble_advertising.o(i.ble_advertising_on_sys_evt) for ble_advertising_on_sys_evt
    blecontroller.o(i._ZN3ble13BleController10initializeEv) refers to blecontroller.o(i._ZN3ble13BleController13_bleStackInitEv) for ble::BleController::_bleStackInit()
    blecontroller.o(i._ZN3ble13BleController13_bleStackInitEv) refers to nrf_sdh.o(i.nrf_sdh_enable_request) for nrf_sdh_enable_request
    blecontroller.o(i._ZN3ble13BleController13_bleStackInitEv) refers to nrf_sdh_ble.o(i.nrf_sdh_ble_default_cfg_set) for nrf_sdh_ble_default_cfg_set
    blecontroller.o(i._ZN3ble13BleController13_bleStackInitEv) refers to nrf_sdh_ble.o(i.nrf_sdh_ble_enable) for nrf_sdh_ble_enable
    blecontroller.o(i._ZN3ble13BleController13_bleStackInitEv) refers to cxa_guard_acquire.o(i.__cxa_guard_acquire) for __cxa_guard_acquire
    blecontroller.o(i._ZN3ble13BleController13_bleStackInitEv) refers to blecontroller.o(.data) for .data
    blecontroller.o(i._ZN3ble13BleController13_bleStackInitEv) refers to blecontroller.o(sdh_ble_observers2) for sdh_ble_observers2
    blecontroller.o(i._ZN3ble13BleController13_bleStackInitEv) refers to blecontroller.o(sdh_soc_observers1) for sdh_soc_observers1
    blecontroller.o(i._ZN3ble13BleControllerC1Ev) refers to blecontroller.o(.constdata__ZTVN3ble13BleControllerE) for vtable for ble::BleController
    blecontroller.o(i._ZN3ble13BleControllerD0Ev) refers to delete.o(i._ZdlPv) for operator delete (void*)
    blecontroller.o(i.bleEventHandler) refers to blecontroller.o(i._ZN3ble13BleController25notifyObserversOnBleEventEPK9ble_evt_t) for ble::BleController::notifyObserversOnBleEvent(const ble_evt_t*)
    blecontroller.o(i.sysEventHandler) refers to blecontroller.o(i._ZN3ble13BleController28notifyObserversOnSystemEventEj) for ble::BleController::notifyObserversOnSystemEvent(unsigned)
    blecontroller.o(.ARM.exidx) refers to blecontroller.o(i._ZN3ble13BleController25notifyObserversOnBleEventEPK9ble_evt_t) for i._ZN3ble13BleController25notifyObserversOnBleEventEPK9ble_evt_t
    blecontroller.o(.ARM.exidx) refers to blecontroller.o(i.bleEventHandler) for i.bleEventHandler
    blecontroller.o(.ARM.exidx) refers to blecontroller.o(i._ZN3ble13BleController28notifyObserversOnSystemEventEj) for i._ZN3ble13BleController28notifyObserversOnSystemEventEj
    blecontroller.o(.ARM.exidx) refers to blecontroller.o(i.sysEventHandler) for i.sysEventHandler
    blecontroller.o(.ARM.exidx) refers to blecontroller.o(i._ZN3ble13BleControllerD1Ev) for i._ZN3ble13BleControllerD1Ev
    blecontroller.o(.ARM.exidx) refers to blecontroller.o(i._ZN3ble13BleControllerD0Ev) for i._ZN3ble13BleControllerD0Ev
    blecontroller.o(.ARM.exidx) refers to blecontroller.o(i._ZN3ble13BleController13_bleStackInitEv) for i._ZN3ble13BleController13_bleStackInitEv
    blecontroller.o(.ARM.exidx) refers to blecontroller.o(i._ZN3ble13BleController10initializeEv) for i._ZN3ble13BleController10initializeEv
    blecontroller.o(.ARM.exidx) refers to blecontroller.o(i._ZN3ble13BleController13readBtAddressEP14ble_gap_addr_t) for i._ZN3ble13BleController13readBtAddressEP14ble_gap_addr_t
    blecontroller.o(.ARM.exidx) refers to blecontroller.o(i._ZN3ble13BleControllerC1Ev) for i._ZN3ble13BleControllerC1Ev
    blecontroller.o(sdh_ble_observers2) refers to blecontroller.o(i.bleEventHandler) for bleEventHandler
    blecontroller.o(sdh_soc_observers1) refers to blecontroller.o(i.sysEventHandler) for sysEventHandler
    gap.o(i._ZN3ble3Gap10initializeEPNS_13BleControllerEPNS_20PeripheralControllerEP21ble_gap_conn_params_tP23ble_gap_conn_sec_mode_tS6_) refers to gap.o(i._ZN3ble3Gap8_gapInitEP21ble_gap_conn_params_tP23ble_gap_conn_sec_mode_tS2_) for ble::Gap::_gapInit(ble_gap_conn_params_t*, ble_gap_conn_sec_mode_t*, ble_gap_conn_params_t*)
    gap.o(i._ZN3ble3Gap10onBleEventEPK9ble_evt_tPv) refers to gap.o(i._ZN3ble3Gap22_notifyConnParamUpdateEt) for ble::Gap::_notifyConnParamUpdate(unsigned short)
    gap.o(i._ZN3ble3Gap10onBleEventEPK9ble_evt_tPv) refers to gap.o(i._ZN3ble3Gap19_notifyGapConnectedEt) for ble::Gap::_notifyGapConnected(unsigned short)
    gap.o(i._ZN3ble3Gap10onBleEventEPK9ble_evt_tPv) refers to gap.o(i._ZN3ble3Gap22_notifyGapDisconnectedEt) for ble::Gap::_notifyGapDisconnected(unsigned short)
    gap.o(i._ZN3ble3Gap10onBleEventEPK9ble_evt_tPv) refers to gap.o(i._ZN3ble3Gap20_disableGapBusyTimerEv) for ble::Gap::_disableGapBusyTimer()
    gap.o(i._ZN3ble3Gap10onBleEventEPK9ble_evt_tPv) refers to gap.o(i._ZN3ble3Gap24_notifyGapPasskeyDisplayEtPc) for ble::Gap::_notifyGapPasskeyDisplay(unsigned short, char*)
    gap.o(i._ZN3ble3Gap10onBleEventEPK9ble_evt_tPv) refers to gap.o(i._ZN3ble3Gap30_notifyGapAuthenticationStatusEt25ble_gap_evt_auth_status_t) for ble::Gap::_notifyGapAuthenticationStatus(unsigned short, ble_gap_evt_auth_status_t)
    gap.o(i._ZN3ble3Gap14connParamsInitEv) refers to memseta.o(.text) for __aeabi_memclr4
    gap.o(i._ZN3ble3Gap14connParamsInitEv) refers to ble_conn_params.o(i.ble_conn_params_init) for ble_conn_params_init
    gap.o(i._ZN3ble3Gap14connParamsInitEv) refers to gap.o(i.onConnParamsEvent) for onConnParamsEvent
    gap.o(i._ZN3ble3Gap14connParamsInitEv) refers to gap.o(i.onConnParamsErrorHandler) for onConnParamsErrorHandler
    gap.o(i._ZN3ble3Gap18_startGapBusyTimerEv) refers to sdktools.o(i._ZN5tools8SDKTools13appTimerStartEPvjS1_) for tools::SDKTools::appTimerStart(void*, unsigned, void*)
    gap.o(i._ZN3ble3Gap18_startGapBusyTimerEv) refers to gap.o(.constdata) for .constdata
    gap.o(i._ZN3ble3Gap20_disableGapBusyTimerEv) refers to sdktools.o(i._ZN5tools8SDKTools12appTimerStopEPv) for tools::SDKTools::appTimerStop(void*)
    gap.o(i._ZN3ble3Gap20_disableGapBusyTimerEv) refers to gap.o(.constdata) for .constdata
    gap.o(i._ZN3ble3Gap21handleConnParamUpdateEb) refers to gap.o(i._ZN3ble3Gap18_startGapBusyTimerEv) for ble::Gap::_startGapBusyTimer()
    gap.o(i._ZN3ble3Gap21handleConnParamUpdateEb) refers to gap.o(i._ZN3ble3Gap26_checkConnectionParametersEb) for ble::Gap::_checkConnectionParameters(bool)
    gap.o(i._ZN3ble3Gap21handleConnParamUpdateEb) refers to gap.o(i._ZN3ble3Gap27_sendConnParamUpdateRequestEv) for ble::Gap::_sendConnParamUpdateRequest()
    gap.o(i._ZN3ble3Gap22timeoutConnChangeParamEv) refers to gap.o(i._ZN3ble3Gap27_sendConnParamUpdateRequestEv) for ble::Gap::_sendConnParamUpdateRequest()
    gap.o(i._ZN3ble3Gap25_setTxPowerToDefaultValueEv) refers to sdktools.o(i._ZN5tools8SDKTools10setTxPowerEhta) for tools::SDKTools::setTxPower(unsigned char, unsigned short, signed char)
    gap.o(i._ZN3ble3Gap27_sendConnParamUpdateRequestEv) refers to gap.o(i._ZN3ble3Gap35_changeConnectionParamForReactivityEb) for ble::Gap::_changeConnectionParamForReactivity(bool)
    gap.o(i._ZN3ble3Gap27_sendConnParamUpdateRequestEv) refers to gap.o(i._ZN3ble3Gap18_startGapBusyTimerEv) for ble::Gap::_startGapBusyTimer()
    gap.o(i._ZN3ble3Gap35_changeConnectionParamForReactivityEb) refers to ble_conn_params.o(i.ble_conn_params_change_conn_params) for ble_conn_params_change_conn_params
    gap.o(i._ZN3ble3Gap8_gapInitEP21ble_gap_conn_params_tP23ble_gap_conn_sec_mode_tS2_) refers to memseta.o(.text) for __aeabi_memclr4
    gap.o(i._ZN3ble3Gap8_gapInitEP21ble_gap_conn_params_tP23ble_gap_conn_sec_mode_tS2_) refers to memcpya.o(.text) for __aeabi_memcpy4
    gap.o(i._ZN3ble3Gap8_gapInitEP21ble_gap_conn_params_tP23ble_gap_conn_sec_mode_tS2_) refers to printf8.o(i.__0sprintf$8) for __2sprintf
    gap.o(i._ZN3ble3Gap8_gapInitEP21ble_gap_conn_params_tP23ble_gap_conn_sec_mode_tS2_) refers to sdktools.o(i._ZN5tools8SDKTools14appTimerCreateEPKvhPv) for tools::SDKTools::appTimerCreate(const void*, unsigned char, void*)
    gap.o(i._ZN3ble3Gap8_gapInitEP21ble_gap_conn_params_tP23ble_gap_conn_sec_mode_tS2_) refers to gap.o(i.busyTimeoutHandler) for busyTimeoutHandler
    gap.o(i._ZN3ble3Gap8_gapInitEP21ble_gap_conn_params_tP23ble_gap_conn_sec_mode_tS2_) refers to gap.o(.constdata) for .constdata
    gap.o(i._ZN3ble3GapC1Ev) refers to gap.o(.constdata__ZTVN3ble3GapE) for vtable for ble::Gap
    gap.o(i._ZN3ble3GapD0Ev) refers to delete.o(i._ZdlPv) for operator delete (void*)
    gap.o(i.busyTimeoutHandler) refers to gap.o(i._ZN3ble3Gap22timeoutConnChangeParamEv) for ble::Gap::timeoutConnChangeParam()
    gap.o(i.onConnParamsErrorHandler) refers to peripheralcontroller.o(i._ZN3ble20PeripheralController25onGapConnParamUpdateErrorEPNS_3GapEj) for ble::PeripheralController::onGapConnParamUpdateError(ble::Gap*, unsigned)
    gap.o(i.onConnParamsErrorHandler) refers to factory.o(.bss) for Factory::peripheralController
    gap.o(i.onConnParamsEvent) refers to peripheralcontroller.o(i._ZN3ble20PeripheralController25onGapConnParamEventFailedEv) for ble::PeripheralController::onGapConnParamEventFailed()
    gap.o(i.onConnParamsEvent) refers to factory.o(.bss) for Factory::peripheralController
    gap.o(.ARM.exidx) refers to gap.o(i.onConnParamsEvent) for i.onConnParamsEvent
    gap.o(.ARM.exidx) refers to gap.o(i.onConnParamsErrorHandler) for i.onConnParamsErrorHandler
    gap.o(.ARM.exidx) refers to gap.o(i._ZN3ble3Gap18_startGapBusyTimerEv) for i._ZN3ble3Gap18_startGapBusyTimerEv
    gap.o(.ARM.exidx) refers to gap.o(i._ZN3ble3Gap35_changeConnectionParamForReactivityEb) for i._ZN3ble3Gap35_changeConnectionParamForReactivityEb
    gap.o(.ARM.exidx) refers to gap.o(i._ZN3ble3Gap27_sendConnParamUpdateRequestEv) for i._ZN3ble3Gap27_sendConnParamUpdateRequestEv
    gap.o(.ARM.exidx) refers to gap.o(i._ZN3ble3Gap22timeoutConnChangeParamEv) for i._ZN3ble3Gap22timeoutConnChangeParamEv
    gap.o(.ARM.exidx) refers to gap.o(i.busyTimeoutHandler) for i.busyTimeoutHandler
    gap.o(.ARM.exidx) refers to gap.o(i._ZN3ble3GapC1Ev) for i._ZN3ble3GapC1Ev
    gap.o(.ARM.exidx) refers to gap.o(i._ZN3ble3GapD1Ev) for i._ZN3ble3GapD1Ev
    gap.o(.ARM.exidx) refers to gap.o(i._ZN3ble3GapD0Ev) for i._ZN3ble3GapD0Ev
    gap.o(.ARM.exidx) refers to gap.o(i._ZN3ble3Gap8_gapInitEP21ble_gap_conn_params_tP23ble_gap_conn_sec_mode_tS2_) for i._ZN3ble3Gap8_gapInitEP21ble_gap_conn_params_tP23ble_gap_conn_sec_mode_tS2_
    gap.o(.ARM.exidx) refers to gap.o(i._ZN3ble3Gap10initializeEPNS_13BleControllerEPNS_20PeripheralControllerEP21ble_gap_conn_params_tP23ble_gap_conn_sec_mode_tS6_) for i._ZN3ble3Gap10initializeEPNS_13BleControllerEPNS_20PeripheralControllerEP21ble_gap_conn_params_tP23ble_gap_conn_sec_mode_tS6_
    gap.o(.ARM.exidx) refers to gap.o(i._ZN3ble3Gap14connParamsInitEv) for i._ZN3ble3Gap14connParamsInitEv
    gap.o(.ARM.exidx) refers to gap.o(i._ZN3ble3Gap26_checkConnectionParametersEb) for i._ZN3ble3Gap26_checkConnectionParametersEb
    gap.o(.ARM.exidx) refers to gap.o(i._ZN3ble3Gap21handleConnParamUpdateEb) for i._ZN3ble3Gap21handleConnParamUpdateEb
    gap.o(.ARM.exidx) refers to gap.o(i._ZN3ble3Gap17forceToDisconnectEtb) for i._ZN3ble3Gap17forceToDisconnectEtb
    gap.o(.ARM.exidx) refers to gap.o(i._ZN3ble3Gap30_notifyGapAuthenticationStatusEt25ble_gap_evt_auth_status_t) for i._ZN3ble3Gap30_notifyGapAuthenticationStatusEt25ble_gap_evt_auth_status_t
    gap.o(.ARM.exidx) refers to gap.o(i._ZN3ble3Gap24_notifyGapPasskeyDisplayEtPc) for i._ZN3ble3Gap24_notifyGapPasskeyDisplayEtPc
    gap.o(.ARM.exidx) refers to gap.o(i._ZN3ble3Gap22_notifyConnParamUpdateEt) for i._ZN3ble3Gap22_notifyConnParamUpdateEt
    gap.o(.ARM.exidx) refers to gap.o(i._ZN3ble3Gap20_disableGapBusyTimerEv) for i._ZN3ble3Gap20_disableGapBusyTimerEv
    gap.o(.ARM.exidx) refers to gap.o(i._ZN3ble3Gap22_notifyGapDisconnectedEt) for i._ZN3ble3Gap22_notifyGapDisconnectedEt
    gap.o(.ARM.exidx) refers to gap.o(i._ZN3ble3Gap19_notifyGapConnectedEt) for i._ZN3ble3Gap19_notifyGapConnectedEt
    gap.o(.ARM.exidx) refers to gap.o(i._ZN3ble3Gap10onBleEventEPK9ble_evt_tPv) for i._ZN3ble3Gap10onBleEventEPK9ble_evt_tPv
    gap.o(.ARM.exidx) refers to gap.o(i._ZN3ble3Gap13onSystemEventEj) for i._ZN3ble3Gap13onSystemEventEj
    gap.o(.ARM.exidx) refers to gap.o(i._ZN3ble3Gap25_setTxPowerToDefaultValueEv) for i._ZN3ble3Gap25_setTxPowerToDefaultValueEv
    gap.o(.constdata) refers to gap.o(.bss) for _bleBusyTimerId_data
    gatt.o(i._ZN3ble4Gatt10initializeEv) refers to nrf_ble_gatt.o(i.nrf_ble_gatt_init) for nrf_ble_gatt_init
    gatt.o(i._ZN3ble4Gatt10initializeEv) refers to nrf_ble_gatt.o(i.nrf_ble_gatt_att_mtu_periph_set) for nrf_ble_gatt_att_mtu_periph_set
    gatt.o(i._ZN3ble4Gatt10initializeEv) refers to cxa_guard_acquire.o(i.__cxa_guard_acquire) for __cxa_guard_acquire
    gatt.o(i._ZN3ble4Gatt10initializeEv) refers to cxa_guard_release.o(i.__cxa_guard_release) for __cxa_guard_release
    gatt.o(i._ZN3ble4Gatt10initializeEv) refers to gatt.o(i.onGattEvent) for onGattEvent
    gatt.o(i._ZN3ble4Gatt10initializeEv) refers to gatt.o(.data) for .data
    gatt.o(i._ZN3ble4Gatt10initializeEv) refers to gatt.o(sdh_ble_observers2) for sdh_ble_observers2
    gatt.o(i._ZN3ble4Gatt16gattEventHandlerEP14nrf_ble_gatt_sPK18nrf_ble_gatt_evt_t) refers to gatt.o(i._ZN3ble4Gatt34_notifyObserverOnDataLengthUpdatedEth) for ble::Gatt::_notifyObserverOnDataLengthUpdated(unsigned short, unsigned char)
    gatt.o(i._ZN3ble4Gatt16gattEventHandlerEP14nrf_ble_gatt_sPK18nrf_ble_gatt_evt_t) refers to gatt.o(i._ZN3ble4Gatt27_notifyObserverOnMtuUpdatedEtt) for ble::Gatt::_notifyObserverOnMtuUpdated(unsigned short, unsigned short)
    gatt.o(i._ZN3ble4GattC1Ev) refers to gatt.o(.constdata__ZTVN3ble4GattE) for vtable for ble::Gatt
    gatt.o(i._ZN3ble4GattD0Ev) refers to delete.o(i._ZdlPv) for operator delete (void*)
    gatt.o(i.onGattEvent) refers to gatt.o(i._ZN3ble4Gatt16gattEventHandlerEP14nrf_ble_gatt_sPK18nrf_ble_gatt_evt_t) for ble::Gatt::gattEventHandler(nrf_ble_gatt_s*, const nrf_ble_gatt_evt_t*)
    gatt.o(i.onGattEvent) refers to factory.o(.bss) for Factory::peripheralController
    gatt.o(.ARM.exidx) refers to gatt.o(i._ZN3ble4Gatt34_notifyObserverOnDataLengthUpdatedEth) for i._ZN3ble4Gatt34_notifyObserverOnDataLengthUpdatedEth
    gatt.o(.ARM.exidx) refers to gatt.o(i._ZN3ble4Gatt27_notifyObserverOnMtuUpdatedEtt) for i._ZN3ble4Gatt27_notifyObserverOnMtuUpdatedEtt
    gatt.o(.ARM.exidx) refers to gatt.o(i._ZN3ble4Gatt16gattEventHandlerEP14nrf_ble_gatt_sPK18nrf_ble_gatt_evt_t) for i._ZN3ble4Gatt16gattEventHandlerEP14nrf_ble_gatt_sPK18nrf_ble_gatt_evt_t
    gatt.o(.ARM.exidx) refers to gatt.o(i.onGattEvent) for i.onGattEvent
    gatt.o(.ARM.exidx) refers to gatt.o(i._ZN3ble4GattC1Ev) for i._ZN3ble4GattC1Ev
    gatt.o(.ARM.exidx) refers to gatt.o(i._ZN3ble4GattD1Ev) for i._ZN3ble4GattD1Ev
    gatt.o(.ARM.exidx) refers to gatt.o(i._ZN3ble4GattD0Ev) for i._ZN3ble4GattD0Ev
    gatt.o(.ARM.exidx) refers to gatt.o(i._ZN3ble4Gatt10initializeEv) for i._ZN3ble4Gatt10initializeEv
    gatt.o(sdh_ble_observers2) refers to nrf_ble_gatt.o(i.nrf_ble_gatt_on_ble_evt) for nrf_ble_gatt_on_ble_evt
    gattcharacteristic.o(i._ZN3ble18GattCharacteristic11setSecurityEbbbNS_8Security16eSecurityLevelIdE) refers to gattcharacteristic.o(i._ZN3ble18GattCharacteristic19updateSecurityLevelENS_8Security16eSecurityLevelIdE) for ble::GattCharacteristic::updateSecurityLevel(ble::Security::eSecurityLevelId)
    gattcharacteristic.o(i._ZN3ble18GattCharacteristic19notifyIndicateValueEttPh) refers to gattcharacteristic.o(i._ZN3ble18GattCharacteristic8setValueEtPh) for ble::GattCharacteristic::setValue(unsigned short, unsigned char*)
    gattcharacteristic.o(i._ZN3ble18GattCharacteristic19notifyIndicateValueEttPh) refers to gattcharacteristic.o(i._ZN3ble18GattCharacteristic9sendValueEthtPh) for ble::GattCharacteristic::sendValue(unsigned short, unsigned char, unsigned short, unsigned char*)
    gattcharacteristic.o(i._ZN3ble18GattCharacteristic8setValueEtPh) refers to memseta.o(.text) for __aeabi_memclr
    gattcharacteristic.o(i._ZN3ble18GattCharacteristic8setValueEtPh) refers to memcpya.o(.text) for __aeabi_memcpy
    gattcharacteristic.o(i._ZN3ble18GattCharacteristicC1Ev) refers to memseta.o(.text) for __aeabi_memclr4
    gattcharacteristic.o(i._ZN3ble18GattCharacteristicC1Ev) refers to gattcharacteristic.o(.constdata__ZTVN3ble18GattCharacteristicE) for vtable for ble::GattCharacteristic
    gattcharacteristic.o(i._ZN3ble18GattCharacteristicD0Ev) refers to delete.o(i._ZdlPv) for operator delete (void*)
    gattcharacteristic.o(.ARM.exidx) refers to gattcharacteristic.o(i._ZN3ble18GattCharacteristicC1Ev) for i._ZN3ble18GattCharacteristicC1Ev
    gattcharacteristic.o(.ARM.exidx) refers to gattcharacteristic.o(i._ZN3ble18GattCharacteristicD1Ev) for i._ZN3ble18GattCharacteristicD1Ev
    gattcharacteristic.o(.ARM.exidx) refers to gattcharacteristic.o(i._ZN3ble18GattCharacteristicD0Ev) for i._ZN3ble18GattCharacteristicD0Ev
    gattcharacteristic.o(.ARM.exidx) refers to gattcharacteristic.o(i._ZN3ble18GattCharacteristic17addCharacteristicEt) for i._ZN3ble18GattCharacteristic17addCharacteristicEt
    gattcharacteristic.o(.ARM.exidx) refers to gattcharacteristic.o(i._ZN3ble18GattCharacteristic13setDescriptorEthPhj) for i._ZN3ble18GattCharacteristic13setDescriptorEthPhj
    gattcharacteristic.o(.ARM.exidx) refers to gattcharacteristic.o(i._ZN3ble18GattCharacteristic13setDefinitionEhbPh) for i._ZN3ble18GattCharacteristic13setDefinitionEhbPh
    gattcharacteristic.o(.ARM.exidx) refers to gattcharacteristic.o(i._ZN3ble18GattCharacteristic13setPropertiesEbbbbbh) for i._ZN3ble18GattCharacteristic13setPropertiesEbbbbbh
    gattcharacteristic.o(.ARM.exidx) refers to gattcharacteristic.o(i._ZN3ble18GattCharacteristic19updateSecurityLevelENS_8Security16eSecurityLevelIdE) for i._ZN3ble18GattCharacteristic19updateSecurityLevelENS_8Security16eSecurityLevelIdE
    gattcharacteristic.o(.ARM.exidx) refers to gattcharacteristic.o(i._ZN3ble18GattCharacteristic11setSecurityEbbbNS_8Security16eSecurityLevelIdE) for i._ZN3ble18GattCharacteristic11setSecurityEbbbNS_8Security16eSecurityLevelIdE
    gattcharacteristic.o(.ARM.exidx) refers to gattcharacteristic.o(i._ZN3ble18GattCharacteristic28enableNotificationIndicationEt) for i._ZN3ble18GattCharacteristic28enableNotificationIndicationEt
    gattcharacteristic.o(.ARM.exidx) refers to gattcharacteristic.o(i._ZN3ble18GattCharacteristic8getValueEP17ble_gatts_value_t) for i._ZN3ble18GattCharacteristic8getValueEP17ble_gatts_value_t
    gattcharacteristic.o(.ARM.exidx) refers to gattcharacteristic.o(i._ZN3ble18GattCharacteristic8setValueEtPh) for i._ZN3ble18GattCharacteristic8setValueEtPh
    gattcharacteristic.o(.ARM.exidx) refers to gattcharacteristic.o(i._ZN3ble18GattCharacteristic9sendValueEthtPh) for i._ZN3ble18GattCharacteristic9sendValueEthtPh
    gattcharacteristic.o(.ARM.exidx) refers to gattcharacteristic.o(i._ZN3ble18GattCharacteristic19notifyIndicateValueEttPh) for i._ZN3ble18GattCharacteristic19notifyIndicateValueEttPh
    peripheralcontroller.o(i._ZN3ble20PeripheralController10disconnectEb) refers to gap.o(i._ZN3ble3Gap17forceToDisconnectEtb) for ble::Gap::forceToDisconnect(unsigned short, bool)
    peripheralcontroller.o(i._ZN3ble20PeripheralController10initializeEP21ble_gap_conn_params_tS2_) refers to sdktools.o(i._ZN5tools8SDKTools14appTimerCreateEPKvhPv) for tools::SDKTools::appTimerCreate(const void*, unsigned char, void*)
    peripheralcontroller.o(i._ZN3ble20PeripheralController10initializeEP21ble_gap_conn_params_tS2_) refers to gatt.o(i._ZN3ble4Gatt10initializeEv) for ble::Gatt::initialize()
    peripheralcontroller.o(i._ZN3ble20PeripheralController10initializeEP21ble_gap_conn_params_tS2_) refers to peripheralcontroller.o(i.advertiseWithoutWhitelistTimeoutHandler) for advertiseWithoutWhitelistTimeoutHandler
    peripheralcontroller.o(i._ZN3ble20PeripheralController10initializeEP21ble_gap_conn_params_tS2_) refers to peripheralcontroller.o(.constdata) for .constdata
    peripheralcontroller.o(i._ZN3ble20PeripheralController10onAdvErrorEj) refers to peripheralcontroller.o(i._ZN3ble20PeripheralController15_notifyAdvErrorEj) for ble::PeripheralController::_notifyAdvError(unsigned)
    peripheralcontroller.o(i._ZN3ble20PeripheralController12processEventEv) refers to peripheralcontroller.o(i._ZN3ble20PeripheralController16setLowEnergyModeEv) for ble::PeripheralController::setLowEnergyMode()
    peripheralcontroller.o(i._ZN3ble20PeripheralController14onGapConnectedEPNS_3GapEt) refers to sdktools.o(i._ZN5tools8SDKTools12appTimerStopEPv) for tools::SDKTools::appTimerStop(void*)
    peripheralcontroller.o(i._ZN3ble20PeripheralController14onGapConnectedEPNS_3GapEt) refers to peripheralcontroller.o(i._ZN3ble20PeripheralController15setTxPowerLevelEah) for ble::PeripheralController::setTxPowerLevel(signed char, unsigned char)
    peripheralcontroller.o(i._ZN3ble20PeripheralController14onGapConnectedEPNS_3GapEt) refers to peripheralcontroller.o(i._ZN3ble20PeripheralController22_notifyConnectionStateEb) for ble::PeripheralController::_notifyConnectionState(bool)
    peripheralcontroller.o(i._ZN3ble20PeripheralController14onGapConnectedEPNS_3GapEt) refers to peripheralcontroller.o(.constdata) for .constdata
    peripheralcontroller.o(i._ZN3ble20PeripheralController15setTxPowerLevelEah) refers to sdktools.o(i._ZN5tools8SDKTools10getTxPowerEh) for tools::SDKTools::getTxPower(unsigned char)
    peripheralcontroller.o(i._ZN3ble20PeripheralController15setTxPowerLevelEah) refers to advertiser.o(i._ZN3ble10Advertiser15setTxPowerLevelEa) for ble::Advertiser::setTxPowerLevel(signed char)
    peripheralcontroller.o(i._ZN3ble20PeripheralController15setTxPowerLevelEah) refers to sdktools.o(i._ZN5tools8SDKTools10setTxPowerEhta) for tools::SDKTools::setTxPower(unsigned char, unsigned short, signed char)
    peripheralcontroller.o(i._ZN3ble20PeripheralController15setTxPowerLevelEah) refers to advertiser.o(i._ZN3ble10Advertiser16startAdvertisingEb14ble_adv_mode_t) for ble::Advertiser::startAdvertising(bool, ble_adv_mode_t)
    peripheralcontroller.o(i._ZN3ble20PeripheralController16setLowEnergyModeEv) refers to gap.o(i._ZN3ble3Gap21handleConnParamUpdateEb) for ble::Gap::handleConnParamUpdate(bool)
    peripheralcontroller.o(i._ZN3ble20PeripheralController16startAdvertisingEb14ble_adv_mode_t) refers to peripheralcontroller.o(i._ZN3ble20PeripheralController15setTxPowerLevelEah) for ble::PeripheralController::setTxPowerLevel(signed char, unsigned char)
    peripheralcontroller.o(i._ZN3ble20PeripheralController16startAdvertisingEb14ble_adv_mode_t) refers to sdktools.o(i._ZN5tools8SDKTools13appTimerStartEPvjS1_) for tools::SDKTools::appTimerStart(void*, unsigned, void*)
    peripheralcontroller.o(i._ZN3ble20PeripheralController16startAdvertisingEb14ble_adv_mode_t) refers to advertiser.o(i._ZN3ble10Advertiser16startAdvertisingEb14ble_adv_mode_t) for ble::Advertiser::startAdvertising(bool, ble_adv_mode_t)
    peripheralcontroller.o(i._ZN3ble20PeripheralController16startAdvertisingEb14ble_adv_mode_t) refers to peripheralcontroller.o(.constdata) for .constdata
    peripheralcontroller.o(i._ZN3ble20PeripheralController17onAdvStateChangedE13ble_adv_evt_t) refers to peripheralcontroller.o(i._ZN3ble20PeripheralController15_notifyAdvStateE13ble_adv_evt_t) for ble::PeripheralController::_notifyAdvState(ble_adv_evt_t)
    peripheralcontroller.o(i._ZN3ble20PeripheralController17onAdvStateChangedE13ble_adv_evt_t) refers to peripheralcontroller.o(i._ZN3ble20PeripheralController16startAdvertisingEb14ble_adv_mode_t) for ble::PeripheralController::startAdvertising(bool, ble_adv_mode_t)
    peripheralcontroller.o(i._ZN3ble20PeripheralController17onAdvWhitelistReqEv) refers to security.o(i._ZN3ble8Security12getWhitelistEP14ble_gap_addr_tPjP13ble_gap_irk_tS3_) for ble::Security::getWhitelist(ble_gap_addr_t*, unsigned*, ble_gap_irk_t*, unsigned*)
    peripheralcontroller.o(i._ZN3ble20PeripheralController17onAdvWhitelistReqEv) refers to ble_advertising.o(i.ble_advertising_whitelist_reply) for ble_advertising_whitelist_reply
    peripheralcontroller.o(i._ZN3ble20PeripheralController17onGapDisconnectedEPNS_3GapEt) refers to peripheralcontroller.o(i._ZN3ble20PeripheralController19setSecuritySettingsEbbbb) for ble::PeripheralController::setSecuritySettings(bool, bool, bool, bool)
    peripheralcontroller.o(i._ZN3ble20PeripheralController17onGapDisconnectedEPNS_3GapEt) refers to peripheralcontroller.o(i._ZN3ble20PeripheralController30_handleHighReactivityModeTimerEb) for ble::PeripheralController::_handleHighReactivityModeTimer(bool)
    peripheralcontroller.o(i._ZN3ble20PeripheralController17onGapDisconnectedEPNS_3GapEt) refers to peripheralcontroller.o(i._ZN3ble20PeripheralController22_notifyConnectionStateEb) for ble::PeripheralController::_notifyConnectionState(bool)
    peripheralcontroller.o(i._ZN3ble20PeripheralController17onGapDisconnectedEPNS_3GapEt) refers to peripheralcontroller.o(i._ZN3ble20PeripheralController16startAdvertisingEb14ble_adv_mode_t) for ble::PeripheralController::startAdvertising(bool, ble_adv_mode_t)
    peripheralcontroller.o(i._ZN3ble20PeripheralController18initSecurityAndGapEbbbb) refers to security.o(i._ZN3ble8Security23securityLevelFromConfigEbb) for ble::Security::securityLevelFromConfig(bool, bool)
    peripheralcontroller.o(i._ZN3ble20PeripheralController18initSecurityAndGapEbbbb) refers to advertiser.o(i._ZN3ble10Advertiser10initializeEbbbbbbhb) for ble::Advertiser::initialize(bool, bool, bool, bool, bool, bool, unsigned char, bool)
    peripheralcontroller.o(i._ZN3ble20PeripheralController18initSecurityAndGapEbbbb) refers to sdktools.o(i._ZN5tools8SDKTools10setTxPowerEhta) for tools::SDKTools::setTxPower(unsigned char, unsigned short, signed char)
    peripheralcontroller.o(i._ZN3ble20PeripheralController18initSecurityAndGapEbbbb) refers to services.o(i._ZN3ble8Services25initializeAdoptedServicesEv) for ble::Services::initializeAdoptedServices()
    peripheralcontroller.o(i._ZN3ble20PeripheralController18initSecurityAndGapEbbbb) refers to privateservice.o(i._ZN3ble14PrivateService17initializeServiceEhNS_8Security16eSecurityLevelIdE) for ble::PrivateService::initializeService(unsigned char, ble::Security::eSecurityLevelId)
    peripheralcontroller.o(i._ZN3ble20PeripheralController18initSecurityAndGapEbbbb) refers to peripheralcontroller.o(i._ZN3ble20PeripheralController31_setAdvertiseForPrivateServicesEv) for ble::PeripheralController::_setAdvertiseForPrivateServices()
    peripheralcontroller.o(i._ZN3ble20PeripheralController18initSecurityAndGapEbbbb) refers to peripheralcontroller.o(i._ZN3ble20PeripheralController19setSecuritySettingsEbbbb) for ble::PeripheralController::setSecuritySettings(bool, bool, bool, bool)
    peripheralcontroller.o(i._ZN3ble20PeripheralController18initSecurityAndGapEbbbb) refers to gap.o(i._ZN3ble3Gap14connParamsInitEv) for ble::Gap::connParamsInit()
    peripheralcontroller.o(i._ZN3ble20PeripheralController18initSecurityAndGapEbbbb) refers to peer_manager.o(i.pm_local_database_has_changed) for pm_local_database_has_changed
    peripheralcontroller.o(i._ZN3ble20PeripheralController18initSecurityAndGapEbbbb) refers to factory.o(.data) for Factory::heiVendor
    peripheralcontroller.o(i._ZN3ble20PeripheralController18initSecurityAndGapEv) refers to peripheralcontroller.o(i._ZN3ble20PeripheralController18initSecurityAndGapEbbbb) for ble::PeripheralController::initSecurityAndGap(bool, bool, bool, bool)
    peripheralcontroller.o(i._ZN3ble20PeripheralController19onGapPasskeyDisplayEPNS_3GapEtPc) refers to peripheralcontroller.o(i._ZN3ble20PeripheralController21_notifyPasskeyDisplayEPc) for ble::PeripheralController::_notifyPasskeyDisplay(char*)
    peripheralcontroller.o(i._ZN3ble20PeripheralController19setSecuritySettingsEbbbb) refers to peripheralcontroller.o(i._ZN3ble20PeripheralController10disconnectEb) for ble::PeripheralController::disconnect(bool)
    peripheralcontroller.o(i._ZN3ble20PeripheralController19setSecuritySettingsEbbbb) refers to security.o(i._ZN3ble8Security22setupSecurityParameterEbbb) for ble::Security::setupSecurityParameter(bool, bool, bool)
    peripheralcontroller.o(i._ZN3ble20PeripheralController19setSecuritySettingsEbbbb) refers to peripheralcontroller.o(i._ZN3ble20PeripheralController32updateSecurityForCharacteristicsEv) for ble::PeripheralController::updateSecurityForCharacteristics()
    peripheralcontroller.o(i._ZN3ble20PeripheralController19setSecuritySettingsEbbbb) refers to gap.o(i._ZN3ble3Gap10initializeEPNS_13BleControllerEPNS_20PeripheralControllerEP21ble_gap_conn_params_tP23ble_gap_conn_sec_mode_tS6_) for ble::Gap::initialize(ble::BleController*, ble::PeripheralController*, ble_gap_conn_params_t*, ble_gap_conn_sec_mode_t*, ble_gap_conn_params_t*)
    peripheralcontroller.o(i._ZN3ble20PeripheralController19setSecuritySettingsEbbbb) refers to advertiser.o(i._ZN3ble10Advertiser15setupParametersEbbbbbbb) for ble::Advertiser::setupParameters(bool, bool, bool, bool, bool, bool, bool)
    peripheralcontroller.o(i._ZN3ble20PeripheralController20onGapConnParamUpdateEPNS_3GapEt) refers to gap.o(i._ZN3ble3Gap26_checkConnectionParametersEb) for ble::Gap::_checkConnectionParameters(bool)
    peripheralcontroller.o(i._ZN3ble20PeripheralController20onGapConnParamUpdateEPNS_3GapEt) refers to peripheralcontroller.o(i._ZN3ble20PeripheralController30_handleHighReactivityModeTimerEb) for ble::PeripheralController::_handleHighReactivityModeTimer(bool)
    peripheralcontroller.o(i._ZN3ble20PeripheralController20onGapConnParamUpdateEPNS_3GapEt) refers to peripheralcontroller.o(i._ZN3ble20PeripheralController15_notifyGapStateENS0_17peripheralState_eE) for ble::PeripheralController::_notifyGapState(ble::PeripheralController::peripheralState_e)
    peripheralcontroller.o(i._ZN3ble20PeripheralController21setHighReactivityModeEb) refers to gap.o(i._ZN3ble3Gap21handleConnParamUpdateEb) for ble::Gap::handleConnParamUpdate(bool)
    peripheralcontroller.o(i._ZN3ble20PeripheralController25backFromSkippingWhitelistEv) refers to ble_advertising.o(i.ble_advertising_clear_without_whitelist_flag) for ble_advertising_clear_without_whitelist_flag
    peripheralcontroller.o(i._ZN3ble20PeripheralController25backFromSkippingWhitelistEv) refers to peripheralcontroller.o(i._ZN3ble20PeripheralController16startAdvertisingEb14ble_adv_mode_t) for ble::PeripheralController::startAdvertising(bool, ble_adv_mode_t)
    peripheralcontroller.o(i._ZN3ble20PeripheralController25onGapAuthenticationStatusEPNS_3GapEt25ble_gap_evt_auth_status_t) refers to peripheralcontroller.o(i._ZN3ble20PeripheralController17_notifyAuthStatusE25ble_gap_evt_auth_status_t) for ble::PeripheralController::_notifyAuthStatus(ble_gap_evt_auth_status_t)
    peripheralcontroller.o(i._ZN3ble20PeripheralController25onGapAuthenticationStatusEPNS_3GapEt25ble_gap_evt_auth_status_t) refers to peripheralcontroller.o(i._ZN3ble20PeripheralController10disconnectEb) for ble::PeripheralController::disconnect(bool)
    peripheralcontroller.o(i._ZN3ble20PeripheralController25onGapConnParamEventFailedEv) refers to peripheralcontroller.o(i._ZN3ble20PeripheralController10disconnectEb) for ble::PeripheralController::disconnect(bool)
    peripheralcontroller.o(i._ZN3ble20PeripheralController25onGapConnParamUpdateErrorEPNS_3GapEj) refers to peripheralcontroller.o(i._ZN3ble20PeripheralController10disconnectEb) for ble::PeripheralController::disconnect(bool)
    peripheralcontroller.o(i._ZN3ble20PeripheralController26resetHighReactivityCounterEv) refers to xfthread.o(i._ZN8XFThread17unscheduleTimeoutEhP11IXFReactive) for XFThread::unscheduleTimeout(unsigned char, IXFReactive*)
    peripheralcontroller.o(i._ZN3ble20PeripheralController26resetHighReactivityCounterEv) refers to xfthread.o(i._ZN8XFThread15scheduleTimeoutEhtP11IXFReactive) for XFThread::scheduleTimeout(unsigned char, unsigned short, IXFReactive*)
    peripheralcontroller.o(i._ZN3ble20PeripheralController30_handleHighReactivityModeTimerEb) refers to xfthread.o(i._ZN8XFThread15scheduleTimeoutEhtP11IXFReactive) for XFThread::scheduleTimeout(unsigned char, unsigned short, IXFReactive*)
    peripheralcontroller.o(i._ZN3ble20PeripheralController30_handleHighReactivityModeTimerEb) refers to xfthread.o(i._ZN8XFThread17unscheduleTimeoutEhP11IXFReactive) for XFThread::unscheduleTimeout(unsigned char, IXFReactive*)
    peripheralcontroller.o(i._ZN3ble20PeripheralController31_setAdvertiseForPrivateServicesEv) refers to advertiser.o(i._ZN3ble10Advertiser16setAdvertiseUUIDEthb) for ble::Advertiser::setAdvertiseUUID(unsigned short, unsigned char, bool)
    peripheralcontroller.o(i._ZN3ble20PeripheralController4bindEPNS_13BleControllerE) refers to blecontroller.o(i._ZN3ble13BleController13readBtAddressEP14ble_gap_addr_t) for ble::BleController::readBtAddress(ble_gap_addr_t*)
    peripheralcontroller.o(i._ZN3ble20PeripheralController4bindEPNS_13BleControllerE) refers to security.o(i._ZN3ble8Security10initializeEPNS_13BleControllerEPNS_20PeripheralControllerEbb) for ble::Security::initialize(ble::BleController*, ble::PeripheralController*, bool, bool)
    peripheralcontroller.o(i._ZN3ble20PeripheralController7restoreEPj) refers to memcpya.o(.text) for __aeabi_memcpy4
    peripheralcontroller.o(i._ZN3ble20PeripheralControllerC1Ev) refers to xfreactive.o(i._ZN10XFReactiveC1EP8XFThread) for XFReactive::XFReactive(XFThread*)
    peripheralcontroller.o(i._ZN3ble20PeripheralControllerC1Ev) refers to advertiser.o(i._ZN3ble10AdvertiserC1Ev) for ble::Advertiser::Advertiser()
    peripheralcontroller.o(i._ZN3ble20PeripheralControllerC1Ev) refers to gap.o(i._ZN3ble3GapC1Ev) for ble::Gap::Gap()
    peripheralcontroller.o(i._ZN3ble20PeripheralControllerC1Ev) refers to gatt.o(i._ZN3ble4GattC1Ev) for ble::Gatt::Gatt()
    peripheralcontroller.o(i._ZN3ble20PeripheralControllerC1Ev) refers to security.o(i._ZN3ble8SecurityC1Ev) for ble::Security::Security()
    peripheralcontroller.o(i._ZN3ble20PeripheralControllerC1Ev) refers to services.o(i._ZN3ble8ServicesC1Ev) for ble::Services::Services()
    peripheralcontroller.o(i._ZN3ble20PeripheralControllerC1Ev) refers to peripheralcontroller.o(.constdata__ZTVN5flash9PersisterE) for vtable for flash::Persister
    peripheralcontroller.o(i._ZN3ble20PeripheralControllerC1Ev) refers to peripheralcontroller.o(.constdata__ZTVN3ble20PeripheralControllerE) for vtable for ble::PeripheralController
    peripheralcontroller.o(i._ZN3ble20PeripheralControllerD0Ev) refers to peripheralcontroller.o(i._ZN3ble20PeripheralControllerD1Ev) for ble::PeripheralController::~PeripheralController()
    peripheralcontroller.o(i._ZN3ble20PeripheralControllerD0Ev) refers to delete.o(i._ZdlPv) for operator delete (void*)
    peripheralcontroller.o(i._ZN3ble20PeripheralControllerD1Ev) refers to services.o(i._ZN3ble8ServicesD1Ev) for ble::Services::~Services()
    peripheralcontroller.o(i._ZN3ble20PeripheralControllerD1Ev) refers to security.o(i._ZN3ble8SecurityD1Ev) for ble::Security::~Security()
    peripheralcontroller.o(i._ZN3ble20PeripheralControllerD1Ev) refers to gatt.o(i._ZN3ble4GattD1Ev) for ble::Gatt::~Gatt()
    peripheralcontroller.o(i._ZN3ble20PeripheralControllerD1Ev) refers to gap.o(i._ZN3ble3GapD1Ev) for ble::Gap::~Gap()
    peripheralcontroller.o(i._ZN3ble20PeripheralControllerD1Ev) refers to advertiser.o(i._ZN3ble10AdvertiserD1Ev) for ble::Advertiser::~Advertiser()
    peripheralcontroller.o(i._ZN3ble20PeripheralControllerD1Ev) refers to xfreactive.o(i._ZN10XFReactiveD1Ev) for XFReactive::~XFReactive()
    peripheralcontroller.o(i._ZN3ble20PeripheralControllerD1Ev) refers to peripheralcontroller.o(.constdata__ZTVN3ble20PeripheralControllerE) for vtable for ble::PeripheralController
    peripheralcontroller.o(i._ZThn56_N3ble20PeripheralController7restoreEPj) refers to peripheralcontroller.o(i._ZN3ble20PeripheralController7restoreEPj) for ble::PeripheralController::restore(unsigned*)
    peripheralcontroller.o(i._ZThn56_N3ble20PeripheralControllerD0Ev) refers to peripheralcontroller.o(i._ZN3ble20PeripheralControllerD0Ev) for ble::PeripheralController::~PeripheralController__deallocating()
    peripheralcontroller.o(i._ZThn56_N3ble20PeripheralControllerD1Ev) refers to peripheralcontroller.o(i._ZN3ble20PeripheralControllerD1Ev) for ble::PeripheralController::~PeripheralController()
    peripheralcontroller.o(i._ZThn88_N3ble20PeripheralController12processEventEv) refers to peripheralcontroller.o(i._ZN3ble20PeripheralController12processEventEv) for ble::PeripheralController::processEvent()
    peripheralcontroller.o(i._ZThn88_N3ble20PeripheralControllerD0Ev) refers to peripheralcontroller.o(i._ZN3ble20PeripheralControllerD0Ev) for ble::PeripheralController::~PeripheralController__deallocating()
    peripheralcontroller.o(i._ZThn88_N3ble20PeripheralControllerD1Ev) refers to peripheralcontroller.o(i._ZN3ble20PeripheralControllerD1Ev) for ble::PeripheralController::~PeripheralController()
    peripheralcontroller.o(i.advertiseWithoutWhitelistTimeoutHandler) refers to peripheralcontroller.o(i._ZN3ble20PeripheralController25backFromSkippingWhitelistEv) for ble::PeripheralController::backFromSkippingWhitelist()
    peripheralcontroller.o(.ARM.exidx) refers to peripheralcontroller.o(i._ZN3ble20PeripheralController15setTxPowerLevelEah) for i._ZN3ble20PeripheralController15setTxPowerLevelEah
    peripheralcontroller.o(.ARM.exidx) refers to peripheralcontroller.o(i._ZN3ble20PeripheralController16startAdvertisingEb14ble_adv_mode_t) for i._ZN3ble20PeripheralController16startAdvertisingEb14ble_adv_mode_t
    peripheralcontroller.o(.ARM.exidx) refers to peripheralcontroller.o(i._ZN3ble20PeripheralController25backFromSkippingWhitelistEv) for i._ZN3ble20PeripheralController25backFromSkippingWhitelistEv
    peripheralcontroller.o(.ARM.exidx) refers to peripheralcontroller.o(i.advertiseWithoutWhitelistTimeoutHandler) for i.advertiseWithoutWhitelistTimeoutHandler
    peripheralcontroller.o(.ARM.exidx) refers to peripheralcontroller.o(i._ZN3ble20PeripheralControllerC1Ev) for i._ZN3ble20PeripheralControllerC1Ev
    peripheralcontroller.o(.ARM.exidx) refers to peripheralcontroller.o(i._ZN3ble20PeripheralControllerD1Ev) for i._ZN3ble20PeripheralControllerD1Ev
    peripheralcontroller.o(.ARM.exidx) refers to peripheralcontroller.o(i._ZN3ble20PeripheralControllerD0Ev) for i._ZN3ble20PeripheralControllerD0Ev
    peripheralcontroller.o(.ARM.exidx) refers to peripheralcontroller.o(i._ZThn88_N3ble20PeripheralControllerD0Ev) for i._ZThn88_N3ble20PeripheralControllerD0Ev
    peripheralcontroller.o(.ARM.exidx) refers to peripheralcontroller.o(i._ZThn56_N3ble20PeripheralControllerD0Ev) for i._ZThn56_N3ble20PeripheralControllerD0Ev
    peripheralcontroller.o(.ARM.exidx) refers to peripheralcontroller.o(i._ZThn88_N3ble20PeripheralControllerD1Ev) for i._ZThn88_N3ble20PeripheralControllerD1Ev
    peripheralcontroller.o(.ARM.exidx) refers to peripheralcontroller.o(i._ZThn56_N3ble20PeripheralControllerD1Ev) for i._ZThn56_N3ble20PeripheralControllerD1Ev
    peripheralcontroller.o(.ARM.exidx) refers to peripheralcontroller.o(i._ZN3ble20PeripheralController10initializeEP21ble_gap_conn_params_tS2_) for i._ZN3ble20PeripheralController10initializeEP21ble_gap_conn_params_tS2_
    peripheralcontroller.o(.ARM.exidx) refers to peripheralcontroller.o(i._ZN3ble20PeripheralController4bindEPNS_13BleControllerE) for i._ZN3ble20PeripheralController4bindEPNS_13BleControllerE
    peripheralcontroller.o(.ARM.exidx) refers to peripheralcontroller.o(i._ZN3ble20PeripheralController32updateSecurityForCharacteristicsEv) for i._ZN3ble20PeripheralController32updateSecurityForCharacteristicsEv
    peripheralcontroller.o(.ARM.exidx) refers to peripheralcontroller.o(i._ZN3ble20PeripheralController10disconnectEb) for i._ZN3ble20PeripheralController10disconnectEb
    peripheralcontroller.o(.ARM.exidx) refers to peripheralcontroller.o(i._ZN3ble20PeripheralController19setSecuritySettingsEbbbb) for i._ZN3ble20PeripheralController19setSecuritySettingsEbbbb
    peripheralcontroller.o(.ARM.exidx) refers to peripheralcontroller.o(i._ZN3ble20PeripheralController31_setAdvertiseForPrivateServicesEv) for i._ZN3ble20PeripheralController31_setAdvertiseForPrivateServicesEv
    peripheralcontroller.o(.ARM.exidx) refers to peripheralcontroller.o(i._ZN3ble20PeripheralController18initSecurityAndGapEbbbb) for i._ZN3ble20PeripheralController18initSecurityAndGapEbbbb
    peripheralcontroller.o(.ARM.exidx) refers to peripheralcontroller.o(i._ZN3ble20PeripheralController18initSecurityAndGapEv) for i._ZN3ble20PeripheralController18initSecurityAndGapEv
    peripheralcontroller.o(.ARM.exidx) refers to peripheralcontroller.o(i._ZN3ble20PeripheralController10getServiceEt) for i._ZN3ble20PeripheralController10getServiceEt
    peripheralcontroller.o(.ARM.exidx) refers to peripheralcontroller.o(i._ZN3ble20PeripheralController15registerServiceEPNS_14PrivateServiceE) for i._ZN3ble20PeripheralController15registerServiceEPNS_14PrivateServiceE
    peripheralcontroller.o(.ARM.exidx) refers to peripheralcontroller.o(i._ZN3ble20PeripheralController15_notifyAdvStateE13ble_adv_evt_t) for i._ZN3ble20PeripheralController15_notifyAdvStateE13ble_adv_evt_t
    peripheralcontroller.o(.ARM.exidx) refers to peripheralcontroller.o(i._ZN3ble20PeripheralController17onAdvStateChangedE13ble_adv_evt_t) for i._ZN3ble20PeripheralController17onAdvStateChangedE13ble_adv_evt_t
    peripheralcontroller.o(.ARM.exidx) refers to peripheralcontroller.o(i._ZN3ble20PeripheralController15_notifyAdvErrorEj) for i._ZN3ble20PeripheralController15_notifyAdvErrorEj
    peripheralcontroller.o(.ARM.exidx) refers to peripheralcontroller.o(i._ZN3ble20PeripheralController10onAdvErrorEj) for i._ZN3ble20PeripheralController10onAdvErrorEj
    peripheralcontroller.o(.ARM.exidx) refers to peripheralcontroller.o(i._ZN3ble20PeripheralController17onAdvWhitelistReqEv) for i._ZN3ble20PeripheralController17onAdvWhitelistReqEv
    peripheralcontroller.o(.ARM.exidx) refers to peripheralcontroller.o(i._ZN3ble20PeripheralController21setHighReactivityModeEb) for i._ZN3ble20PeripheralController21setHighReactivityModeEb
    peripheralcontroller.o(.ARM.exidx) refers to peripheralcontroller.o(i._ZN3ble20PeripheralController16setLowEnergyModeEv) for i._ZN3ble20PeripheralController16setLowEnergyModeEv
    peripheralcontroller.o(.ARM.exidx) refers to peripheralcontroller.o(i._ZN3ble20PeripheralController26resetHighReactivityCounterEv) for i._ZN3ble20PeripheralController26resetHighReactivityCounterEv
    peripheralcontroller.o(.ARM.exidx) refers to peripheralcontroller.o(i._ZN3ble20PeripheralController25onGapConnParamEventFailedEv) for i._ZN3ble20PeripheralController25onGapConnParamEventFailedEv
    peripheralcontroller.o(.ARM.exidx) refers to peripheralcontroller.o(i._ZN3ble20PeripheralController15_notifyGapStateENS0_17peripheralState_eE) for i._ZN3ble20PeripheralController15_notifyGapStateENS0_17peripheralState_eE
    peripheralcontroller.o(.ARM.exidx) refers to peripheralcontroller.o(i._ZN3ble20PeripheralController30_handleHighReactivityModeTimerEb) for i._ZN3ble20PeripheralController30_handleHighReactivityModeTimerEb
    peripheralcontroller.o(.ARM.exidx) refers to peripheralcontroller.o(i._ZN3ble20PeripheralController20onGapConnParamUpdateEPNS_3GapEt) for i._ZN3ble20PeripheralController20onGapConnParamUpdateEPNS_3GapEt
    peripheralcontroller.o(.ARM.exidx) refers to peripheralcontroller.o(i._ZN3ble20PeripheralController25onGapConnParamUpdateErrorEPNS_3GapEj) for i._ZN3ble20PeripheralController25onGapConnParamUpdateErrorEPNS_3GapEj
    peripheralcontroller.o(.ARM.exidx) refers to peripheralcontroller.o(i._ZN3ble20PeripheralController22_notifyConnectionStateEb) for i._ZN3ble20PeripheralController22_notifyConnectionStateEb
    peripheralcontroller.o(.ARM.exidx) refers to peripheralcontroller.o(i._ZN3ble20PeripheralController14onGapConnectedEPNS_3GapEt) for i._ZN3ble20PeripheralController14onGapConnectedEPNS_3GapEt
    peripheralcontroller.o(.ARM.exidx) refers to peripheralcontroller.o(i._ZN3ble20PeripheralController17onGapDisconnectedEPNS_3GapEt) for i._ZN3ble20PeripheralController17onGapDisconnectedEPNS_3GapEt
    peripheralcontroller.o(.ARM.exidx) refers to peripheralcontroller.o(i._ZN3ble20PeripheralController21_notifyPasskeyDisplayEPc) for i._ZN3ble20PeripheralController21_notifyPasskeyDisplayEPc
    peripheralcontroller.o(.ARM.exidx) refers to peripheralcontroller.o(i._ZN3ble20PeripheralController19onGapPasskeyDisplayEPNS_3GapEtPc) for i._ZN3ble20PeripheralController19onGapPasskeyDisplayEPNS_3GapEtPc
    peripheralcontroller.o(.ARM.exidx) refers to peripheralcontroller.o(i._ZN3ble20PeripheralController17_notifyAuthStatusE25ble_gap_evt_auth_status_t) for i._ZN3ble20PeripheralController17_notifyAuthStatusE25ble_gap_evt_auth_status_t
    peripheralcontroller.o(.ARM.exidx) refers to peripheralcontroller.o(i._ZN3ble20PeripheralController25onGapAuthenticationStatusEPNS_3GapEt25ble_gap_evt_auth_status_t) for i._ZN3ble20PeripheralController25onGapAuthenticationStatusEPNS_3GapEt25ble_gap_evt_auth_status_t
    peripheralcontroller.o(.ARM.exidx) refers to peripheralcontroller.o(i._ZN3ble20PeripheralController4saveEPt) for i._ZN3ble20PeripheralController4saveEPt
    peripheralcontroller.o(.ARM.exidx) refers to peripheralcontroller.o(i._ZThn56_N3ble20PeripheralController4saveEPt) for i._ZThn56_N3ble20PeripheralController4saveEPt
    peripheralcontroller.o(.ARM.exidx) refers to peripheralcontroller.o(i._ZN3ble20PeripheralController7restoreEPj) for i._ZN3ble20PeripheralController7restoreEPj
    peripheralcontroller.o(.ARM.exidx) refers to peripheralcontroller.o(i._ZThn56_N3ble20PeripheralController7restoreEPj) for i._ZThn56_N3ble20PeripheralController7restoreEPj
    peripheralcontroller.o(.ARM.exidx) refers to peripheralcontroller.o(i._ZN3ble20PeripheralController12processEventEv) for i._ZN3ble20PeripheralController12processEventEv
    peripheralcontroller.o(.ARM.exidx) refers to peripheralcontroller.o(i._ZThn88_N3ble20PeripheralController12processEventEv) for i._ZThn88_N3ble20PeripheralController12processEventEv
    peripheralcontroller.o(.constdata) refers to peripheralcontroller.o(.bss) for _advertiseWithoutWhitelistTimerId_data
    scheduler.o(i._ZN3ble9Scheduler4initEv) refers to app_scheduler.o(i.app_sched_init) for app_sched_init
    scheduler.o(i._ZN3ble9Scheduler4initEv) refers to app_error.o(i.app_error_handler_bare) for app_error_handler_bare
    scheduler.o(i._ZN3ble9Scheduler4initEv) refers to scheduler.o(.bss) for .bss
    scheduler.o(i._ZN3ble9Scheduler8scheduleEv) refers to app_scheduler.o(i.app_sched_execute) for app_sched_execute
    scheduler.o(.ARM.exidx) refers to scheduler.o(i._ZN3ble9Scheduler4initEv) for i._ZN3ble9Scheduler4initEv
    scheduler.o(.ARM.exidx) refers to scheduler.o(i._ZN3ble9Scheduler8scheduleEv) for i._ZN3ble9Scheduler8scheduleEv
    security.o(i._ZN3ble8Security10initializeEPNS_13BleControllerEPNS_20PeripheralControllerEbb) refers to peer_manager.o(i.pm_init) for pm_init
    security.o(i._ZN3ble8Security10initializeEPNS_13BleControllerEPNS_20PeripheralControllerEbb) refers to peer_manager.o(i.pm_peers_delete) for pm_peers_delete
    security.o(i._ZN3ble8Security10initializeEPNS_13BleControllerEPNS_20PeripheralControllerEbb) refers to peer_manager.o(i.pm_register) for pm_register
    security.o(i._ZN3ble8Security10initializeEPNS_13BleControllerEPNS_20PeripheralControllerEbb) refers to security.o(i.peerManagerEventHandler) for peerManagerEventHandler
    security.o(i._ZN3ble8Security11getPeerListEPtPj22pm_peer_id_list_skip_t) refers to peer_manager.o(i.pm_peer_id_list) for pm_peer_id_list
    security.o(i._ZN3ble8Security11getPeerListEPtPj22pm_peer_id_list_skip_t) refers to security.o(i._ZN5tools8LogTrace5debugEPKcz) for tools::LogTrace::debug(const char*, ...)
    security.o(i._ZN3ble8Security12getWhitelistEP14ble_gap_addr_tPjP13ble_gap_irk_tS3_) refers to peer_manager.o(i.pm_whitelist_get) for pm_whitelist_get
    security.o(i._ZN3ble8Security12getWhitelistEP14ble_gap_addr_tPjP13ble_gap_irk_tS3_) refers to security.o(i._ZN5tools8LogTrace5debugEPKcz) for tools::LogTrace::debug(const char*, ...)
    security.o(i._ZN3ble8Security12getWhitelistEP14ble_gap_addr_tPjP13ble_gap_irk_tS3_) refers to security.o(.conststring) for .conststring
    security.o(i._ZN3ble8Security14setPasskeySizeEj) refers to malloc.o(i.free) for free
    security.o(i._ZN3ble8Security14setPasskeySizeEj) refers to array_new.o(i._Znaj) for operator new[] (unsigned)
    security.o(i._ZN3ble8Security16isWhitelistEmptyEv) refers to peer_manager.o(i.pm_peer_count) for pm_peer_count
    security.o(i._ZN3ble8Security16isWhitelistEmptyEv) refers to security.o(i._ZN5tools8LogTrace5debugEPKcz) for tools::LogTrace::debug(const char*, ...)
    security.o(i._ZN3ble8Security16isWhitelistEmptyEv) refers to security.o(.conststring) for .conststring
    security.o(i._ZN3ble8Security18onPeerManagerEventEPK8pm_evt_t) refers to peer_manager.o(i.pm_peer_rank_highest) for pm_peer_rank_highest
    security.o(i._ZN3ble8Security18onPeerManagerEventEPK8pm_evt_t) refers to peer_manager.o(i.pm_peer_count) for pm_peer_count
    security.o(i._ZN3ble8Security18onPeerManagerEventEPK8pm_evt_t) refers to peer_manager.o(i.pm_peer_ranks_get) for pm_peer_ranks_get
    security.o(i._ZN3ble8Security18onPeerManagerEventEPK8pm_evt_t) refers to peer_manager.o(i.pm_peer_delete) for pm_peer_delete
    security.o(i._ZN3ble8Security18onPeerManagerEventEPK8pm_evt_t) refers to peer_manager.o(i.pm_conn_sec_config_reply) for pm_conn_sec_config_reply
    security.o(i._ZN3ble8Security18onPeerManagerEventEPK8pm_evt_t) refers to fds.o(i.fds_gc) for fds_gc
    security.o(i._ZN3ble8Security18onPeerManagerEventEPK8pm_evt_t) refers to security.o(i._ZN3ble8Security21_createWhitelistPeersEv) for ble::Security::_createWhitelistPeers()
    security.o(i._ZN3ble8Security18onPeerManagerEventEPK8pm_evt_t) refers to peer_manager.o(i.pm_local_database_has_changed) for pm_local_database_has_changed
    security.o(i._ZN3ble8Security18onPeerManagerEventEPK8pm_evt_t) refers to security.o(.constdata) for .constdata
    security.o(i._ZN3ble8Security18peerAddressRequestEv) refers to peer_manager.o(i.pm_peer_ranks_get) for pm_peer_ranks_get
    security.o(i._ZN3ble8Security18peerAddressRequestEv) refers to peer_manager.o(i.pm_peer_data_bonding_load) for pm_peer_data_bonding_load
    security.o(i._ZN3ble8Security18peerAddressRequestEv) refers to advertiser.o(i._ZN3ble10Advertiser16peerAddressReplyEP14ble_gap_addr_t) for ble::Advertiser::peerAddressReply(ble_gap_addr_t*)
    security.o(i._ZN3ble8Security21_createWhitelistPeersEv) refers to memseta.o(.text) for __aeabi_memset
    security.o(i._ZN3ble8Security21_createWhitelistPeersEv) refers to security.o(i._ZN3ble8Security11getPeerListEPtPj22pm_peer_id_list_skip_t) for ble::Security::getPeerList(unsigned short*, unsigned*, pm_peer_id_list_skip_t)
    security.o(i._ZN3ble8Security21_createWhitelistPeersEv) refers to security.o(i._ZN5tools8LogTrace5debugEPKcz) for tools::LogTrace::debug(const char*, ...)
    security.o(i._ZN3ble8Security21_createWhitelistPeersEv) refers to peer_manager.o(i.pm_whitelist_set) for pm_whitelist_set
    security.o(i._ZN3ble8Security21_createWhitelistPeersEv) refers to peer_manager.o(i.pm_device_identities_list_set) for pm_device_identities_list_set
    security.o(i._ZN3ble8Security21_createWhitelistPeersEv) refers to security.o(.conststring) for .conststring
    security.o(i._ZN3ble8Security22setupSecurityParameterEbbb) refers to peer_manager.o(i.pm_sec_params_set) for pm_sec_params_set
    security.o(i._ZN3ble8Security22setupSecurityParameterEbbb) refers to security.o(i._ZN3ble8Security21_createWhitelistPeersEv) for ble::Security::_createWhitelistPeers()
    security.o(i._ZN3ble8Security22setupSecurityParameterEbbb) refers to security.o(i._ZN3ble8Security15generatePasskeyEv) for ble::Security::generatePasskey()
    security.o(i._ZN3ble8Security24deleteBondingInformationEt) refers to peer_manager.o(i.pm_peer_delete) for pm_peer_delete
    security.o(i._ZN3ble8Security27deleteAllBondingInformationEv) refers to peer_manager.o(i.pm_peers_delete) for pm_peers_delete
    security.o(i._ZN3ble8SecurityC1Ev) refers to security.o(i._ZN3ble8Security14setPasskeySizeEj) for ble::Security::setPasskeySize(unsigned)
    security.o(i._ZN3ble8SecurityC1Ev) refers to security.o(.constdata__ZTVN3ble8SecurityE) for vtable for ble::Security
    security.o(i._ZN3ble8SecurityD0Ev) refers to security.o(i._ZN3ble8SecurityD1Ev) for ble::Security::~Security()
    security.o(i._ZN3ble8SecurityD0Ev) refers to delete.o(i._ZdlPv) for operator delete (void*)
    security.o(i._ZN3ble8SecurityD1Ev) refers to malloc.o(i.free) for free
    security.o(i._ZN3ble8SecurityD1Ev) refers to security.o(.constdata__ZTVN3ble8SecurityE) for vtable for ble::Security
    security.o(i.peerManagerEventHandler) refers to security.o(i._ZN3ble8Security18onPeerManagerEventEPK8pm_evt_t) for ble::Security::onPeerManagerEvent(const pm_evt_t*)
    security.o(i.peerManagerEventHandler) refers to factory.o(.bss) for Factory::peripheralController
    security.o(.ARM.exidx) refers to security.o(i._ZN3ble8Security11getPeerListEPtPj22pm_peer_id_list_skip_t) for i._ZN3ble8Security11getPeerListEPtPj22pm_peer_id_list_skip_t
    security.o(.ARM.exidx) refers to security.o(i._ZN3ble8Security21_createWhitelistPeersEv) for i._ZN3ble8Security21_createWhitelistPeersEv
    security.o(.ARM.exidx) refers to security.o(i._ZN3ble8Security18onPeerManagerEventEPK8pm_evt_t) for i._ZN3ble8Security18onPeerManagerEventEPK8pm_evt_t
    security.o(.ARM.exidx) refers to security.o(i.peerManagerEventHandler) for i.peerManagerEventHandler
    security.o(.ARM.exidx) refers to security.o(i._ZN3ble8Security14setPasskeySizeEj) for i._ZN3ble8Security14setPasskeySizeEj
    security.o(.ARM.exidx) refers to security.o(i._ZN3ble8SecurityC1Ev) for i._ZN3ble8SecurityC1Ev
    security.o(.ARM.exidx) refers to security.o(i._ZN3ble8SecurityD1Ev) for i._ZN3ble8SecurityD1Ev
    security.o(.ARM.exidx) refers to security.o(i._ZN3ble8SecurityD0Ev) for i._ZN3ble8SecurityD0Ev
    security.o(.ARM.exidx) refers to security.o(i._ZN3ble8Security27deleteAllBondingInformationEv) for i._ZN3ble8Security27deleteAllBondingInformationEv
    security.o(.ARM.exidx) refers to security.o(i._ZN3ble8Security10initializeEPNS_13BleControllerEPNS_20PeripheralControllerEbb) for i._ZN3ble8Security10initializeEPNS_13BleControllerEPNS_20PeripheralControllerEbb
    security.o(.ARM.exidx) refers to security.o(i._ZN3ble8Security15generatePasskeyEv) for i._ZN3ble8Security15generatePasskeyEv
    security.o(.ARM.exidx) refers to security.o(i._ZN3ble8Security22setupSecurityParameterEbbb) for i._ZN3ble8Security22setupSecurityParameterEbbb
    security.o(.ARM.exidx) refers to security.o(i._ZN3ble8Security24deleteBondingInformationEt) for i._ZN3ble8Security24deleteBondingInformationEt
    security.o(.ARM.exidx) refers to security.o(i._ZN3ble8Security12getWhitelistEP14ble_gap_addr_tPjP13ble_gap_irk_tS3_) for i._ZN3ble8Security12getWhitelistEP14ble_gap_addr_tPjP13ble_gap_irk_tS3_
    security.o(.ARM.exidx) refers to security.o(i._ZN3ble8Security16isWhitelistEmptyEv) for i._ZN3ble8Security16isWhitelistEmptyEv
    security.o(.ARM.exidx) refers to security.o(i._ZN3ble8Security18peerAddressRequestEv) for i._ZN3ble8Security18peerAddressRequestEv
    security.o(.ARM.exidx) refers to security.o(i._ZN3ble8Security23securityLevelFromConfigEbb) for i._ZN3ble8Security23securityLevelFromConfigEbb
    security.o(.ARM.exidx) refers to security.o(i._ZN3ble8Security10onBleEventEPK9ble_evt_tPv) for i._ZN3ble8Security10onBleEventEPK9ble_evt_tPv
    security.o(.ARM.exidx) refers to security.o(i._ZN3ble8Security13onSystemEventEj) for i._ZN3ble8Security13onSystemEventEj
    security.o(.ARM.exidx) refers to security.o(i._ZN3ble8Security20_clearWhitelistPeersEv) for i._ZN3ble8Security20_clearWhitelistPeersEv
    security.o(.ARM.exidx) refers to security.o(i._ZN3ble8Security26_setSecurityLevelIdFromIntEh) for i._ZN3ble8Security26_setSecurityLevelIdFromIntEh
    blevendor.o(i._ZN3ble9BleVendorC1Ev) refers to blevendor.o(.constdata__ZTVN3ble9BleVendorE) for vtable for ble::BleVendor
    blevendor.o(i._ZN3ble9BleVendorD0Ev) refers to delete.o(i._ZdlPv) for operator delete (void*)
    blevendor.o(.ARM.exidx) refers to blevendor.o(i._ZN3ble9BleVendorC1Ev) for i._ZN3ble9BleVendorC1Ev
    blevendor.o(.ARM.exidx) refers to blevendor.o(i._ZN3ble9BleVendorD1Ev) for i._ZN3ble9BleVendorD1Ev
    blevendor.o(.ARM.exidx) refers to blevendor.o(i._ZN3ble9BleVendorD0Ev) for i._ZN3ble9BleVendorD0Ev
    blevendor.o(.ARM.exidx) refers to blevendor.o(i._ZN3ble9BleVendor14registerVendorEP13ble_uuid128_tt) for i._ZN3ble9BleVendor14registerVendorEP13ble_uuid128_tt
    privateservice.o(i._ZN3ble14PrivateService31handleReadWriteAuthorizeRequestEPK9ble_evt_tP37ble_gatts_rw_authorize_reply_params_t) refers to peer_manager.o(i.pm_conn_sec_status_get) for pm_conn_sec_status_get
    privateservice.o(i._ZN3ble14PrivateService31handleReadWriteAuthorizeRequestEPK9ble_evt_tP37ble_gatts_rw_authorize_reply_params_t) refers to privateservice.o(i._ZN3ble14PrivateService22_setAuthorisationReplyEhtP37ble_gatts_rw_authorize_reply_params_t) for ble::PrivateService::_setAuthorisationReply(unsigned char, unsigned short, ble_gatts_rw_authorize_reply_params_t*)
    privateservice.o(i._ZN3ble14PrivateServiceC2Ev) refers to privateservice.o(.constdata__ZTVN3ble14PrivateServiceE) for vtable for ble::PrivateService
    privateservice.o(i._ZN3ble14PrivateServiceD0Ev) refers to delete.o(i._ZdlPv) for operator delete (void*)
    privateservice.o(.ARM.exidx) refers to privateservice.o(i._ZN3ble14PrivateServiceC2Ev) for i._ZN3ble14PrivateServiceC2Ev
    privateservice.o(.ARM.exidx) refers to privateservice.o(i._ZN3ble14PrivateServiceD2Ev) for i._ZN3ble14PrivateServiceD2Ev
    privateservice.o(.ARM.exidx) refers to privateservice.o(i._ZN3ble14PrivateServiceD0Ev) for i._ZN3ble14PrivateServiceD0Ev
    privateservice.o(.ARM.exidx) refers to privateservice.o(i._ZN3ble14PrivateService17initializeServiceEhNS_8Security16eSecurityLevelIdE) for i._ZN3ble14PrivateService17initializeServiceEhNS_8Security16eSecurityLevelIdE
    privateservice.o(.ARM.exidx) refers to privateservice.o(i._ZN3ble14PrivateService22_setAuthorisationReplyEhtP37ble_gatts_rw_authorize_reply_params_t) for i._ZN3ble14PrivateService22_setAuthorisationReplyEhtP37ble_gatts_rw_authorize_reply_params_t
    privateservice.o(.ARM.exidx) refers to privateservice.o(i._ZN3ble14PrivateService31handleReadWriteAuthorizeRequestEPK9ble_evt_tP37ble_gatts_rw_authorize_reply_params_t) for i._ZN3ble14PrivateService31handleReadWriteAuthorizeRequestEPK9ble_evt_tP37ble_gatts_rw_authorize_reply_params_t
    services.o(i._ZN3ble8Services25initializeAdoptedServicesEv) refers to cxa_guard_acquire.o(i.__cxa_guard_acquire) for __cxa_guard_acquire
    services.o(i._ZN3ble8Services25initializeAdoptedServicesEv) refers to services.o(i._ZN3ble8Services8_basInitEv) for ble::Services::_basInit()
    services.o(i._ZN3ble8Services25initializeAdoptedServicesEv) refers to services.o(i._ZN3ble8Services8_disInitEv) for ble::Services::_disInit()
    services.o(i._ZN3ble8Services25initializeAdoptedServicesEv) refers to services.o(.data) for .data
    services.o(i._ZN3ble8Services25initializeAdoptedServicesEv) refers to services.o(sdh_ble_observers2) for sdh_ble_observers2
    services.o(i._ZN3ble8Services8_basInitEv) refers to ble_bas.o(i.ble_bas_init) for ble_bas_init
    services.o(i._ZN3ble8Services8_basInitEv) refers to services.o(i.onBasEvent) for onBasEvent
    services.o(i._ZN3ble8Services8_disInitEv) refers to memseta.o(.text) for __aeabi_memclr4
    services.o(i._ZN3ble8Services8_disInitEv) refers to ble_srv_common.o(i.ble_srv_ascii_to_utf8) for ble_srv_ascii_to_utf8
    services.o(i._ZN3ble8Services8_disInitEv) refers to printf8.o(i.__0snprintf$8) for __2snprintf
    services.o(i._ZN3ble8Services8_disInitEv) refers to ble_dis.o(i.ble_dis_init) for ble_dis_init
    services.o(i._ZN3ble8ServicesC1Ev) refers to services.o(.constdata__ZTVN3ble8ServicesE) for vtable for ble::Services
    services.o(i._ZN3ble8ServicesD0Ev) refers to delete.o(i._ZdlPv) for operator delete (void*)
    services.o(.ARM.exidx) refers to services.o(i.onBasEvent) for i.onBasEvent
    services.o(.ARM.exidx) refers to services.o(i._ZN3ble8ServicesC1Ev) for i._ZN3ble8ServicesC1Ev
    services.o(.ARM.exidx) refers to services.o(i._ZN3ble8ServicesD1Ev) for i._ZN3ble8ServicesD1Ev
    services.o(.ARM.exidx) refers to services.o(i._ZN3ble8ServicesD0Ev) for i._ZN3ble8ServicesD0Ev
    services.o(.ARM.exidx) refers to services.o(i._ZN3ble8Services8_disInitEv) for i._ZN3ble8Services8_disInitEv
    services.o(.ARM.exidx) refers to services.o(i._ZN3ble8Services8_basInitEv) for i._ZN3ble8Services8_basInitEv
    services.o(.ARM.exidx) refers to services.o(i._ZN3ble8Services25initializeAdoptedServicesEv) for i._ZN3ble8Services25initializeAdoptedServicesEv
    services.o(sdh_ble_observers2) refers to ble_bas.o(i.ble_bas_on_ble_evt) for ble_bas_on_ble_evt
    mhfsservice.o(i._ZN3ble11MhfsService10onBleEventEPK9ble_evt_tPv) refers to privateservice.o(i._ZN3ble14PrivateService31handleReadWriteAuthorizeRequestEPK9ble_evt_tP37ble_gatts_rw_authorize_reply_params_t) for ble::PrivateService::handleReadWriteAuthorizeRequest(const ble_evt_t*, ble_gatts_rw_authorize_reply_params_t*)
    mhfsservice.o(i._ZN3ble11MhfsService10onBleEventEPK9ble_evt_tPv) refers to mhfsservice.o(i._ZN3ble11MhfsService7onWriteEPK21ble_gatts_evt_write_t) for ble::MhfsService::onWrite(const ble_gatts_evt_write_t*)
    mhfsservice.o(i._ZN3ble11MhfsService10onBleEventEPK9ble_evt_tPv) refers to mhfsservice.o(i._ZN3ble11MhfsService6onReadEPK20ble_gatts_evt_read_t) for ble::MhfsService::onRead(const ble_gatts_evt_read_t*)
    mhfsservice.o(i._ZN3ble11MhfsService12_initServiceEv) refers to mhfsservice.o(i._ZN3ble11MhfsService24_addAdsConfigurationCharEPNS_18GattCharacteristicE) for ble::MhfsService::_addAdsConfigurationChar(ble::GattCharacteristic*)
    mhfsservice.o(i._ZN3ble11MhfsService12_initServiceEv) refers to mhfsservice.o(i._ZN3ble11MhfsService17_addAdsValuesCharEPNS_18GattCharacteristicE) for ble::MhfsService::_addAdsValuesChar(ble::GattCharacteristic*)
    mhfsservice.o(i._ZN3ble11MhfsService12_initServiceEv) refers to mhfsservice.o(i._ZN3ble11MhfsService15_addCommandCharEPNS_18GattCharacteristicE) for ble::MhfsService::_addCommandChar(ble::GattCharacteristic*)
    mhfsservice.o(i._ZN3ble11MhfsService15_addCommandCharEPNS_18GattCharacteristicE) refers to gattcharacteristic.o(i._ZN3ble18GattCharacteristic13setDescriptorEthPhj) for ble::GattCharacteristic::setDescriptor(unsigned short, unsigned char, unsigned char*, unsigned)
    mhfsservice.o(i._ZN3ble11MhfsService15_addCommandCharEPNS_18GattCharacteristicE) refers to gattcharacteristic.o(i._ZN3ble18GattCharacteristic13setDefinitionEhbPh) for ble::GattCharacteristic::setDefinition(unsigned char, bool, unsigned char*)
    mhfsservice.o(i._ZN3ble11MhfsService15_addCommandCharEPNS_18GattCharacteristicE) refers to mhfsservice.o(i._ZNK3ble18GattCharacteristic7charLenEv) for ble::GattCharacteristic::charLen() const
    mhfsservice.o(i._ZN3ble11MhfsService15_addCommandCharEPNS_18GattCharacteristicE) refers to memseta.o(.text) for __aeabi_memclr
    mhfsservice.o(i._ZN3ble11MhfsService15_addCommandCharEPNS_18GattCharacteristicE) refers to gattcharacteristic.o(i._ZN3ble18GattCharacteristic13setPropertiesEbbbbbh) for ble::GattCharacteristic::setProperties(bool, bool, bool, bool, bool, unsigned char)
    mhfsservice.o(i._ZN3ble11MhfsService15_addCommandCharEPNS_18GattCharacteristicE) refers to gattcharacteristic.o(i._ZN3ble18GattCharacteristic11setSecurityEbbbNS_8Security16eSecurityLevelIdE) for ble::GattCharacteristic::setSecurity(bool, bool, bool, ble::Security::eSecurityLevelId)
    mhfsservice.o(i._ZN3ble11MhfsService15_addCommandCharEPNS_18GattCharacteristicE) refers to gattcharacteristic.o(i._ZN3ble18GattCharacteristic17addCharacteristicEt) for ble::GattCharacteristic::addCharacteristic(unsigned short)
    mhfsservice.o(i._ZN3ble11MhfsService16adsValuesUpdatedEhhhbj) refers to gattcharacteristic.o(i._ZN3ble18GattCharacteristic19notifyIndicateValueEttPh) for ble::GattCharacteristic::notifyIndicateValue(unsigned short, unsigned short, unsigned char*)
    mhfsservice.o(i._ZN3ble11MhfsService16adsValuesUpdatedEhhhbj) refers to mhfsservice.o(.data) for .data
    mhfsservice.o(i._ZN3ble11MhfsService17_addAdsValuesCharEPNS_18GattCharacteristicE) refers to gattcharacteristic.o(i._ZN3ble18GattCharacteristic13setDescriptorEthPhj) for ble::GattCharacteristic::setDescriptor(unsigned short, unsigned char, unsigned char*, unsigned)
    mhfsservice.o(i._ZN3ble11MhfsService17_addAdsValuesCharEPNS_18GattCharacteristicE) refers to gattcharacteristic.o(i._ZN3ble18GattCharacteristic13setDefinitionEhbPh) for ble::GattCharacteristic::setDefinition(unsigned char, bool, unsigned char*)
    mhfsservice.o(i._ZN3ble11MhfsService17_addAdsValuesCharEPNS_18GattCharacteristicE) refers to gattcharacteristic.o(i._ZN3ble18GattCharacteristic13setPropertiesEbbbbbh) for ble::GattCharacteristic::setProperties(bool, bool, bool, bool, bool, unsigned char)
    mhfsservice.o(i._ZN3ble11MhfsService17_addAdsValuesCharEPNS_18GattCharacteristicE) refers to gattcharacteristic.o(i._ZN3ble18GattCharacteristic11setSecurityEbbbNS_8Security16eSecurityLevelIdE) for ble::GattCharacteristic::setSecurity(bool, bool, bool, ble::Security::eSecurityLevelId)
    mhfsservice.o(i._ZN3ble11MhfsService17_addAdsValuesCharEPNS_18GattCharacteristicE) refers to gattcharacteristic.o(i._ZN3ble18GattCharacteristic17addCharacteristicEt) for ble::GattCharacteristic::addCharacteristic(unsigned short)
    mhfsservice.o(i._ZN3ble11MhfsService23adsConfigurationUpdatedEht) refers to gattcharacteristic.o(i._ZN3ble18GattCharacteristic19notifyIndicateValueEttPh) for ble::GattCharacteristic::notifyIndicateValue(unsigned short, unsigned short, unsigned char*)
    mhfsservice.o(i._ZN3ble11MhfsService23adsConfigurationUpdatedEht) refers to mhfsservice.o(.data) for .data
    mhfsservice.o(i._ZN3ble11MhfsService24_addAdsConfigurationCharEPNS_18GattCharacteristicE) refers to memcpya.o(.text) for __aeabi_memcpy4
    mhfsservice.o(i._ZN3ble11MhfsService24_addAdsConfigurationCharEPNS_18GattCharacteristicE) refers to gattcharacteristic.o(i._ZN3ble18GattCharacteristic13setDescriptorEthPhj) for ble::GattCharacteristic::setDescriptor(unsigned short, unsigned char, unsigned char*, unsigned)
    mhfsservice.o(i._ZN3ble11MhfsService24_addAdsConfigurationCharEPNS_18GattCharacteristicE) refers to gattcharacteristic.o(i._ZN3ble18GattCharacteristic13setDefinitionEhbPh) for ble::GattCharacteristic::setDefinition(unsigned char, bool, unsigned char*)
    mhfsservice.o(i._ZN3ble11MhfsService24_addAdsConfigurationCharEPNS_18GattCharacteristicE) refers to mhfsservice.o(i._ZNK3ble18GattCharacteristic7charLenEv) for ble::GattCharacteristic::charLen() const
    mhfsservice.o(i._ZN3ble11MhfsService24_addAdsConfigurationCharEPNS_18GattCharacteristicE) refers to memseta.o(.text) for __aeabi_memclr
    mhfsservice.o(i._ZN3ble11MhfsService24_addAdsConfigurationCharEPNS_18GattCharacteristicE) refers to gattcharacteristic.o(i._ZN3ble18GattCharacteristic13setPropertiesEbbbbbh) for ble::GattCharacteristic::setProperties(bool, bool, bool, bool, bool, unsigned char)
    mhfsservice.o(i._ZN3ble11MhfsService24_addAdsConfigurationCharEPNS_18GattCharacteristicE) refers to gattcharacteristic.o(i._ZN3ble18GattCharacteristic11setSecurityEbbbNS_8Security16eSecurityLevelIdE) for ble::GattCharacteristic::setSecurity(bool, bool, bool, ble::Security::eSecurityLevelId)
    mhfsservice.o(i._ZN3ble11MhfsService24_addAdsConfigurationCharEPNS_18GattCharacteristicE) refers to gattcharacteristic.o(i._ZN3ble18GattCharacteristic17addCharacteristicEt) for ble::GattCharacteristic::addCharacteristic(unsigned short)
    mhfsservice.o(i._ZN3ble11MhfsService32updateSecurityForCharacteristicsENS_8Security16eSecurityLevelIdE) refers to gattcharacteristic.o(i._ZN3ble18GattCharacteristic19updateSecurityLevelENS_8Security16eSecurityLevelIdE) for ble::GattCharacteristic::updateSecurityLevel(ble::Security::eSecurityLevelId)
    mhfsservice.o(i._ZN3ble11MhfsService7onWriteEPK21ble_gatts_evt_write_t) refers to mhfsservice.o(i._ZN3ble11MhfsService20_notifyCommandChangeEP13mhfsCommand_t) for ble::MhfsService::_notifyCommandChange(mhfsCommand_t*)
    mhfsservice.o(i._ZN3ble11MhfsService7onWriteEPK21ble_gatts_evt_write_t) refers to gattcharacteristic.o(i._ZN3ble18GattCharacteristic28enableNotificationIndicationEt) for ble::GattCharacteristic::enableNotificationIndication(unsigned short)
    mhfsservice.o(i._ZN3ble11MhfsService7onWriteEPK21ble_gatts_evt_write_t) refers to mhfsservice.o(i._ZN3ble11MhfsService29_notifyAdsConfigurationChangeEP22mhfsAdsConfiguration_t) for ble::MhfsService::_notifyAdsConfigurationChange(mhfsAdsConfiguration_t*)
    mhfsservice.o(i._ZN3ble11MhfsServiceC1Ev) refers to privateservice.o(i._ZN3ble14PrivateServiceC2Ev) for ble::PrivateService::PrivateService__sub_object()
    mhfsservice.o(i._ZN3ble11MhfsServiceC1Ev) refers to gattcharacteristic.o(i._ZN3ble18GattCharacteristicC1Ev) for ble::GattCharacteristic::GattCharacteristic()
    mhfsservice.o(i._ZN3ble11MhfsServiceC1Ev) refers to mhfsservice.o(.constdata__ZTVN3ble11MhfsServiceE) for vtable for ble::MhfsService
    mhfsservice.o(i._ZN3ble11MhfsServiceD0Ev) refers to mhfsservice.o(i._ZN3ble11MhfsServiceD1Ev) for ble::MhfsService::~MhfsService()
    mhfsservice.o(i._ZN3ble11MhfsServiceD0Ev) refers to delete.o(i._ZdlPv) for operator delete (void*)
    mhfsservice.o(i._ZN3ble11MhfsServiceD1Ev) refers to gattcharacteristic.o(i._ZN3ble18GattCharacteristicD1Ev) for ble::GattCharacteristic::~GattCharacteristic()
    mhfsservice.o(i._ZN3ble11MhfsServiceD1Ev) refers to privateservice.o(i._ZN3ble14PrivateServiceD2Ev) for ble::PrivateService::~PrivateService__sub_object()
    mhfsservice.o(i._ZN3ble11MhfsServiceD1Ev) refers to mhfsservice.o(.constdata__ZTVN3ble11MhfsServiceE) for vtable for ble::MhfsService
    mhfsservice.o(.ARM.exidx) refers to mhfsservice.o(i._ZN3ble11MhfsServiceC1Ev) for i._ZN3ble11MhfsServiceC1Ev
    mhfsservice.o(.ARM.exidx) refers to mhfsservice.o(i._ZN3ble11MhfsServiceD1Ev) for i._ZN3ble11MhfsServiceD1Ev
    mhfsservice.o(.ARM.exidx) refers to mhfsservice.o(i._ZN3ble11MhfsServiceD0Ev) for i._ZN3ble11MhfsServiceD0Ev
    mhfsservice.o(.ARM.exidx) refers to mhfsservice.o(i._ZN3ble11MhfsService16adsValuesUpdatedEhhhbj) for i._ZN3ble11MhfsService16adsValuesUpdatedEhhhbj
    mhfsservice.o(.ARM.exidx) refers to mhfsservice.o(i._ZN3ble11MhfsService23adsConfigurationUpdatedEht) for i._ZN3ble11MhfsService23adsConfigurationUpdatedEht
    mhfsservice.o(.ARM.exidx) refers to mhfsservice.o(i._ZN3ble11MhfsService25adsConfigurationCharValueEv) for i._ZN3ble11MhfsService25adsConfigurationCharValueEv
    mhfsservice.o(.ARM.exidx) refers to mhfsservice.o(i._ZN3ble11MhfsService18adsValuesCharValueEv) for i._ZN3ble11MhfsService18adsValuesCharValueEv
    mhfsservice.o(.ARM.exidx) refers to mhfsservice.o(i._ZN3ble11MhfsService16commandCharValueEv) for i._ZN3ble11MhfsService16commandCharValueEv
    mhfsservice.o(.ARM.exidx) refers to mhfsservice.o(i._ZN3ble11MhfsService4bindEPNS_13BleControllerE) for i._ZN3ble11MhfsService4bindEPNS_13BleControllerE
    mhfsservice.o(.ARM.exidx) refers to mhfsservice.o(i._ZN3ble11MhfsService32updateSecurityForCharacteristicsENS_8Security16eSecurityLevelIdE) for i._ZN3ble11MhfsService32updateSecurityForCharacteristicsENS_8Security16eSecurityLevelIdE
    mhfsservice.o(.ARM.exidx) refers to mhfsservice.o(i._ZN3ble11MhfsService20_notifyCommandChangeEP13mhfsCommand_t) for i._ZN3ble11MhfsService20_notifyCommandChangeEP13mhfsCommand_t
    mhfsservice.o(.ARM.exidx) refers to mhfsservice.o(i._ZN3ble11MhfsService29_notifyAdsConfigurationChangeEP22mhfsAdsConfiguration_t) for i._ZN3ble11MhfsService29_notifyAdsConfigurationChangeEP22mhfsAdsConfiguration_t
    mhfsservice.o(.ARM.exidx) refers to mhfsservice.o(i._ZN3ble11MhfsService7onWriteEPK21ble_gatts_evt_write_t) for i._ZN3ble11MhfsService7onWriteEPK21ble_gatts_evt_write_t
    mhfsservice.o(.ARM.exidx) refers to mhfsservice.o(i._ZN3ble11MhfsService6onReadEPK20ble_gatts_evt_read_t) for i._ZN3ble11MhfsService6onReadEPK20ble_gatts_evt_read_t
    mhfsservice.o(.ARM.exidx) refers to mhfsservice.o(i._ZN3ble11MhfsService10onBleEventEPK9ble_evt_tPv) for i._ZN3ble11MhfsService10onBleEventEPK9ble_evt_tPv
    mhfsservice.o(.ARM.exidx) refers to mhfsservice.o(i._ZN3ble11MhfsService13onSystemEventEj) for i._ZN3ble11MhfsService13onSystemEventEj
    mhfsservice.o(.ARM.exidx) refers to mhfsservice.o(i._ZN3ble11MhfsService11addObserverEPNS_12MhfsObserverE) for i._ZN3ble11MhfsService11addObserverEPNS_12MhfsObserverE
    mhfsservice.o(.ARM.exidx) refers to mhfsservice.o(i._ZN3ble11MhfsService15_addCommandCharEPNS_18GattCharacteristicE) for i._ZN3ble11MhfsService15_addCommandCharEPNS_18GattCharacteristicE
    mhfsservice.o(.ARM.exidx) refers to mhfsservice.o(i._ZN3ble11MhfsService17_addAdsValuesCharEPNS_18GattCharacteristicE) for i._ZN3ble11MhfsService17_addAdsValuesCharEPNS_18GattCharacteristicE
    mhfsservice.o(.ARM.exidx) refers to mhfsservice.o(i._ZN3ble11MhfsService24_addAdsConfigurationCharEPNS_18GattCharacteristicE) for i._ZN3ble11MhfsService24_addAdsConfigurationCharEPNS_18GattCharacteristicE
    mhfsservice.o(.ARM.exidx) refers to mhfsservice.o(i._ZN3ble11MhfsService12_initServiceEv) for i._ZN3ble11MhfsService12_initServiceEv
    button.o(i._ZN4gpio6Button10initializeEhNS_8ButtonId9eButtonIdE19nrf_gpio_pin_pull_t) refers to gpio.o(i._ZN4gpio4Gpio10initializeEhNS_6GpioId7eGpioIdE19nrf_gpio_pin_pull_t) for gpio::Gpio::initialize(unsigned char, gpio::GpioId::eGpioId, nrf_gpio_pin_pull_t)
    button.o(i._ZN4gpio6Button7restoreEPj) refers to memcpya.o(.text) for __aeabi_memcpy4
    button.o(i._ZN4gpio6Button8setStateENS0_12eButtonStateE) refers to button.o(i._ZN4gpio6Button16_notifyObserversENS0_12eButtonStateE) for gpio::Button::_notifyObservers(gpio::Button::eButtonState)
    button.o(.ARM.exidx) refers to button.o(i._ZN4gpio6Button10initializeEhNS_8ButtonId9eButtonIdE19nrf_gpio_pin_pull_t) for i._ZN4gpio6Button10initializeEhNS_8ButtonId9eButtonIdE19nrf_gpio_pin_pull_t
    button.o(.ARM.exidx) refers to button.o(i._ZN4gpio6Button16_notifyObserversENS0_12eButtonStateE) for i._ZN4gpio6Button16_notifyObserversENS0_12eButtonStateE
    button.o(.ARM.exidx) refers to button.o(i._ZN4gpio6Button8setStateENS0_12eButtonStateE) for i._ZN4gpio6Button8setStateENS0_12eButtonStateE
    button.o(.ARM.exidx) refers to button.o(i._ZN4gpio6Button4saveEPt) for i._ZN4gpio6Button4saveEPt
    button.o(.ARM.exidx) refers to button.o(i._ZN4gpio6Button7restoreEPj) for i._ZN4gpio6Button7restoreEPj
    flashcontroller.o(i._ZN5flash15FlashController10restoreAllEv) refers to flashcontroller.o(i._ZN5flash15FlashController16restorePersisterEPNS_9PersisterE) for flash::FlashController::restorePersister(flash::Persister*)
    flashcontroller.o(i._ZN5flash15FlashController10restoreAllEv) refers to flashcontroller.o(i._ZN5flash15FlashController23_notifyRestoreCompletedEv) for flash::FlashController::_notifyRestoreCompleted()
    flashcontroller.o(i._ZN5flash15FlashController12addPersisterEPNS_9PersisterENS_11FlashFileId12eFlashFileIdE) refers to flashcontroller.o(i._ZN5flash15FlashController17_notifyFlashErrorEv) for flash::FlashController::_notifyFlashError()
    flashcontroller.o(i._ZN5flash15FlashController12addPersisterEPNS_9PersisterENS_11FlashFileId12eFlashFileIdE) refers to flashcontroller.o(.data) for .data
    flashcontroller.o(i._ZN5flash15FlashController13savePersisterEPNS_9PersisterE) refers to flashcontroller.o(i._ZN5flash15FlashController14_savePersisterEPNS_9PersisterE) for flash::FlashController::_savePersister(flash::Persister*)
    flashcontroller.o(i._ZN5flash15FlashController13savePersisterEPNS_9PersisterE) refers to flashcontroller.o(i._ZN5flash15FlashController19_processTransactionEv) for flash::FlashController::_processTransaction()
    flashcontroller.o(i._ZN5flash15FlashController14_onFileDeletedEPK9fds_evt_t) refers to flashcontroller.o(i._ZN5flash15FlashController17_notifyFlashErrorEv) for flash::FlashController::_notifyFlashError()
    flashcontroller.o(i._ZN5flash15FlashController14_savePersisterEPNS_9PersisterE) refers to flashcontroller.o(i._ZN5flash15FlashController20_operationInProgressEPNS_9PersisterE) for flash::FlashController::_operationInProgress(flash::Persister*)
    flashcontroller.o(i._ZN5flash15FlashController14_savePersisterEPNS_9PersisterE) refers to flashcontroller.o(i._ZN5flash15FlashController17_notifyFlashErrorEv) for flash::FlashController::_notifyFlashError()
    flashcontroller.o(i._ZN5flash15FlashController14clearPersisterEPNS_9PersisterE) refers to flashcontroller.o(i._ZN5flash15FlashController20_operationInProgressEPNS_9PersisterE) for flash::FlashController::_operationInProgress(flash::Persister*)
    flashcontroller.o(i._ZN5flash15FlashController14clearPersisterEPNS_9PersisterE) refers to flashcontroller.o(i._ZN5flash15FlashController17_notifyFlashErrorEv) for flash::FlashController::_notifyFlashError()
    flashcontroller.o(i._ZN5flash15FlashController14clearPersisterEPNS_9PersisterE) refers to fds.o(i.fds_record_delete) for fds_record_delete
    flashcontroller.o(i._ZN5flash15FlashController15removePersisterEPNS_9PersisterE) refers to flashcontroller.o(i._ZN5flash15FlashController17_notifyFlashErrorEv) for flash::FlashController::_notifyFlashError()
    flashcontroller.o(i._ZN5flash15FlashController16_onRecordDeletedEPK9fds_evt_t) refers to flashcontroller.o(i._ZN5flash15FlashController17_notifyFlashErrorEv) for flash::FlashController::_notifyFlashError()
    flashcontroller.o(i._ZN5flash15FlashController16restorePersisterEPNS_9PersisterE) refers to flashcontroller.o(i._ZN5flash15FlashController20_operationInProgressEPNS_9PersisterE) for flash::FlashController::_operationInProgress(flash::Persister*)
    flashcontroller.o(i._ZN5flash15FlashController16restorePersisterEPNS_9PersisterE) refers to flashcontroller.o(i._ZN5flash15FlashController17_notifyFlashErrorEv) for flash::FlashController::_notifyFlashError()
    flashcontroller.o(i._ZN5flash15FlashController16restorePersisterEPNS_9PersisterE) refers to fds.o(i.fds_record_find) for fds_record_find
    flashcontroller.o(i._ZN5flash15FlashController16restorePersisterEPNS_9PersisterE) refers to fds.o(i.fds_record_open) for fds_record_open
    flashcontroller.o(i._ZN5flash15FlashController16restorePersisterEPNS_9PersisterE) refers to fds.o(i.fds_record_close) for fds_record_close
    flashcontroller.o(i._ZN5flash15FlashController19_onPersisterChangedEPK9fds_evt_t) refers to flashcontroller.o(i._ZN5flash15FlashController17_notifyFlashErrorEv) for flash::FlashController::_notifyFlashError()
    flashcontroller.o(i._ZN5flash15FlashController19_onPersisterChangedEPK9fds_evt_t) refers to flashcontroller.o(i._ZN5flash15FlashController20_checkPersisterSavedEPK9fds_evt_t) for flash::FlashController::_checkPersisterSaved(const fds_evt_t*)
    flashcontroller.o(i._ZN5flash15FlashController19_processTransactionEv) refers to fds.o(i.fds_record_find) for fds_record_find
    flashcontroller.o(i._ZN5flash15FlashController19_processTransactionEv) refers to fds.o(i.fds_record_update) for fds_record_update
    flashcontroller.o(i._ZN5flash15FlashController19_processTransactionEv) refers to fds.o(i.fds_record_write) for fds_record_write
    flashcontroller.o(i._ZN5flash15FlashController19_processTransactionEv) refers to fds.o(i.fds_init) for fds_init
    flashcontroller.o(i._ZN5flash15FlashController19_processTransactionEv) refers to flashcontroller.o(i._ZN5flash15FlashController17_notifyFlashErrorEv) for flash::FlashController::_notifyFlashError()
    flashcontroller.o(i._ZN5flash15FlashController19_processTransactionEv) refers to fds.o(i.fds_gc) for fds_gc
    flashcontroller.o(i._ZN5flash15FlashController19onFlashStorageEventEPK9fds_evt_t) refers to flashcontroller.o(i._ZN5flash15FlashController7_onInitEPK9fds_evt_t) for flash::FlashController::_onInit(const fds_evt_t*)
    flashcontroller.o(i._ZN5flash15FlashController19onFlashStorageEventEPK9fds_evt_t) refers to flashcontroller.o(i._ZN5flash11FlashFileId7isValidEh) for flash::FlashFileId::isValid(unsigned char)
    flashcontroller.o(i._ZN5flash15FlashController19onFlashStorageEventEPK9fds_evt_t) refers to flashcontroller.o(i._ZN5flash15FlashController8_onWriteEPK9fds_evt_t) for flash::FlashController::_onWrite(const fds_evt_t*)
    flashcontroller.o(i._ZN5flash15FlashController19onFlashStorageEventEPK9fds_evt_t) refers to flashcontroller.o(i._ZN5flash15FlashController9_onUpdateEPK9fds_evt_t) for flash::FlashController::_onUpdate(const fds_evt_t*)
    flashcontroller.o(i._ZN5flash15FlashController19onFlashStorageEventEPK9fds_evt_t) refers to flashcontroller.o(i._ZN5flash15FlashController16_onRecordDeletedEPK9fds_evt_t) for flash::FlashController::_onRecordDeleted(const fds_evt_t*)
    flashcontroller.o(i._ZN5flash15FlashController19onFlashStorageEventEPK9fds_evt_t) refers to flashcontroller.o(i._ZN5flash15FlashController14_onFileDeletedEPK9fds_evt_t) for flash::FlashController::_onFileDeleted(const fds_evt_t*)
    flashcontroller.o(i._ZN5flash15FlashController19onFlashStorageEventEPK9fds_evt_t) refers to flashcontroller.o(i._ZN5flash15FlashController8clearAllEv) for flash::FlashController::clearAll()
    flashcontroller.o(i._ZN5flash15FlashController19onFlashStorageEventEPK9fds_evt_t) refers to flashcontroller.o(i._ZN5flash15FlashController24_onGarbageCollectorEventEPK9fds_evt_t) for flash::FlashController::_onGarbageCollectorEvent(const fds_evt_t*)
    flashcontroller.o(i._ZN5flash15FlashController19onFlashStorageEventEPK9fds_evt_t) refers to flashcontroller.o(i._ZN5flash15FlashController19_processTransactionEv) for flash::FlashController::_processTransaction()
    flashcontroller.o(i._ZN5flash15FlashController20_checkPersisterSavedEPK9fds_evt_t) refers to flashcontroller.o(i._ZN5flash15FlashController21_notifyWriteCompletedEv) for flash::FlashController::_notifyWriteCompleted()
    flashcontroller.o(i._ZN5flash15FlashController24_onGarbageCollectorEventEPK9fds_evt_t) refers to flashcontroller.o(i._ZN5flash15FlashController17_notifyFlashErrorEv) for flash::FlashController::_notifyFlashError()
    flashcontroller.o(i._ZN5flash15FlashController6enableEv) refers to fds.o(i.fds_register) for fds_register
    flashcontroller.o(i._ZN5flash15FlashController6enableEv) refers to memseta.o(.text) for __aeabi_memclr4
    flashcontroller.o(i._ZN5flash15FlashController6enableEv) refers to fds.o(i.fds_stat) for fds_stat
    flashcontroller.o(i._ZN5flash15FlashController6enableEv) refers to flashcontroller.o(i._ZN5flash15FlashController17_notifyFlashErrorEv) for flash::FlashController::_notifyFlashError()
    flashcontroller.o(i._ZN5flash15FlashController6enableEv) refers to flashcontroller.o(i._ZN5flash15FlashController23_notifyFlashInitializedEv) for flash::FlashController::_notifyFlashInitialized()
    flashcontroller.o(i._ZN5flash15FlashController6enableEv) refers to flashcontroller.o(i._ZN5flash15FlashController19_processTransactionEv) for flash::FlashController::_processTransaction()
    flashcontroller.o(i._ZN5flash15FlashController6enableEv) refers to flashcontroller.o(i.storageEventHandler) for storageEventHandler
    flashcontroller.o(i._ZN5flash15FlashController7_onInitEPK9fds_evt_t) refers to flashcontroller.o(i._ZN5flash15FlashController17_notifyFlashErrorEv) for flash::FlashController::_notifyFlashError()
    flashcontroller.o(i._ZN5flash15FlashController7_onInitEPK9fds_evt_t) refers to flashcontroller.o(i._ZN5flash15FlashController23_notifyFlashInitializedEv) for flash::FlashController::_notifyFlashInitialized()
    flashcontroller.o(i._ZN5flash15FlashController7saveAllEv) refers to flashcontroller.o(i._ZN5flash15FlashController14_savePersisterEPNS_9PersisterE) for flash::FlashController::_savePersister(flash::Persister*)
    flashcontroller.o(i._ZN5flash15FlashController7saveAllEv) refers to flashcontroller.o(i._ZN5flash15FlashController19_processTransactionEv) for flash::FlashController::_processTransaction()
    flashcontroller.o(i._ZN5flash15FlashController8_onWriteEPK9fds_evt_t) refers to flashcontroller.o(i._ZN5flash15FlashController19_onPersisterChangedEPK9fds_evt_t) for flash::FlashController::_onPersisterChanged(const fds_evt_t*)
    flashcontroller.o(i._ZN5flash15FlashController8clearAllEv) refers to flashcontroller.o(i._ZN5flash15FlashController17_notifyFlashErrorEv) for flash::FlashController::_notifyFlashError()
    flashcontroller.o(i._ZN5flash15FlashController8clearAllEv) refers to fds.o(i.fds_file_delete) for fds_file_delete
    flashcontroller.o(i._ZN5flash15FlashController8clearAllEv) refers to flashcontroller.o(i._ZN5flash15FlashController21_notifyClearCompletedEv) for flash::FlashController::_notifyClearCompleted()
    flashcontroller.o(i._ZN5flash15FlashController8clearAllEv) refers to flashcontroller.o(.data) for .data
    flashcontroller.o(i._ZN5flash15FlashController9_onUpdateEPK9fds_evt_t) refers to flashcontroller.o(i._ZN5flash15FlashController19_onPersisterChangedEPK9fds_evt_t) for flash::FlashController::_onPersisterChanged(const fds_evt_t*)
    flashcontroller.o(i._ZN5flash15FlashControllerC1Ev) refers to flashcontroller.o(.constdata__ZTVN5flash15FlashControllerE) for vtable for flash::FlashController
    flashcontroller.o(i._ZN5flash15FlashControllerC1Ev) refers to flashcontroller.o(.data) for .data
    flashcontroller.o(i._ZN5flash15FlashControllerD0Ev) refers to delete.o(i._ZdlPv) for operator delete (void*)
    flashcontroller.o(i.storageEventHandler) refers to flashcontroller.o(i._ZN5flash15FlashController19onFlashStorageEventEPK9fds_evt_t) for flash::FlashController::onFlashStorageEvent(const fds_evt_t*)
    flashcontroller.o(i.storageEventHandler) refers to flashcontroller.o(.data) for .data
    flashcontroller.o(.ARM.exidx) refers to flashcontroller.o(i._ZN5flash15FlashController17_notifyFlashErrorEv) for i._ZN5flash15FlashController17_notifyFlashErrorEv
    flashcontroller.o(.ARM.exidx) refers to flashcontroller.o(i._ZN5flash15FlashController19_processTransactionEv) for i._ZN5flash15FlashController19_processTransactionEv
    flashcontroller.o(.ARM.exidx) refers to flashcontroller.o(i._ZN5flash15FlashController24_onGarbageCollectorEventEPK9fds_evt_t) for i._ZN5flash15FlashController24_onGarbageCollectorEventEPK9fds_evt_t
    flashcontroller.o(.ARM.exidx) refers to flashcontroller.o(i._ZN5flash15FlashController21_notifyClearCompletedEv) for i._ZN5flash15FlashController21_notifyClearCompletedEv
    flashcontroller.o(.ARM.exidx) refers to flashcontroller.o(i._ZN5flash15FlashController8clearAllEv) for i._ZN5flash15FlashController8clearAllEv
    flashcontroller.o(.ARM.exidx) refers to flashcontroller.o(i._ZN5flash15FlashController14_onFileDeletedEPK9fds_evt_t) for i._ZN5flash15FlashController14_onFileDeletedEPK9fds_evt_t
    flashcontroller.o(.ARM.exidx) refers to flashcontroller.o(i._ZN5flash15FlashController16_onRecordDeletedEPK9fds_evt_t) for i._ZN5flash15FlashController16_onRecordDeletedEPK9fds_evt_t
    flashcontroller.o(.ARM.exidx) refers to flashcontroller.o(i._ZN5flash15FlashController21_notifyWriteCompletedEv) for i._ZN5flash15FlashController21_notifyWriteCompletedEv
    flashcontroller.o(.ARM.exidx) refers to flashcontroller.o(i._ZN5flash15FlashController20_checkPersisterSavedEPK9fds_evt_t) for i._ZN5flash15FlashController20_checkPersisterSavedEPK9fds_evt_t
    flashcontroller.o(.ARM.exidx) refers to flashcontroller.o(i._ZN5flash15FlashController19_onPersisterChangedEPK9fds_evt_t) for i._ZN5flash15FlashController19_onPersisterChangedEPK9fds_evt_t
    flashcontroller.o(.ARM.exidx) refers to flashcontroller.o(i._ZN5flash15FlashController9_onUpdateEPK9fds_evt_t) for i._ZN5flash15FlashController9_onUpdateEPK9fds_evt_t
    flashcontroller.o(.ARM.exidx) refers to flashcontroller.o(i._ZN5flash15FlashController8_onWriteEPK9fds_evt_t) for i._ZN5flash15FlashController8_onWriteEPK9fds_evt_t
    flashcontroller.o(.ARM.exidx) refers to flashcontroller.o(i._ZN5flash15FlashController23_notifyFlashInitializedEv) for i._ZN5flash15FlashController23_notifyFlashInitializedEv
    flashcontroller.o(.ARM.exidx) refers to flashcontroller.o(i._ZN5flash15FlashController7_onInitEPK9fds_evt_t) for i._ZN5flash15FlashController7_onInitEPK9fds_evt_t
    flashcontroller.o(.ARM.exidx) refers to flashcontroller.o(i._ZN5flash15FlashController19onFlashStorageEventEPK9fds_evt_t) for i._ZN5flash15FlashController19onFlashStorageEventEPK9fds_evt_t
    flashcontroller.o(.ARM.exidx) refers to flashcontroller.o(i.storageEventHandler) for i.storageEventHandler
    flashcontroller.o(.ARM.exidx) refers to flashcontroller.o(i._ZN5flash15FlashControllerC1Ev) for i._ZN5flash15FlashControllerC1Ev
    flashcontroller.o(.ARM.exidx) refers to flashcontroller.o(i._ZN5flash15FlashControllerD1Ev) for i._ZN5flash15FlashControllerD1Ev
    flashcontroller.o(.ARM.exidx) refers to flashcontroller.o(i._ZN5flash15FlashControllerD0Ev) for i._ZN5flash15FlashControllerD0Ev
    flashcontroller.o(.ARM.exidx) refers to flashcontroller.o(i._ZN5flash15FlashController10initializeEv) for i._ZN5flash15FlashController10initializeEv
    flashcontroller.o(.ARM.exidx) refers to flashcontroller.o(i._ZN5flash15FlashController6enableEv) for i._ZN5flash15FlashController6enableEv
    flashcontroller.o(.ARM.exidx) refers to flashcontroller.o(i._ZN5flash15FlashController12addPersisterEPNS_9PersisterENS_11FlashFileId12eFlashFileIdE) for i._ZN5flash15FlashController12addPersisterEPNS_9PersisterENS_11FlashFileId12eFlashFileIdE
    flashcontroller.o(.ARM.exidx) refers to flashcontroller.o(i._ZN5flash15FlashController15removePersisterEPNS_9PersisterE) for i._ZN5flash15FlashController15removePersisterEPNS_9PersisterE
    flashcontroller.o(.ARM.exidx) refers to flashcontroller.o(i._ZN5flash15FlashController14_savePersisterEPNS_9PersisterE) for i._ZN5flash15FlashController14_savePersisterEPNS_9PersisterE
    flashcontroller.o(.ARM.exidx) refers to flashcontroller.o(i._ZN5flash15FlashController13savePersisterEPNS_9PersisterE) for i._ZN5flash15FlashController13savePersisterEPNS_9PersisterE
    flashcontroller.o(.ARM.exidx) refers to flashcontroller.o(i._ZN5flash15FlashController7saveAllEv) for i._ZN5flash15FlashController7saveAllEv
    flashcontroller.o(.ARM.exidx) refers to flashcontroller.o(i._ZN5flash15FlashController16restorePersisterEPNS_9PersisterE) for i._ZN5flash15FlashController16restorePersisterEPNS_9PersisterE
    flashcontroller.o(.ARM.exidx) refers to flashcontroller.o(i._ZN5flash15FlashController23_notifyRestoreCompletedEv) for i._ZN5flash15FlashController23_notifyRestoreCompletedEv
    flashcontroller.o(.ARM.exidx) refers to flashcontroller.o(i._ZN5flash15FlashController10restoreAllEv) for i._ZN5flash15FlashController10restoreAllEv
    flashcontroller.o(.ARM.exidx) refers to flashcontroller.o(i._ZN5flash15FlashController14clearPersisterEPNS_9PersisterE) for i._ZN5flash15FlashController14clearPersisterEPNS_9PersisterE
    basecontroller.o(i._ZN4gpio14BaseController10initializeEv) refers to nrfx_gpiote.o(i.nrfx_gpiote_is_init) for nrfx_gpiote_is_init
    basecontroller.o(i._ZN4gpio14BaseController10initializeEv) refers to nrfx_gpiote.o(i.nrfx_gpiote_init) for nrfx_gpiote_init
    basecontroller.o(.ARM.exidx) refers to basecontroller.o(i._ZN4gpio14BaseController10initializeEv) for i._ZN4gpio14BaseController10initializeEv
    basecontroller.o(.ARM.exidx) refers to basecontroller.o(i._ZNK4gpio14BaseController13delayCountersEh) for i._ZNK4gpio14BaseController13delayCountersEh
    basecontroller.o(.ARM.exidx) refers to basecontroller.o(i._ZN4gpio14BaseController8setDelayEhj) for i._ZN4gpio14BaseController8setDelayEhj
    basecontroller.o(.ARM.exidx) refers to basecontroller.o(i._ZNK4gpio14BaseController5delayEh) for i._ZNK4gpio14BaseController5delayEh
    basecontroller.o(.ARM.exidx) refers to basecontroller.o(i._ZN4gpio14BaseController17resetDelayCounterEhh) for i._ZN4gpio14BaseController17resetDelayCounterEhh
    basecontroller.o(.ARM.exidx) refers to basecontroller.o(i._ZN4gpio14BaseController16incrDelayCounterEhj) for i._ZN4gpio14BaseController16incrDelayCounterEhj
    gpio.o(i._ZN4gpio4Gpio10initializeEhNS_6GpioId7eGpioIdE19nrf_gpio_pin_pull_t) refers to gpiohal.o(i._ZN3hal7GpioHal11cfgPinInputEjjjj) for hal::GpioHal::cfgPinInput(unsigned, unsigned, unsigned, unsigned)
    gpio.o(i._ZN4gpio4Gpio10initializeEhNS_6GpioId7eGpioIdE19nrf_gpio_pin_pull_t) refers to gpiohal.o(i._ZN3hal7GpioHal17cfgPinInputNoPullEj) for hal::GpioHal::cfgPinInputNoPull(unsigned)
    gpio.o(i._ZN4gpio4Gpio10initializeEhNS_6GpioId7eGpioIdE19nrf_gpio_pin_pull_t) refers to gpiohal.o(i._ZN3hal7GpioHal19cfgPinInputPullDownEj) for hal::GpioHal::cfgPinInputPullDown(unsigned)
    gpio.o(i._ZN4gpio4Gpio10initializeEhNS_6GpioId7eGpioIdE19nrf_gpio_pin_pull_t) refers to gpiohal.o(i._ZN3hal7GpioHal17cfgPinInputPullupEj) for hal::GpioHal::cfgPinInputPullup(unsigned)
    gpio.o(i._ZN4gpio4Gpio8setStateENS0_10eGpioStateE) refers to gpio.o(i._ZN4gpio4Gpio16_notifyObserversEv) for gpio::Gpio::_notifyObservers()
    gpio.o(.ARM.exidx) refers to gpio.o(i._ZN4gpio4Gpio10initializeEhNS_6GpioId7eGpioIdE19nrf_gpio_pin_pull_t) for i._ZN4gpio4Gpio10initializeEhNS_6GpioId7eGpioIdE19nrf_gpio_pin_pull_t
    gpio.o(.ARM.exidx) refers to gpio.o(i._ZN4gpio4Gpio16_notifyObserversEv) for i._ZN4gpio4Gpio16_notifyObserversEv
    gpio.o(.ARM.exidx) refers to gpio.o(i._ZN4gpio4Gpio8setStateENS0_10eGpioStateE) for i._ZN4gpio4Gpio8setStateENS0_10eGpioStateE
    gpiocontroller.o(i._ZN4gpio14GpioController10initializeEjj) refers to basecontroller.o(i._ZN4gpio14BaseController10initializeEv) for gpio::BaseController::initialize()
    gpiocontroller.o(i._ZN4gpio14GpioController10initializeEjj) refers to uldiv.o(.text) for __aeabi_uldivmod
    gpiocontroller.o(i._ZN4gpio14GpioController12registerGpioEPNS_4GpioEbjPFYvj21nrf_gpiote_polarity_tE) refers to sdktools.o(i._ZN5tools8SDKTools14appTimerCreateEPKvhPv) for tools::SDKTools::appTimerCreate(const void*, unsigned char, void*)
    gpiocontroller.o(i._ZN4gpio14GpioController12registerGpioEPNS_4GpioEbjPFYvj21nrf_gpiote_polarity_tE) refers to basecontroller.o(i._ZN4gpio14BaseController8setDelayEhj) for gpio::BaseController::setDelay(unsigned char, unsigned)
    gpiocontroller.o(i._ZN4gpio14GpioController12registerGpioEPNS_4GpioEbjPFYvj21nrf_gpiote_polarity_tE) refers to nrfx_gpiote.o(i.nrfx_gpiote_in_init) for nrfx_gpiote_in_init
    gpiocontroller.o(i._ZN4gpio14GpioController12registerGpioEPNS_4GpioEbjPFYvj21nrf_gpiote_polarity_tE) refers to nrfx_gpiote.o(i.nrfx_gpiote_in_event_enable) for nrfx_gpiote_in_event_enable
    gpiocontroller.o(i._ZN4gpio14GpioController12registerGpioEPNS_4GpioEbjPFYvj21nrf_gpiote_polarity_tE) refers to gpiocontroller.o(i.gpioControllerTimeoutHandler) for gpioControllerTimeoutHandler
    gpiocontroller.o(i._ZN4gpio14GpioController12registerGpioEPNS_4GpioEbjPFYvj21nrf_gpiote_polarity_tE) refers to gpiocontroller.o(.constdata) for .constdata
    gpiocontroller.o(i._ZN4gpio14GpioController12stateChangedEhNS_4Gpio10eGpioStateE) refers to gpio.o(i._ZN4gpio4Gpio8setStateENS0_10eGpioStateE) for gpio::Gpio::setState(gpio::Gpio::eGpioState)
    gpiocontroller.o(i._ZN4gpio14GpioController14unregisterGpioEPNS_4GpioE) refers to nrfx_gpiote.o(i.nrfx_gpiote_in_uninit) for nrfx_gpiote_in_uninit
    gpiocontroller.o(i._ZN4gpio14GpioController17timerEventHandlerEv) refers to gpiocontroller.o(i._ZNK4gpio14GpioController9pinNumberEh) for gpio::GpioController::pinNumber(unsigned char) const
    gpiocontroller.o(i._ZN4gpio14GpioController17timerEventHandlerEv) refers to gpiocontroller.o(i._ZNK4gpio14GpioController14isTimerEnabledEh) for gpio::GpioController::isTimerEnabled(unsigned char) const
    gpiocontroller.o(i._ZN4gpio14GpioController17timerEventHandlerEv) refers to basecontroller.o(i._ZN4gpio14BaseController16incrDelayCounterEhj) for gpio::BaseController::incrDelayCounter(unsigned char, unsigned)
    gpiocontroller.o(i._ZN4gpio14GpioController17timerEventHandlerEv) refers to basecontroller.o(i._ZNK4gpio14BaseController13delayCountersEh) for gpio::BaseController::delayCounters(unsigned char) const
    gpiocontroller.o(i._ZN4gpio14GpioController17timerEventHandlerEv) refers to basecontroller.o(i._ZNK4gpio14BaseController5delayEh) for gpio::BaseController::delay(unsigned char) const
    gpiocontroller.o(i._ZN4gpio14GpioController17timerEventHandlerEv) refers to nrfx_gpiote.o(i.nrfx_gpiote_in_is_set) for nrfx_gpiote_in_is_set
    gpiocontroller.o(i._ZN4gpio14GpioController17timerEventHandlerEv) refers to gpiocontroller.o(i._ZN4gpio14GpioController12stateChangedEhNS_4Gpio10eGpioStateE) for gpio::GpioController::stateChanged(unsigned char, gpio::Gpio::eGpioState)
    gpiocontroller.o(i._ZN4gpio14GpioController17timerEventHandlerEv) refers to sdktools.o(i._ZN5tools8SDKTools12appTimerStopEPv) for tools::SDKTools::appTimerStop(void*)
    gpiocontroller.o(i._ZN4gpio14GpioController17timerEventHandlerEv) refers to basecontroller.o(i._ZN4gpio14BaseController17resetDelayCounterEhh) for gpio::BaseController::resetDelayCounter(unsigned char, unsigned char)
    gpiocontroller.o(i._ZN4gpio14GpioController17timerEventHandlerEv) refers to gpiocontroller.o(.constdata) for .constdata
    gpiocontroller.o(i._ZN4gpio14GpioController18gpioteEventHandlerEj21nrf_gpiote_polarity_tj) refers to gpiocontroller.o(i._ZNK4gpio14GpioController18indexFromPinNumberEh) for gpio::GpioController::indexFromPinNumber(unsigned char) const
    gpiocontroller.o(i._ZN4gpio14GpioController18gpioteEventHandlerEj21nrf_gpiote_polarity_tj) refers to nrfx_gpiote.o(i.nrfx_gpiote_in_is_set) for nrfx_gpiote_in_is_set
    gpiocontroller.o(i._ZN4gpio14GpioController18gpioteEventHandlerEj21nrf_gpiote_polarity_tj) refers to gpiocontroller.o(i._ZNK4gpio14GpioController14isTimerEnabledEh) for gpio::GpioController::isTimerEnabled(unsigned char) const
    gpiocontroller.o(i._ZN4gpio14GpioController18gpioteEventHandlerEj21nrf_gpiote_polarity_tj) refers to sdktools.o(i._ZN5tools8SDKTools13appTimerStartEPvjS1_) for tools::SDKTools::appTimerStart(void*, unsigned, void*)
    gpiocontroller.o(i._ZN4gpio14GpioController18gpioteEventHandlerEj21nrf_gpiote_polarity_tj) refers to basecontroller.o(i._ZN4gpio14BaseController17resetDelayCounterEhh) for gpio::BaseController::resetDelayCounter(unsigned char, unsigned char)
    gpiocontroller.o(i._ZN4gpio14GpioController18gpioteEventHandlerEj21nrf_gpiote_polarity_tj) refers to gpiocontroller.o(i._ZN4gpio14GpioController12stateChangedEhNS_4Gpio10eGpioStateE) for gpio::GpioController::stateChanged(unsigned char, gpio::Gpio::eGpioState)
    gpiocontroller.o(i._ZN4gpio14GpioController18gpioteEventHandlerEj21nrf_gpiote_polarity_tj) refers to gpiocontroller.o(.constdata) for .constdata
    gpiocontroller.o(i.gpioControllerTimeoutHandler) refers to gpiocontroller.o(i._ZN4gpio14GpioController17timerEventHandlerEv) for gpio::GpioController::timerEventHandler()
    gpiocontroller.o(.ARM.exidx) refers to gpiocontroller.o(i.gpioControllerTaskEventHandler) for i.gpioControllerTaskEventHandler
    gpiocontroller.o(.ARM.exidx) refers to gpiocontroller.o(i._ZN4gpio14GpioController12stateChangedEhNS_4Gpio10eGpioStateE) for i._ZN4gpio14GpioController12stateChangedEhNS_4Gpio10eGpioStateE
    gpiocontroller.o(.ARM.exidx) refers to gpiocontroller.o(i._ZNK4gpio14GpioController14isTimerEnabledEh) for i._ZNK4gpio14GpioController14isTimerEnabledEh
    gpiocontroller.o(.ARM.exidx) refers to gpiocontroller.o(i._ZNK4gpio14GpioController9pinNumberEh) for i._ZNK4gpio14GpioController9pinNumberEh
    gpiocontroller.o(.ARM.exidx) refers to gpiocontroller.o(i._ZN4gpio14GpioController17timerEventHandlerEv) for i._ZN4gpio14GpioController17timerEventHandlerEv
    gpiocontroller.o(.ARM.exidx) refers to gpiocontroller.o(i.gpioControllerTimeoutHandler) for i.gpioControllerTimeoutHandler
    gpiocontroller.o(.ARM.exidx) refers to gpiocontroller.o(i._ZN4gpio14GpioController10initializeEjj) for i._ZN4gpio14GpioController10initializeEjj
    gpiocontroller.o(.ARM.exidx) refers to gpiocontroller.o(i._ZN4gpio14GpioController12registerGpioEPNS_4GpioEbjPFYvj21nrf_gpiote_polarity_tE) for i._ZN4gpio14GpioController12registerGpioEPNS_4GpioEbjPFYvj21nrf_gpiote_polarity_tE
    gpiocontroller.o(.ARM.exidx) refers to gpiocontroller.o(i._ZN4gpio14GpioController14unregisterGpioEPNS_4GpioE) for i._ZN4gpio14GpioController14unregisterGpioEPNS_4GpioE
    gpiocontroller.o(.ARM.exidx) refers to gpiocontroller.o(i._ZN4gpio14GpioController16enableControllerEv) for i._ZN4gpio14GpioController16enableControllerEv
    gpiocontroller.o(.ARM.exidx) refers to gpiocontroller.o(i._ZNK4gpio14GpioController18indexFromPinNumberEh) for i._ZNK4gpio14GpioController18indexFromPinNumberEh
    gpiocontroller.o(.ARM.exidx) refers to gpiocontroller.o(i._ZNK4gpio14GpioController11indexFromIdEh) for i._ZNK4gpio14GpioController11indexFromIdEh
    gpiocontroller.o(.ARM.exidx) refers to gpiocontroller.o(i._ZNK4gpio14GpioController7pinMaskEh) for i._ZNK4gpio14GpioController7pinMaskEh
    gpiocontroller.o(.ARM.exidx) refers to gpiocontroller.o(i._ZN4gpio14GpioController21setHandlerTimerActiveEb) for i._ZN4gpio14GpioController21setHandlerTimerActiveEb
    gpiocontroller.o(.ARM.exidx) refers to gpiocontroller.o(i._ZN4gpio14GpioController18gpioteEventHandlerEj21nrf_gpiote_polarity_tj) for i._ZN4gpio14GpioController18gpioteEventHandlerEj21nrf_gpiote_polarity_tj
    gpiocontroller.o(.constdata) refers to gpiocontroller.o(.bss) for _gpioHandlerTimerId_data
    ledcontroller.o(i._ZN4gpio13LedController10initializeEhtt) refers to ledhal.o(i._ZN3hal6LedHal7initLedEh) for hal::LedHal::initLed(unsigned char)
    ledcontroller.o(i._ZN4gpio13LedController12processEventEv) refers to xfreactive.o(i._ZN10XFReactive17getCurrentTimeoutEv) for XFReactive::getCurrentTimeout()
    ledcontroller.o(i._ZN4gpio13LedController12processEventEv) refers to ledcontroller.o(i._ZN4gpio13LedController17_ST_LED_ON_ActionEv) for gpio::LedController::_ST_LED_ON_Action()
    ledcontroller.o(i._ZN4gpio13LedController12processEventEv) refers to ledcontroller.o(i._ZN4gpio13LedController18_ST_LED_OFF_ActionEv) for gpio::LedController::_ST_LED_OFF_Action()
    ledcontroller.o(i._ZN4gpio13LedController12processEventEv) refers to xfthread.o(i._ZN8XFThread15scheduleTimeoutEhtP11IXFReactive) for XFThread::scheduleTimeout(unsigned char, unsigned short, IXFReactive*)
    ledcontroller.o(i._ZN4gpio13LedController13_stopBlinkingEv) refers to xfthread.o(i._ZN8XFThread17unscheduleTimeoutEhP11IXFReactive) for XFThread::unscheduleTimeout(unsigned char, IXFReactive*)
    ledcontroller.o(i._ZN4gpio13LedController13startBlinkingEb) refers to ledcontroller.o(i._ZN4gpio13LedController13_stopBlinkingEv) for gpio::LedController::_stopBlinking()
    ledcontroller.o(i._ZN4gpio13LedController13startBlinkingEb) refers to ledcontroller.o(i._ZN4gpio13LedController17_ST_LED_ON_ActionEv) for gpio::LedController::_ST_LED_ON_Action()
    ledcontroller.o(i._ZN4gpio13LedController13startBlinkingEb) refers to xfthread.o(i._ZN8XFThread15scheduleTimeoutEhtP11IXFReactive) for XFThread::scheduleTimeout(unsigned char, unsigned short, IXFReactive*)
    ledcontroller.o(i._ZN4gpio13LedController17_ST_LED_ON_ActionEv) refers to ledhal.o(i._ZN3hal6LedHal8setLedOnEh) for hal::LedHal::setLedOn(unsigned char)
    ledcontroller.o(i._ZN4gpio13LedController17startSlowBlinkingEv) refers to ledcontroller.o(i._ZN4gpio13LedController13startBlinkingEb) for gpio::LedController::startBlinking(bool)
    ledcontroller.o(i._ZN4gpio13LedController18_ST_LED_OFF_ActionEv) refers to ledhal.o(i._ZN3hal6LedHal9setLedOffEh) for hal::LedHal::setLedOff(unsigned char)
    ledcontroller.o(i._ZN4gpio13LedController18startQuickBlinkingEv) refers to ledcontroller.o(i._ZN4gpio13LedController13startBlinkingEb) for gpio::LedController::startBlinking(bool)
    ledcontroller.o(i._ZN4gpio13LedController21startStandardBlinkingEv) refers to ledcontroller.o(i._ZN4gpio13LedController13startBlinkingEb) for gpio::LedController::startBlinking(bool)
    ledcontroller.o(i._ZN4gpio13LedController5ledOnEv) refers to ledcontroller.o(i._ZN4gpio13LedController13_stopBlinkingEv) for gpio::LedController::_stopBlinking()
    ledcontroller.o(i._ZN4gpio13LedController5ledOnEv) refers to ledcontroller.o(i._ZN4gpio13LedController17_ST_LED_ON_ActionEv) for gpio::LedController::_ST_LED_ON_Action()
    ledcontroller.o(i._ZN4gpio13LedController6ledOffEv) refers to ledcontroller.o(i._ZN4gpio13LedController13_stopBlinkingEv) for gpio::LedController::_stopBlinking()
    ledcontroller.o(i._ZN4gpio13LedController6ledOffEv) refers to ledcontroller.o(i._ZN4gpio13LedController18_ST_LED_OFF_ActionEv) for gpio::LedController::_ST_LED_OFF_Action()
    ledcontroller.o(i._ZN4gpio13LedControllerC1Ev) refers to xfreactive.o(i._ZN10XFReactiveC1EP8XFThread) for XFReactive::XFReactive(XFThread*)
    ledcontroller.o(i._ZN4gpio13LedControllerC1Ev) refers to ledcontroller.o(.constdata__ZTVN4gpio13LedControllerE) for vtable for gpio::LedController
    ledcontroller.o(i._ZN4gpio13LedControllerD0Ev) refers to ledcontroller.o(i._ZN4gpio13LedControllerD1Ev) for gpio::LedController::~LedController()
    ledcontroller.o(i._ZN4gpio13LedControllerD0Ev) refers to delete.o(i._ZdlPv) for operator delete (void*)
    ledcontroller.o(i._ZN4gpio13LedControllerD1Ev) refers to xfreactive.o(i._ZN10XFReactiveD1Ev) for XFReactive::~XFReactive()
    ledcontroller.o(.ARM.exidx) refers to ledcontroller.o(i._ZN4gpio13LedControllerC1Ev) for i._ZN4gpio13LedControllerC1Ev
    ledcontroller.o(.ARM.exidx) refers to ledcontroller.o(i._ZN4gpio13LedControllerD1Ev) for i._ZN4gpio13LedControllerD1Ev
    ledcontroller.o(.ARM.exidx) refers to ledcontroller.o(i._ZN4gpio13LedControllerD0Ev) for i._ZN4gpio13LedControllerD0Ev
    ledcontroller.o(.ARM.exidx) refers to ledcontroller.o(i._ZN4gpio13LedController10initializeEhtt) for i._ZN4gpio13LedController10initializeEhtt
    ledcontroller.o(.ARM.exidx) refers to ledcontroller.o(i._ZN4gpio13LedController17_ST_LED_ON_ActionEv) for i._ZN4gpio13LedController17_ST_LED_ON_ActionEv
    ledcontroller.o(.ARM.exidx) refers to ledcontroller.o(i._ZN4gpio13LedController13_stopBlinkingEv) for i._ZN4gpio13LedController13_stopBlinkingEv
    ledcontroller.o(.ARM.exidx) refers to ledcontroller.o(i._ZN4gpio13LedController5ledOnEv) for i._ZN4gpio13LedController5ledOnEv
    ledcontroller.o(.ARM.exidx) refers to ledcontroller.o(i._ZN4gpio13LedController18_ST_LED_OFF_ActionEv) for i._ZN4gpio13LedController18_ST_LED_OFF_ActionEv
    ledcontroller.o(.ARM.exidx) refers to ledcontroller.o(i._ZN4gpio13LedController6ledOffEv) for i._ZN4gpio13LedController6ledOffEv
    ledcontroller.o(.ARM.exidx) refers to ledcontroller.o(i._ZN4gpio13LedController43setTimeforQuickStandardAndSlowBlinkingStateEtttttt) for i._ZN4gpio13LedController43setTimeforQuickStandardAndSlowBlinkingStateEtttttt
    ledcontroller.o(.ARM.exidx) refers to ledcontroller.o(i._ZN4gpio13LedController13startBlinkingEb) for i._ZN4gpio13LedController13startBlinkingEb
    ledcontroller.o(.ARM.exidx) refers to ledcontroller.o(i._ZN4gpio13LedController18startQuickBlinkingEv) for i._ZN4gpio13LedController18startQuickBlinkingEv
    ledcontroller.o(.ARM.exidx) refers to ledcontroller.o(i._ZN4gpio13LedController21startStandardBlinkingEv) for i._ZN4gpio13LedController21startStandardBlinkingEv
    ledcontroller.o(.ARM.exidx) refers to ledcontroller.o(i._ZN4gpio13LedController17startSlowBlinkingEv) for i._ZN4gpio13LedController17startSlowBlinkingEv
    ledcontroller.o(.ARM.exidx) refers to ledcontroller.o(i._ZN4gpio13LedController12processEventEv) for i._ZN4gpio13LedController12processEventEv
    ads1118.o(i._ZN6sensor7ADS111810_meanValueEb) refers to sdktools.o(i._ZN5tools8SDKTools10roundedDivEyy) for tools::SDKTools::roundedDiv(unsigned long long, unsigned long long)
    ads1118.o(i._ZN6sensor7ADS111812enablePullupEv) refers to mhfsservice.o(i._ZN3ble11MhfsService23adsConfigurationUpdatedEht) for ble::MhfsService::adsConfigurationUpdated(unsigned char, unsigned short)
    ads1118.o(i._ZN6sensor7ADS111813disablePullupEv) refers to mhfsservice.o(i._ZN3ble11MhfsService23adsConfigurationUpdatedEht) for ble::MhfsService::adsConfigurationUpdated(unsigned char, unsigned short)
    ads1118.o(i._ZN6sensor7ADS111814_setSensorModeENS0_10eAdsTsModeE) refers to mhfsservice.o(i._ZN3ble11MhfsService23adsConfigurationUpdatedEht) for ble::MhfsService::adsConfigurationUpdated(unsigned char, unsigned short)
    ads1118.o(i._ZN6sensor7ADS111814_toTemperatureEt) refers to dfltui.o(.text) for __aeabi_ui2d
    ads1118.o(i._ZN6sensor7ADS111814_toTemperatureEt) refers to dmul.o(.text) for __aeabi_dmul
    ads1118.o(i._ZN6sensor7ADS111814_toTemperatureEt) refers to d2f.o(.text) for __aeabi_d2f
    ads1118.o(i._ZN6sensor7ADS111814setSampligRateEh) refers to mhfsservice.o(i._ZN3ble11MhfsService23adsConfigurationUpdatedEht) for ble::MhfsService::adsConfigurationUpdated(unsigned char, unsigned short)
    ads1118.o(i._ZN6sensor7ADS111816setInputSelectedEh) refers to mhfsservice.o(i._ZN3ble11MhfsService23adsConfigurationUpdatedEht) for ble::MhfsService::adsConfigurationUpdated(unsigned char, unsigned short)
    ads1118.o(i._ZN6sensor7ADS111817setContinuousModeEv) refers to mhfsservice.o(i._ZN3ble11MhfsService23adsConfigurationUpdatedEht) for ble::MhfsService::adsConfigurationUpdated(unsigned char, unsigned short)
    ads1118.o(i._ZN6sensor7ADS111817setFullScaleRangeEh) refers to mhfsservice.o(i._ZN3ble11MhfsService23adsConfigurationUpdatedEht) for ble::MhfsService::adsConfigurationUpdated(unsigned char, unsigned short)
    ads1118.o(i._ZN6sensor7ADS111817setSingleShotModeEv) refers to mhfsservice.o(i._ZN3ble11MhfsService23adsConfigurationUpdatedEht) for ble::MhfsService::adsConfigurationUpdated(unsigned char, unsigned short)
    ads1118.o(i._ZN6sensor7ADS111819computeMeanRawValueEb) refers to ads1118.o(i._ZN6sensor7ADS111810_meanValueEb) for sensor::ADS1118::_meanValue(bool)
    ads1118.o(i._ZN6sensor7ADS111819computeMeanRawValueEb) refers to mhfsservice.o(i._ZN3ble11MhfsService16adsValuesUpdatedEhhhbj) for ble::MhfsService::adsValuesUpdated(unsigned char, unsigned char, unsigned char, bool, unsigned)
    ads1118.o(i._ZN6sensor7ADS11184bindEPN3ble11MhfsServiceE) refers to mhfsservice.o(i._ZN3ble11MhfsService23adsConfigurationUpdatedEht) for ble::MhfsService::adsConfigurationUpdated(unsigned char, unsigned short)
    ads1118.o(i._ZN6sensor7ADS11188getVoltsEt) refers to sdktools.o(i._ZN5tools8SDKTools20unsignedInt16ToFloatEt) for tools::SDKTools::unsignedInt16ToFloat(unsigned short)
    ads1118.o(i._ZN6sensor7ADS11188getVoltsEt) refers to mhfsservice.o(i._ZN3ble11MhfsService16adsValuesUpdatedEhhhbj) for ble::MhfsService::adsValuesUpdated(unsigned char, unsigned char, unsigned char, bool, unsigned)
    ads1118.o(i._ZN6sensor7ADS11188getVoltsEt) refers to ads1118.o(.data) for .data
    ads1118.o(i._ZN6sensor7ADS1118C1Ev) refers to ads1118.o(.constdata__ZTVN6sensor7ADS1118E) for vtable for sensor::ADS1118
    ads1118.o(i._ZN6sensor7ADS1118D0Ev) refers to delete.o(i._ZdlPv) for operator delete (void*)
    ads1118.o(.ARM.exidx) refers to ads1118.o(i._ZN6sensor7ADS1118C1Ev) for i._ZN6sensor7ADS1118C1Ev
    ads1118.o(.ARM.exidx) refers to ads1118.o(i._ZN6sensor7ADS1118D1Ev) for i._ZN6sensor7ADS1118D1Ev
    ads1118.o(.ARM.exidx) refers to ads1118.o(i._ZN6sensor7ADS1118D0Ev) for i._ZN6sensor7ADS1118D0Ev
    ads1118.o(.ARM.exidx) refers to ads1118.o(i._ZN6sensor7ADS111826_debugDecodeConfigRegisterEPNS0_11adsConfig_tE) for i._ZN6sensor7ADS111826_debugDecodeConfigRegisterEPNS0_11adsConfig_tE
    ads1118.o(.ARM.exidx) refers to ads1118.o(i._ZN6sensor7ADS111810initializeEhh) for i._ZN6sensor7ADS111810initializeEhh
    ads1118.o(.ARM.exidx) refers to ads1118.o(i._ZN6sensor7ADS11184bindEPN3ble11MhfsServiceE) for i._ZN6sensor7ADS11184bindEPN3ble11MhfsServiceE
    ads1118.o(.ARM.exidx) refers to ads1118.o(i._ZN6sensor7ADS11188getVoltsEt) for i._ZN6sensor7ADS11188getVoltsEt
    ads1118.o(.ARM.exidx) refers to ads1118.o(i._ZN6sensor7ADS111814setSampligRateEh) for i._ZN6sensor7ADS111814setSampligRateEh
    ads1118.o(.ARM.exidx) refers to ads1118.o(i._ZN6sensor7ADS111817setFullScaleRangeEh) for i._ZN6sensor7ADS111817setFullScaleRangeEh
    ads1118.o(.ARM.exidx) refers to ads1118.o(i._ZN6sensor7ADS111817setContinuousModeEv) for i._ZN6sensor7ADS111817setContinuousModeEv
    ads1118.o(.ARM.exidx) refers to ads1118.o(i._ZN6sensor7ADS111817setSingleShotModeEv) for i._ZN6sensor7ADS111817setSingleShotModeEv
    ads1118.o(.ARM.exidx) refers to ads1118.o(i._ZN6sensor7ADS111822delayBeforeFirstResultEv) for i._ZN6sensor7ADS111822delayBeforeFirstResultEv
    ads1118.o(.ARM.exidx) refers to ads1118.o(i._ZN6sensor7ADS111813disablePullupEv) for i._ZN6sensor7ADS111813disablePullupEv
    ads1118.o(.ARM.exidx) refers to ads1118.o(i._ZN6sensor7ADS111812enablePullupEv) for i._ZN6sensor7ADS111812enablePullupEv
    ads1118.o(.ARM.exidx) refers to ads1118.o(i._ZN6sensor7ADS111816setInputSelectedEh) for i._ZN6sensor7ADS111816setInputSelectedEh
    ads1118.o(.ARM.exidx) refers to ads1118.o(i._ZN6sensor7ADS11188storeRawEtb) for i._ZN6sensor7ADS11188storeRawEtb
    ads1118.o(.ARM.exidx) refers to ads1118.o(i._ZN6sensor7ADS111810_meanValueEb) for i._ZN6sensor7ADS111810_meanValueEb
    ads1118.o(.ARM.exidx) refers to ads1118.o(i._ZN6sensor7ADS111819computeMeanRawValueEb) for i._ZN6sensor7ADS111819computeMeanRawValueEb
    ads1118.o(.ARM.exidx) refers to ads1118.o(i._ZN6sensor7ADS111814_setSensorModeENS0_10eAdsTsModeE) for i._ZN6sensor7ADS111814_setSensorModeENS0_10eAdsTsModeE
    ads1118.o(.ARM.exidx) refers to ads1118.o(i._ZN6sensor7ADS111814_toTemperatureEt) for i._ZN6sensor7ADS111814_toTemperatureEt
    sensorcontroller.o(i._ZN6sensor16SensorController10_readVoltsEPNS_7ADS1118EhPKc) refers to ads1118.o(i._ZN6sensor7ADS111814_setSensorModeENS0_10eAdsTsModeE) for sensor::ADS1118::_setSensorMode(sensor::ADS1118::eAdsTsMode)
    sensorcontroller.o(i._ZN6sensor16SensorController10_readVoltsEPNS_7ADS1118EhPKc) refers to ads1118.o(i._ZN6sensor7ADS111816setInputSelectedEh) for sensor::ADS1118::setInputSelected(unsigned char)
    sensorcontroller.o(i._ZN6sensor16SensorController10_readVoltsEPNS_7ADS1118EhPKc) refers to sensorcontroller.o(i._ZN6sensor16SensorController15_readFromSensorEPNS_7ADS1118Eb) for sensor::SensorController::_readFromSensor(sensor::ADS1118*, bool)
    sensorcontroller.o(i._ZN6sensor16SensorController10_readVoltsEPNS_7ADS1118EhPKc) refers to ads1118.o(i._ZN6sensor7ADS11188getVoltsEt) for sensor::ADS1118::getVolts(unsigned short)
    sensorcontroller.o(i._ZN6sensor16SensorController12_adsTransferEPNS_7ADS1118E) refers to ads1118.o(i._ZN6sensor7ADS111822delayBeforeFirstResultEv) for sensor::ADS1118::delayBeforeFirstResult()
    sensorcontroller.o(i._ZN6sensor16SensorController12_adsTransferEPNS_7ADS1118E) refers to sensorcontroller.o(i._ZN6sensor16SensorController12_spiTransferEPhjS1_j) for sensor::SensorController::_spiTransfer(unsigned char*, unsigned, unsigned char*, unsigned)
    sensorcontroller.o(i._ZN6sensor16SensorController12_adsTransferEPNS_7ADS1118E) refers to sensorcontroller.o(.constdata) for .constdata
    sensorcontroller.o(i._ZN6sensor16SensorController12_adsTransferEPNS_7ADS1118E) refers to sensorcontroller.o(.data) for .data
    sensorcontroller.o(i._ZN6sensor16SensorController12_spiTransferEPhjS1_j) refers to nrfx_spi.o(i.nrfx_spi_xfer) for nrfx_spi_xfer
    sensorcontroller.o(i._ZN6sensor16SensorController12processEventEv) refers to sensorcontroller.o(i._ZN6sensor16SensorController21_handleVddSensorChainEb) for sensor::SensorController::_handleVddSensorChain(bool)
    sensorcontroller.o(i._ZN6sensor16SensorController12processEventEv) refers to sensorcontroller.o(i._ZN6sensor16SensorController16_ST_DELAY_ActionEv) for sensor::SensorController::_ST_DELAY_Action()
    sensorcontroller.o(i._ZN6sensor16SensorController12processEventEv) refers to sensorcontroller.o(i._ZN6sensor16SensorController22_ST_MEASUREMENT_ActionEv) for sensor::SensorController::_ST_MEASUREMENT_Action()
    sensorcontroller.o(i._ZN6sensor16SensorController12processEventEv) refers to sensorcontroller.o(i._ZN6sensor16SensorController19_ST_SHUTDOWN_ActionEv) for sensor::SensorController::_ST_SHUTDOWN_Action()
    sensorcontroller.o(i._ZN6sensor16SensorController12processEventEv) refers to xfreactive.o(i._ZN10XFReactive17getCurrentTimeoutEv) for XFReactive::getCurrentTimeout()
    sensorcontroller.o(i._ZN6sensor16SensorController13_readAdcValueEPNS_7ADS1118EhPKc) refers to ads1118.o(i._ZN6sensor7ADS111814_setSensorModeENS0_10eAdsTsModeE) for sensor::ADS1118::_setSensorMode(sensor::ADS1118::eAdsTsMode)
    sensorcontroller.o(i._ZN6sensor16SensorController13_readAdcValueEPNS_7ADS1118EhPKc) refers to ads1118.o(i._ZN6sensor7ADS111816setInputSelectedEh) for sensor::ADS1118::setInputSelected(unsigned char)
    sensorcontroller.o(i._ZN6sensor16SensorController13_readAdcValueEPNS_7ADS1118EhPKc) refers to sensorcontroller.o(i._ZN6sensor16SensorController15_readFromSensorEPNS_7ADS1118Eb) for sensor::SensorController::_readFromSensor(sensor::ADS1118*, bool)
    sensorcontroller.o(i._ZN6sensor16SensorController13_readAdcValueEPNS_7ADS1118EhPKc) refers to ads1118.o(i._ZN6sensor7ADS11188storeRawEtb) for sensor::ADS1118::storeRaw(unsigned short, bool)
    sensorcontroller.o(i._ZN6sensor16SensorController15_readFromSensorEPNS_7ADS1118Eb) refers to gpiohal.o(i._ZN3hal7GpioHal8pinClearEj) for hal::GpioHal::pinClear(unsigned)
    sensorcontroller.o(i._ZN6sensor16SensorController15_readFromSensorEPNS_7ADS1118Eb) refers to sensorcontroller.o(i._ZN6sensor16SensorController12_adsTransferEPNS_7ADS1118E) for sensor::SensorController::_adsTransfer(sensor::ADS1118*)
    sensorcontroller.o(i._ZN6sensor16SensorController15_readFromSensorEPNS_7ADS1118Eb) refers to gpiohal.o(i._ZN3hal7GpioHal6pinSetEj) for hal::GpioHal::pinSet(unsigned)
    sensorcontroller.o(i._ZN6sensor16SensorController16_ST_DELAY_ActionEv) refers to sensorcontroller.o(i._ZN6sensor16SensorController22_handleActivityTimeoutEbi) for sensor::SensorController::_handleActivityTimeout(bool, int)
    sensorcontroller.o(i._ZN6sensor16SensorController16_readTemperatureEPNS_7ADS1118EPKc) refers to ads1118.o(i._ZN6sensor7ADS111814_setSensorModeENS0_10eAdsTsModeE) for sensor::ADS1118::_setSensorMode(sensor::ADS1118::eAdsTsMode)
    sensorcontroller.o(i._ZN6sensor16SensorController16_readTemperatureEPNS_7ADS1118EPKc) refers to sensorcontroller.o(i._ZN6sensor16SensorController15_readFromSensorEPNS_7ADS1118Eb) for sensor::SensorController::_readFromSensor(sensor::ADS1118*, bool)
    sensorcontroller.o(i._ZN6sensor16SensorController16_readTemperatureEPNS_7ADS1118EPKc) refers to ads1118.o(i._ZN6sensor7ADS111814_toTemperatureEt) for sensor::ADS1118::_toTemperature(unsigned short)
    sensorcontroller.o(i._ZN6sensor16SensorController19_ST_SHUTDOWN_ActionEv) refers to sensorcontroller.o(i._ZN6sensor16SensorController21_handleVddSensorChainEb) for sensor::SensorController::_handleVddSensorChain(bool)
    sensorcontroller.o(i._ZN6sensor16SensorController19_ST_SHUTDOWN_ActionEv) refers to sensorcontroller.o(i._ZN6sensor16SensorController22_handleActivityTimeoutEbi) for sensor::SensorController::_handleActivityTimeout(bool, int)
    sensorcontroller.o(i._ZN6sensor16SensorController21_handleVddSensorChainEb) refers to gpiohal.o(i._ZN3hal7GpioHal8pinClearEj) for hal::GpioHal::pinClear(unsigned)
    sensorcontroller.o(i._ZN6sensor16SensorController21_handleVddSensorChainEb) refers to gpiohal.o(i._ZN3hal7GpioHal6pinSetEj) for hal::GpioHal::pinSet(unsigned)
    sensorcontroller.o(i._ZN6sensor16SensorController22_ST_MEASUREMENT_ActionEv) refers to sensorcontroller.o(i._ZN6sensor16SensorController8_spiInitEPFYvPK14nrfx_spi_evt_tPvES4_) for sensor::SensorController::_spiInit(void(*)(const nrfx_spi_evt_t*, void*), void*)
    sensorcontroller.o(i._ZN6sensor16SensorController22_ST_MEASUREMENT_ActionEv) refers to sensorcontroller.o(i._ZN6sensor16SensorController13_readAdcValueEPNS_7ADS1118EhPKc) for sensor::SensorController::_readAdcValue(sensor::ADS1118*, unsigned char, const char*)
    sensorcontroller.o(i._ZN6sensor16SensorController22_ST_MEASUREMENT_ActionEv) refers to ads1118.o(i._ZN6sensor7ADS111810_meanValueEb) for sensor::ADS1118::_meanValue(bool)
    sensorcontroller.o(i._ZN6sensor16SensorController22_ST_MEASUREMENT_ActionEv) refers to ads1118.o(i._ZN6sensor7ADS11188getVoltsEt) for sensor::ADS1118::getVolts(unsigned short)
    sensorcontroller.o(i._ZN6sensor16SensorController22_ST_MEASUREMENT_ActionEv) refers to ads1118.o(i._ZN6sensor7ADS111819computeMeanRawValueEb) for sensor::ADS1118::computeMeanRawValue(bool)
    sensorcontroller.o(i._ZN6sensor16SensorController22_ST_MEASUREMENT_ActionEv) refers to nrfx_spi.o(i.nrfx_spi_uninit) for nrfx_spi_uninit
    sensorcontroller.o(i._ZN6sensor16SensorController22_ST_MEASUREMENT_ActionEv) refers to sensorcontroller.o(i._ZN6sensor16SensorController22_handleActivityTimeoutEbi) for sensor::SensorController::_handleActivityTimeout(bool, int)
    sensorcontroller.o(i._ZN6sensor16SensorController22_ST_MEASUREMENT_ActionEv) refers to sensorcontroller.o(.data) for .data
    sensorcontroller.o(i._ZN6sensor16SensorController22_handleActivityTimeoutEbi) refers to xfthread.o(i._ZN8XFThread15scheduleTimeoutEhtP11IXFReactive) for XFThread::scheduleTimeout(unsigned char, unsigned short, IXFReactive*)
    sensorcontroller.o(i._ZN6sensor16SensorController22_handleActivityTimeoutEbi) refers to xfthread.o(i._ZN8XFThread17unscheduleTimeoutEhP11IXFReactive) for XFThread::unscheduleTimeout(unsigned char, IXFReactive*)
    sensorcontroller.o(i._ZN6sensor16SensorController4bindEPNS_7ADS1118ES2_) refers to ads1118.o(i._ZN6sensor7ADS111812enablePullupEv) for sensor::ADS1118::enablePullup()
    sensorcontroller.o(i._ZN6sensor16SensorController4bindEPNS_7ADS1118ES2_) refers to ads1118.o(i._ZN6sensor7ADS111817setFullScaleRangeEh) for sensor::ADS1118::setFullScaleRange(unsigned char)
    sensorcontroller.o(i._ZN6sensor16SensorController4bindEPNS_7ADS1118ES2_) refers to ads1118.o(i._ZN6sensor7ADS111817setSingleShotModeEv) for sensor::ADS1118::setSingleShotMode()
    sensorcontroller.o(i._ZN6sensor16SensorController4bindEPNS_7ADS1118ES2_) refers to sensorcontroller.o(i._ZN6sensor16SensorController16_setSpiFrequencyEt) for sensor::SensorController::_setSpiFrequency(unsigned short)
    sensorcontroller.o(i._ZN6sensor16SensorController8_spiInitEPFYvPK14nrfx_spi_evt_tPvES4_) refers to nrfx_spi.o(i.nrfx_spi_init) for nrfx_spi_init
    sensorcontroller.o(i._ZN6sensor16SensorController8_spiUnitEv) refers to nrfx_spi.o(i.nrfx_spi_uninit) for nrfx_spi_uninit
    sensorcontroller.o(i._ZN6sensor16SensorControllerC1Ev) refers to xfreactive.o(i._ZN10XFReactiveC1EP8XFThread) for XFReactive::XFReactive(XFThread*)
    sensorcontroller.o(i._ZN6sensor16SensorControllerC1Ev) refers to xfevent.o(i._ZN7XFEventC1EhP11IXFReactiveb) for XFEvent::XFEvent(unsigned char, IXFReactive*, bool)
    sensorcontroller.o(i._ZN6sensor16SensorControllerC1Ev) refers to gpiohal.o(i._ZN3hal7GpioHal12cfgPinOutputEjjjj) for hal::GpioHal::cfgPinOutput(unsigned, unsigned, unsigned, unsigned)
    sensorcontroller.o(i._ZN6sensor16SensorControllerC1Ev) refers to sensorcontroller.o(i._ZN6sensor16SensorController21_handleVddSensorChainEb) for sensor::SensorController::_handleVddSensorChain(bool)
    sensorcontroller.o(i._ZN6sensor16SensorControllerC1Ev) refers to sensorcontroller.o(.constdata__ZTVN6sensor16SensorControllerE) for vtable for sensor::SensorController
    sensorcontroller.o(i._ZN6sensor16SensorControllerC1Ev) refers to sensorcontroller.o(.constdata__ZTV11SensorEvent) for vtable for SensorEvent
    sensorcontroller.o(i._ZN6sensor16SensorControllerD0Ev) refers to sensorcontroller.o(i._ZN6sensor16SensorControllerD1Ev) for sensor::SensorController::~SensorController()
    sensorcontroller.o(i._ZN6sensor16SensorControllerD0Ev) refers to delete.o(i._ZdlPv) for operator delete (void*)
    sensorcontroller.o(i._ZN6sensor16SensorControllerD1Ev) refers to xfevent.o(i._ZN7XFEventD1Ev) for XFEvent::~XFEvent()
    sensorcontroller.o(i._ZN6sensor16SensorControllerD1Ev) refers to xfreactive.o(i._ZN10XFReactiveD1Ev) for XFReactive::~XFReactive()
    sensorcontroller.o(i._ZN6sensor16SensorControllerD1Ev) refers to sensorcontroller.o(.constdata__ZTVN6sensor16SensorControllerE) for vtable for sensor::SensorController
    sensorcontroller.o(.ARM.exidx) refers to sensorcontroller.o(i._ZN6sensor16SensorController14onSpiDoneEventEPKv) for i._ZN6sensor16SensorController14onSpiDoneEventEPKv
    sensorcontroller.o(.ARM.exidx) refers to sensorcontroller.o(i.spiSensorEventHandler) for i.spiSensorEventHandler
    sensorcontroller.o(.ARM.exidx) refers to sensorcontroller.o(i._ZN6sensor16SensorController21_handleVddSensorChainEb) for i._ZN6sensor16SensorController21_handleVddSensorChainEb
    sensorcontroller.o(.ARM.exidx) refers to sensorcontroller.o(i._ZN6sensor16SensorControllerC1Ev) for i._ZN6sensor16SensorControllerC1Ev
    sensorcontroller.o(.ARM.exidx) refers to sensorcontroller.o(i._ZN6sensor16SensorControllerD1Ev) for i._ZN6sensor16SensorControllerD1Ev
    sensorcontroller.o(.ARM.exidx) refers to sensorcontroller.o(i._ZN6sensor16SensorControllerD0Ev) for i._ZN6sensor16SensorControllerD0Ev
    sensorcontroller.o(.ARM.exidx) refers to sensorcontroller.o(i._ZN6sensor16SensorController10initializeEv) for i._ZN6sensor16SensorController10initializeEv
    sensorcontroller.o(.ARM.exidx) refers to sensorcontroller.o(i._ZN6sensor16SensorController16_setSpiFrequencyEt) for i._ZN6sensor16SensorController16_setSpiFrequencyEt
    sensorcontroller.o(.ARM.exidx) refers to sensorcontroller.o(i._ZN6sensor16SensorController4bindEPNS_7ADS1118ES2_) for i._ZN6sensor16SensorController4bindEPNS_7ADS1118ES2_
    sensorcontroller.o(.ARM.exidx) refers to sensorcontroller.o(i._ZN6sensor16SensorController8setStateENS0_22eSensorControllerStateE) for i._ZN6sensor16SensorController8setStateENS0_22eSensorControllerStateE
    sensorcontroller.o(.ARM.exidx) refers to sensorcontroller.o(i._ZN6sensor16SensorController22_handleActivityTimeoutEbi) for i._ZN6sensor16SensorController22_handleActivityTimeoutEbi
    sensorcontroller.o(.ARM.exidx) refers to sensorcontroller.o(i._ZN6sensor16SensorController8_spiUnitEv) for i._ZN6sensor16SensorController8_spiUnitEv
    sensorcontroller.o(.ARM.exidx) refers to sensorcontroller.o(i._ZN6sensor16SensorController12_spiTransferEPhjS1_j) for i._ZN6sensor16SensorController12_spiTransferEPhjS1_j
    sensorcontroller.o(.ARM.exidx) refers to sensorcontroller.o(i._ZN6sensor16SensorController12_adsTransferEPNS_7ADS1118E) for i._ZN6sensor16SensorController12_adsTransferEPNS_7ADS1118E
    sensorcontroller.o(.ARM.exidx) refers to sensorcontroller.o(i._ZN6sensor16SensorController15_readFromSensorEPNS_7ADS1118Eb) for i._ZN6sensor16SensorController15_readFromSensorEPNS_7ADS1118Eb
    sensorcontroller.o(.ARM.exidx) refers to sensorcontroller.o(i._ZN6sensor16SensorController13_readAdcValueEPNS_7ADS1118EhPKc) for i._ZN6sensor16SensorController13_readAdcValueEPNS_7ADS1118EhPKc
    sensorcontroller.o(.ARM.exidx) refers to sensorcontroller.o(i._ZN6sensor16SensorController15debugPrintFloatEfPKcS2_) for i._ZN6sensor16SensorController15debugPrintFloatEfPKcS2_
    sensorcontroller.o(.ARM.exidx) refers to sensorcontroller.o(i._ZN6sensor16SensorController8_spiInitEPFYvPK14nrfx_spi_evt_tPvES4_) for i._ZN6sensor16SensorController8_spiInitEPFYvPK14nrfx_spi_evt_tPvES4_
    sensorcontroller.o(.ARM.exidx) refers to sensorcontroller.o(i._ZN6sensor16SensorController22_ST_MEASUREMENT_ActionEv) for i._ZN6sensor16SensorController22_ST_MEASUREMENT_ActionEv
    sensorcontroller.o(.ARM.exidx) refers to sensorcontroller.o(i._ZN6sensor16SensorController19_ST_SHUTDOWN_ActionEv) for i._ZN6sensor16SensorController19_ST_SHUTDOWN_ActionEv
    sensorcontroller.o(.ARM.exidx) refers to sensorcontroller.o(i._ZN6sensor16SensorController16_ST_DELAY_ActionEv) for i._ZN6sensor16SensorController16_ST_DELAY_ActionEv
    sensorcontroller.o(.ARM.exidx) refers to sensorcontroller.o(i._ZN6sensor16SensorController12processEventEv) for i._ZN6sensor16SensorController12processEventEv
    sensorcontroller.o(.ARM.exidx) refers to sensorcontroller.o(i._ZN6sensor16SensorController16_stopMeasurementEv) for i._ZN6sensor16SensorController16_stopMeasurementEv
    sensorcontroller.o(.ARM.exidx) refers to sensorcontroller.o(i._ZN6sensor16SensorController15_ST_IDLE_ActionEv) for i._ZN6sensor16SensorController15_ST_IDLE_ActionEv
    sensorcontroller.o(.ARM.exidx) refers to sensorcontroller.o(i._ZN6sensor16SensorController16_readTemperatureEPNS_7ADS1118EPKc) for i._ZN6sensor16SensorController16_readTemperatureEPNS_7ADS1118EPKc
    sensorcontroller.o(.ARM.exidx) refers to sensorcontroller.o(i._ZN6sensor16SensorController10_readVoltsEPNS_7ADS1118EhPKc) for i._ZN6sensor16SensorController10_readVoltsEPNS_7ADS1118EhPKc
    logtrace.o(i._ZN5tools8LogTrace3outEhPKc) refers to segger_rtt_printf.o(i.SEGGER_RTT_printf) for SEGGER_RTT_printf
    logtrace.o(.ARM.exidx) refers to logtrace.o(i._ZN5tools8LogTrace3outEhPKc) for i._ZN5tools8LogTrace3outEhPKc
    sdktools.o(i._ZN5tools8SDKTools10getTxPowerEh) refers to sdktools.o(.data) for .data
    sdktools.o(i._ZN5tools8SDKTools10roundedDivEyy) refers to sdktools.o(i._ZN5tools8SDKTools12roundedDiv64Eyy) for tools::SDKTools::roundedDiv64(unsigned long long, unsigned long long)
    sdktools.o(i._ZN5tools8SDKTools10setTxPowerEhta) refers to sdktools.o(.data) for .data
    sdktools.o(i._ZN5tools8SDKTools11ceiledDiv64Eyy) refers to uldiv.o(.text) for __aeabi_uldivmod
    sdktools.o(i._ZN5tools8SDKTools11ceiledDiv64Eyy) refers to app_error.o(i.app_error_handler_bare) for app_error_handler_bare
    sdktools.o(i._ZN5tools8SDKTools12appTimerStopEPv) refers to app_timer.o(i.app_timer_stop) for app_timer_stop
    sdktools.o(i._ZN5tools8SDKTools12isObjectNULLEPv) refers to security.o(i._ZN5tools8LogTrace5debugEPKcz) for tools::LogTrace::debug(const char*, ...)
    sdktools.o(i._ZN5tools8SDKTools12roundedDiv64Eyy) refers to uldiv.o(.text) for __aeabi_uldivmod
    sdktools.o(i._ZN5tools8SDKTools12roundedDiv64Eyy) refers to app_error.o(i.app_error_handler_bare) for app_error_handler_bare
    sdktools.o(i._ZN5tools8SDKTools13_appTimerInitEv) refers to app_timer.o(i.app_timer_init) for app_timer_init
    sdktools.o(i._ZN5tools8SDKTools13appTimerStartEPvjS1_) refers to app_timer.o(i.app_timer_start) for app_timer_start
    sdktools.o(i._ZN5tools8SDKTools14appTimerCreateEPKvhPv) refers to security.o(i._ZN5tools8LogTrace5debugEPKcz) for tools::LogTrace::debug(const char*, ...)
    sdktools.o(i._ZN5tools8SDKTools14appTimerCreateEPKvhPv) refers to app_timer.o(i.app_timer_create) for app_timer_create
    sdktools.o(i._ZN5tools8SDKTools16IEEE11073ToFloatEPh) refers to powf.o(i.__hardfp_powf) for __hardfp_powf
    sdktools.o(i._ZN5tools8SDKTools18appTimerGetCounterEv) refers to app_timer.o(i.app_timer_cnt_get) for app_timer_cnt_get
    sdktools.o(i._ZN5tools8SDKTools21floatToIEEE11073FloatEfhPh) refers to powf.o(i.__hardfp_powf) for __hardfp_powf
    sdktools.o(i._ZN5tools8SDKTools21floatToIEEE11073FloatEfhPh) refers to floorf.o(i.__hardfp_floorf) for __hardfp_floorf
    sdktools.o(i._ZN5tools8SDKTools4initEv) refers to scheduler.o(i._ZN3ble9Scheduler4initEv) for ble::Scheduler::init()
    sdktools.o(i._ZN5tools8SDKTools4initEv) refers to app_timer.o(i.app_timer_init) for app_timer_init
    sdktools.o(i._ZN5tools8SDKTools9ceiledDivEyy) refers to sdktools.o(i._ZN5tools8SDKTools11ceiledDiv64Eyy) for tools::SDKTools::ceiledDiv64(unsigned long long, unsigned long long)
    sdktools.o(.ARM.exidx) refers to sdktools.o(i._ZN5tools8SDKTools13_appTimerInitEv) for i._ZN5tools8SDKTools13_appTimerInitEv
    sdktools.o(.ARM.exidx) refers to sdktools.o(i._ZN5tools8SDKTools4initEv) for i._ZN5tools8SDKTools4initEv
    sdktools.o(.ARM.exidx) refers to sdktools.o(i._ZN5tools8SDKTools10getTxPowerEh) for i._ZN5tools8SDKTools10getTxPowerEh
    sdktools.o(.ARM.exidx) refers to sdktools.o(i._ZN5tools8SDKTools10setTxPowerEhta) for i._ZN5tools8SDKTools10setTxPowerEhta
    sdktools.o(.ARM.exidx) refers to sdktools.o(i._ZN5tools8SDKTools13setDeviceNameEPhj) for i._ZN5tools8SDKTools13setDeviceNameEPhj
    sdktools.o(.ARM.exidx) refers to sdktools.o(i._ZN5tools8SDKTools21floatToIEEE11073FloatEfhPh) for i._ZN5tools8SDKTools21floatToIEEE11073FloatEfhPh
    sdktools.o(.ARM.exidx) refers to sdktools.o(i._ZN5tools8SDKTools16IEEE11073ToFloatEPh) for i._ZN5tools8SDKTools16IEEE11073ToFloatEPh
    sdktools.o(.ARM.exidx) refers to sdktools.o(i._ZN5tools8SDKTools24floatToUnsignedByteArrayEfPh) for i._ZN5tools8SDKTools24floatToUnsignedByteArrayEfPh
    sdktools.o(.ARM.exidx) refers to sdktools.o(i._ZN5tools8SDKTools24unsignedByteArrayToFloatEPh) for i._ZN5tools8SDKTools24unsignedByteArrayToFloatEPh
    sdktools.o(.ARM.exidx) refers to sdktools.o(i._ZN5tools8SDKTools20unsignedInt16ToFloatEt) for i._ZN5tools8SDKTools20unsignedInt16ToFloatEt
    sdktools.o(.ARM.exidx) refers to sdktools.o(i._ZN5tools8SDKTools3GCDEtt) for i._ZN5tools8SDKTools3GCDEtt
    sdktools.o(.ARM.exidx) refers to sdktools.o(i._ZN5tools8SDKTools12roundedDiv64Eyy) for i._ZN5tools8SDKTools12roundedDiv64Eyy
    sdktools.o(.ARM.exidx) refers to sdktools.o(i._ZN5tools8SDKTools10roundedDivEyy) for i._ZN5tools8SDKTools10roundedDivEyy
    sdktools.o(.ARM.exidx) refers to sdktools.o(i._ZN5tools8SDKTools11ceiledDiv64Eyy) for i._ZN5tools8SDKTools11ceiledDiv64Eyy
    sdktools.o(.ARM.exidx) refers to sdktools.o(i._ZN5tools8SDKTools9ceiledDivEyy) for i._ZN5tools8SDKTools9ceiledDivEyy
    sdktools.o(.ARM.exidx) refers to sdktools.o(i._ZN5tools8SDKTools12isObjectNULLEPv) for i._ZN5tools8SDKTools12isObjectNULLEPv
    sdktools.o(.ARM.exidx) refers to sdktools.o(i._ZN5tools8SDKTools14appTimerCreateEPKvhPv) for i._ZN5tools8SDKTools14appTimerCreateEPKvhPv
    sdktools.o(.ARM.exidx) refers to sdktools.o(i._ZN5tools8SDKTools13appTimerStartEPvjS1_) for i._ZN5tools8SDKTools13appTimerStartEPvjS1_
    sdktools.o(.ARM.exidx) refers to sdktools.o(i._ZN5tools8SDKTools12appTimerStopEPv) for i._ZN5tools8SDKTools12appTimerStopEPv
    sdktools.o(.ARM.exidx) refers to sdktools.o(i._ZN5tools8SDKTools18appTimerGetCounterEv) for i._ZN5tools8SDKTools18appTimerGetCounterEv
    ble_advdata.o(i.ble_advdata_appearance_find) refers to ble_advdata.o(i.ble_advdata_search) for ble_advdata_search
    ble_advdata.o(i.ble_advdata_encode) refers to ble_advdata.o(i.ble_device_addr_encode) for ble_device_addr_encode
    ble_advdata.o(i.ble_advdata_encode) refers to ble_advdata.o(i.uint16_encode) for uint16_encode
    ble_advdata.o(i.ble_advdata_encode) refers to ble_advdata.o(i.uuid_list_encode) for uuid_list_encode
    ble_advdata.o(i.ble_advdata_encode) refers to ble_advdata.o(i.conn_int_encode) for conn_int_encode
    ble_advdata.o(i.ble_advdata_encode) refers to ble_advdata.o(i.manuf_specific_data_encode) for manuf_specific_data_encode
    ble_advdata.o(i.ble_advdata_encode) refers to ble_advdata.o(i.service_data_encode) for service_data_encode
    ble_advdata.o(i.ble_advdata_encode) refers to ble_advdata.o(i.name_encode) for name_encode
    ble_advdata.o(i.ble_advdata_name_find) refers to ble_advdata.o(i.ble_advdata_search) for ble_advdata_search
    ble_advdata.o(i.ble_advdata_name_find) refers to strlen.o(.text) for strlen
    ble_advdata.o(i.ble_advdata_name_find) refers to memcmp.o(.text) for memcmp
    ble_advdata.o(i.ble_advdata_parse) refers to ble_advdata.o(i.ble_advdata_search) for ble_advdata_search
    ble_advdata.o(i.ble_advdata_short_name_find) refers to ble_advdata.o(i.ble_advdata_search) for ble_advdata_search
    ble_advdata.o(i.ble_advdata_short_name_find) refers to strlen.o(.text) for strlen
    ble_advdata.o(i.ble_advdata_short_name_find) refers to memcmp.o(.text) for memcmp
    ble_advdata.o(i.ble_advdata_uuid_find) refers to ble_advdata.o(i.ble_advdata_search) for ble_advdata_search
    ble_advdata.o(i.ble_advdata_uuid_find) refers to memcmp.o(.text) for memcmp
    ble_advdata.o(i.conn_int_encode) refers to ble_advdata.o(i.uint16_encode) for uint16_encode
    ble_advdata.o(i.manuf_specific_data_encode) refers to ble_advdata.o(i.uint16_encode) for uint16_encode
    ble_advdata.o(i.manuf_specific_data_encode) refers to memcpya.o(.text) for __aeabi_memcpy
    ble_advdata.o(i.service_data_encode) refers to ble_advdata.o(i.uint16_encode) for uint16_encode
    ble_advdata.o(i.service_data_encode) refers to memcpya.o(.text) for __aeabi_memcpy
    ble_advdata.o(i.uuid_list_encode) refers to ble_advdata.o(i.uuid_list_sized_encode) for uuid_list_sized_encode
    ble_advertising.o(i.ble_advertising_clear_without_whitelist_flag) refers to ble_advertising.o(i.flags_set) for flags_set
    ble_advertising.o(i.ble_advertising_init) refers to memcpya.o(.text) for __aeabi_memcpy4
    ble_advertising.o(i.ble_advertising_init) refers to ble_advdata.o(i.ble_advdata_encode) for ble_advdata_encode
    ble_advertising.o(i.ble_advertising_modes_config_set) refers to memcpya.o(.text) for __aeabi_memcpy4
    ble_advertising.o(i.ble_advertising_on_ble_evt) refers to ble_advertising.o(i.ble_advertising_start) for ble_advertising_start
    ble_advertising.o(i.ble_advertising_restart_without_whitelist) refers to ble_advertising.o(i.flags_set) for flags_set
    ble_advertising.o(i.ble_advertising_restart_without_whitelist) refers to ble_advertising.o(i.ble_advertising_start) for ble_advertising_start
    ble_advertising.o(i.ble_advertising_start) refers to memseta.o(.text) for __aeabi_memclr4
    ble_advertising.o(i.ble_advertising_start) refers to ble_advertising.o(i.phy_is_valid) for phy_is_valid
    ble_advertising.o(i.ble_advertising_start) refers to ble_advertising.o(i.use_whitelist) for use_whitelist
    ble_advertising.o(i.ble_advertising_start) refers to ble_advertising.o(i.flags_set) for flags_set
    ble_advertising.o(i.flags_set) refers to ble_advdata.o(i.ble_advdata_parse) for ble_advdata_parse
    ble_conn_params.o(i.ble_conn_params_change_conn_params) refers to ble_conn_params.o(i.instance_get) for instance_get
    ble_conn_params.o(i.ble_conn_params_change_conn_params) refers to ble_conn_params.o(.data) for .data
    ble_conn_params.o(i.ble_conn_params_init) refers to memcpya.o(.text) for __aeabi_memcpy4
    ble_conn_params.o(i.ble_conn_params_init) refers to app_timer.o(i.app_timer_create) for app_timer_create
    ble_conn_params.o(i.ble_conn_params_init) refers to ble_conn_params.o(.bss) for .bss
    ble_conn_params.o(i.ble_conn_params_init) refers to ble_conn_params.o(.data) for .data
    ble_conn_params.o(i.ble_conn_params_init) refers to ble_conn_params.o(i.update_timeout_handler) for update_timeout_handler
    ble_conn_params.o(i.ble_conn_params_stop) refers to app_timer.o(i.app_timer_stop) for app_timer_stop
    ble_conn_params.o(i.ble_conn_params_stop) refers to ble_conn_params.o(.bss) for .bss
    ble_conn_params.o(i.ble_evt_handler) refers to ble_conn_params.o(i.instance_get) for instance_get
    ble_conn_params.o(i.ble_evt_handler) refers to ble_srv_common.o(i.ble_srv_is_notification_enabled) for ble_srv_is_notification_enabled
    ble_conn_params.o(i.ble_evt_handler) refers to ble_conn_params.o(i.is_conn_params_ok) for is_conn_params_ok
    ble_conn_params.o(i.ble_evt_handler) refers to app_timer.o(i.app_timer_stop) for app_timer_stop
    ble_conn_params.o(i.ble_evt_handler) refers to ble_conn_params.o(i.send_error_evt) for send_error_evt
    ble_conn_params.o(i.ble_evt_handler) refers to ble_conn_params.o(i.conn_params_negotiation) for conn_params_negotiation
    ble_conn_params.o(i.ble_evt_handler) refers to ble_conn_params.o(.bss) for .bss
    ble_conn_params.o(i.ble_evt_handler) refers to ble_conn_params.o(.data) for .data
    ble_conn_params.o(i.conn_params_negotiation) refers to app_timer.o(i.app_timer_start) for app_timer_start
    ble_conn_params.o(i.conn_params_negotiation) refers to ble_conn_params.o(i.send_error_evt) for send_error_evt
    ble_conn_params.o(i.conn_params_negotiation) refers to ble_conn_params.o(.bss) for .bss
    ble_conn_params.o(i.instance_get) refers to ble_conn_params.o(.bss) for .bss
    ble_conn_params.o(i.send_error_evt) refers to ble_conn_params.o(.bss) for .bss
    ble_conn_params.o(i.update_timeout_handler) refers to ble_conn_params.o(i.instance_get) for instance_get
    ble_conn_params.o(i.update_timeout_handler) refers to ble_conn_params.o(i.send_error_evt) for send_error_evt
    ble_conn_params.o(i.update_timeout_handler) refers to ble_conn_params.o(.bss) for .bss
    ble_conn_params.o(sdh_ble_observers1) refers to ble_conn_params.o(i.ble_evt_handler) for ble_evt_handler
    ble_conn_state.o(i.active_flag_count) refers to nrf_atflags.o(i.nrf_atflags_get) for nrf_atflags_get
    ble_conn_state.o(i.bcs_internal_state_reset) refers to memseta.o(.text) for __aeabi_memclr4
    ble_conn_state.o(i.bcs_internal_state_reset) refers to ble_conn_state.o(.bss) for .bss
    ble_conn_state.o(i.ble_conn_state_central_conn_count) refers to nrf_atomic.o(i.nrf_atomic_u32_and) for nrf_atomic_u32_and
    ble_conn_state.o(i.ble_conn_state_central_conn_count) refers to ble_conn_state.o(i.active_flag_count) for active_flag_count
    ble_conn_state.o(i.ble_conn_state_central_conn_count) refers to ble_conn_state.o(.bss) for .bss
    ble_conn_state.o(i.ble_conn_state_central_handles) refers to nrf_atomic.o(i.nrf_atomic_u32_and) for nrf_atomic_u32_and
    ble_conn_state.o(i.ble_conn_state_central_handles) refers to ble_conn_state.o(i.conn_handle_list_get) for conn_handle_list_get
    ble_conn_state.o(i.ble_conn_state_central_handles) refers to ble_conn_state.o(.bss) for .bss
    ble_conn_state.o(i.ble_conn_state_conn_count) refers to ble_conn_state.o(i.active_flag_count) for active_flag_count
    ble_conn_state.o(i.ble_conn_state_conn_count) refers to ble_conn_state.o(.bss) for .bss
    ble_conn_state.o(i.ble_conn_state_conn_handles) refers to ble_conn_state.o(i.conn_handle_list_get) for conn_handle_list_get
    ble_conn_state.o(i.ble_conn_state_conn_handles) refers to ble_conn_state.o(.bss) for .bss
    ble_conn_state.o(i.ble_conn_state_conn_idx) refers to ble_conn_state.o(i.ble_conn_state_valid) for ble_conn_state_valid
    ble_conn_state.o(i.ble_conn_state_encrypted) refers to ble_conn_state.o(i.ble_conn_state_valid) for ble_conn_state_valid
    ble_conn_state.o(i.ble_conn_state_encrypted) refers to nrf_atflags.o(i.nrf_atflags_get) for nrf_atflags_get
    ble_conn_state.o(i.ble_conn_state_encrypted) refers to ble_conn_state.o(.bss) for .bss
    ble_conn_state.o(i.ble_conn_state_for_each_connected) refers to ble_conn_state.o(i.for_each_set_flag) for for_each_set_flag
    ble_conn_state.o(i.ble_conn_state_for_each_connected) refers to ble_conn_state.o(.bss) for .bss
    ble_conn_state.o(i.ble_conn_state_for_each_set_user_flag) refers to ble_conn_state.o(i.user_flag_is_acquired) for user_flag_is_acquired
    ble_conn_state.o(i.ble_conn_state_for_each_set_user_flag) refers to ble_conn_state.o(i.for_each_set_flag) for for_each_set_flag
    ble_conn_state.o(i.ble_conn_state_for_each_set_user_flag) refers to ble_conn_state.o(.bss) for .bss
    ble_conn_state.o(i.ble_conn_state_init) refers to ble_conn_state.o(i.bcs_internal_state_reset) for bcs_internal_state_reset
    ble_conn_state.o(i.ble_conn_state_mitm_protected) refers to ble_conn_state.o(i.ble_conn_state_valid) for ble_conn_state_valid
    ble_conn_state.o(i.ble_conn_state_mitm_protected) refers to nrf_atflags.o(i.nrf_atflags_get) for nrf_atflags_get
    ble_conn_state.o(i.ble_conn_state_mitm_protected) refers to ble_conn_state.o(.bss) for .bss
    ble_conn_state.o(i.ble_conn_state_periph_handles) refers to nrf_atomic.o(i.nrf_atomic_u32_and) for nrf_atomic_u32_and
    ble_conn_state.o(i.ble_conn_state_periph_handles) refers to ble_conn_state.o(i.conn_handle_list_get) for conn_handle_list_get
    ble_conn_state.o(i.ble_conn_state_periph_handles) refers to ble_conn_state.o(.bss) for .bss
    ble_conn_state.o(i.ble_conn_state_peripheral_conn_count) refers to nrf_atomic.o(i.nrf_atomic_u32_and) for nrf_atomic_u32_and
    ble_conn_state.o(i.ble_conn_state_peripheral_conn_count) refers to ble_conn_state.o(i.active_flag_count) for active_flag_count
    ble_conn_state.o(i.ble_conn_state_peripheral_conn_count) refers to ble_conn_state.o(.bss) for .bss
    ble_conn_state.o(i.ble_conn_state_role) refers to ble_conn_state.o(i.ble_conn_state_valid) for ble_conn_state_valid
    ble_conn_state.o(i.ble_conn_state_role) refers to nrf_atflags.o(i.nrf_atflags_get) for nrf_atflags_get
    ble_conn_state.o(i.ble_conn_state_role) refers to ble_conn_state.o(.bss) for .bss
    ble_conn_state.o(i.ble_conn_state_status) refers to ble_conn_state.o(i.ble_conn_state_valid) for ble_conn_state_valid
    ble_conn_state.o(i.ble_conn_state_status) refers to nrf_atflags.o(i.nrf_atflags_get) for nrf_atflags_get
    ble_conn_state.o(i.ble_conn_state_status) refers to ble_conn_state.o(.bss) for .bss
    ble_conn_state.o(i.ble_conn_state_user_flag_acquire) refers to nrf_atflags.o(i.nrf_atflags_find_and_set_flag) for nrf_atflags_find_and_set_flag
    ble_conn_state.o(i.ble_conn_state_user_flag_acquire) refers to ble_conn_state.o(.bss) for .bss
    ble_conn_state.o(i.ble_conn_state_user_flag_get) refers to ble_conn_state.o(i.user_flag_is_acquired) for user_flag_is_acquired
    ble_conn_state.o(i.ble_conn_state_user_flag_get) refers to ble_conn_state.o(i.ble_conn_state_valid) for ble_conn_state_valid
    ble_conn_state.o(i.ble_conn_state_user_flag_get) refers to nrf_atflags.o(i.nrf_atflags_get) for nrf_atflags_get
    ble_conn_state.o(i.ble_conn_state_user_flag_get) refers to ble_conn_state.o(.bss) for .bss
    ble_conn_state.o(i.ble_conn_state_user_flag_set) refers to ble_conn_state.o(i.user_flag_is_acquired) for user_flag_is_acquired
    ble_conn_state.o(i.ble_conn_state_user_flag_set) refers to ble_conn_state.o(i.ble_conn_state_valid) for ble_conn_state_valid
    ble_conn_state.o(i.ble_conn_state_user_flag_set) refers to nrf_atflags.o(i.nrf_atflags_set) for nrf_atflags_set
    ble_conn_state.o(i.ble_conn_state_user_flag_set) refers to nrf_atflags.o(i.nrf_atflags_clear) for nrf_atflags_clear
    ble_conn_state.o(i.ble_conn_state_user_flag_set) refers to ble_conn_state.o(.bss) for .bss
    ble_conn_state.o(i.ble_conn_state_valid) refers to nrf_atflags.o(i.nrf_atflags_get) for nrf_atflags_get
    ble_conn_state.o(i.ble_conn_state_valid) refers to ble_conn_state.o(.bss) for .bss
    ble_conn_state.o(i.ble_evt_handler) refers to nrf_atomic.o(i.nrf_atomic_u32_and) for nrf_atomic_u32_and
    ble_conn_state.o(i.ble_evt_handler) refers to ble_conn_state.o(i.conn_handle_list_get) for conn_handle_list_get
    ble_conn_state.o(i.ble_evt_handler) refers to memcpya.o(.text) for __aeabi_memcpy4
    ble_conn_state.o(i.ble_evt_handler) refers to nrf_atflags.o(i.nrf_atflags_clear) for nrf_atflags_clear
    ble_conn_state.o(i.ble_evt_handler) refers to app_error.o(i.app_error_handler_bare) for app_error_handler_bare
    ble_conn_state.o(i.ble_evt_handler) refers to nrf_atflags.o(i.nrf_atflags_set) for nrf_atflags_set
    ble_conn_state.o(i.ble_evt_handler) refers to ble_conn_state.o(.bss) for .bss
    ble_conn_state.o(i.conn_handle_list_get) refers to nrf_atflags.o(i.nrf_atflags_get) for nrf_atflags_get
    ble_conn_state.o(i.conn_handle_list_get) refers to memcpya.o(.text) for __aeabi_memcpy4
    ble_conn_state.o(i.for_each_set_flag) refers to nrf_atflags.o(i.nrf_atflags_get) for nrf_atflags_get
    ble_conn_state.o(i.user_flag_is_acquired) refers to nrf_atflags.o(i.nrf_atflags_get) for nrf_atflags_get
    ble_conn_state.o(i.user_flag_is_acquired) refers to ble_conn_state.o(.bss) for .bss
    ble_conn_state.o(sdh_ble_observers0) refers to ble_conn_state.o(i.ble_evt_handler) for ble_evt_handler
    ble_srv_common.o(i.ble_srv_ascii_to_utf8) refers to strlen.o(.text) for strlen
    ble_srv_common.o(i.characteristic_add) refers to ble_srv_common.o(i.set_security_req) for set_security_req
    ble_srv_common.o(i.characteristic_add) refers to memseta.o(.text) for __aeabi_memclr4
    ble_srv_common.o(i.descriptor_add) refers to memseta.o(.text) for __aeabi_memclr4
    ble_srv_common.o(i.descriptor_add) refers to ble_srv_common.o(i.set_security_req) for set_security_req
    gatt_cache_manager.o(i.apply_pending_handle) refers to gatt_cache_manager.o(i.local_db_apply_in_evt) for local_db_apply_in_evt
    gatt_cache_manager.o(i.car_update_needed) refers to id_manager.o(i.im_peer_id_get_by_conn_handle) for im_peer_id_get_by_conn_handle
    gatt_cache_manager.o(i.car_update_needed) refers to peer_data_storage.o(i.pds_peer_data_read) for pds_peer_data_read
    gatt_cache_manager.o(i.car_update_needed) refers to ble_conn_state.o(i.ble_conn_state_user_flag_set) for ble_conn_state_user_flag_set
    gatt_cache_manager.o(i.car_update_needed) refers to gatt_cache_manager.o(.data) for .data
    gatt_cache_manager.o(i.car_update_pending_handle) refers to gatt_cache_manager.o(.constdata) for .constdata
    gatt_cache_manager.o(i.db_update_pending_handle) refers to nrf_atomic.o(i.nrf_atomic_u32_fetch_store) for nrf_atomic_u32_fetch_store
    gatt_cache_manager.o(i.db_update_pending_handle) refers to gatts_cache_manager.o(i.gscm_local_db_cache_update) for gscm_local_db_cache_update
    gatt_cache_manager.o(i.db_update_pending_handle) refers to gatt_cache_manager.o(i.send_unexpected_error) for send_unexpected_error
    gatt_cache_manager.o(i.db_update_pending_handle) refers to gatt_cache_manager.o(i.local_db_update) for local_db_update
    gatt_cache_manager.o(i.db_update_pending_handle) refers to memcpya.o(.text) for __aeabi_memcpy4
    gatt_cache_manager.o(i.db_update_pending_handle) refers to gatt_cache_manager.o(i.evt_send) for evt_send
    gatt_cache_manager.o(i.db_update_pending_handle) refers to gatt_cache_manager.o(.data) for .data
    gatt_cache_manager.o(i.db_update_pending_handle) refers to gatt_cache_manager.o(.constdata) for .constdata
    gatt_cache_manager.o(i.evt_send) refers to id_manager.o(i.im_peer_id_get_by_conn_handle) for im_peer_id_get_by_conn_handle
    gatt_cache_manager.o(i.evt_send) refers to gatt_cache_manager.o(.data) for .data
    gatt_cache_manager.o(i.gcm_ble_evt_handler) refers to gatt_cache_manager.o(i.local_db_apply_in_evt) for local_db_apply_in_evt
    gatt_cache_manager.o(i.gcm_ble_evt_handler) refers to memcpya.o(.text) for __aeabi_memcpy4
    gatt_cache_manager.o(i.gcm_ble_evt_handler) refers to id_manager.o(i.im_peer_id_get_by_conn_handle) for im_peer_id_get_by_conn_handle
    gatt_cache_manager.o(i.gcm_ble_evt_handler) refers to gatts_cache_manager.o(i.gscm_db_change_notification_done) for gscm_db_change_notification_done
    gatt_cache_manager.o(i.gcm_ble_evt_handler) refers to ble_conn_state.o(i.ble_conn_state_user_flag_set) for ble_conn_state_user_flag_set
    gatt_cache_manager.o(i.gcm_ble_evt_handler) refers to gatt_cache_manager.o(i.evt_send) for evt_send
    gatt_cache_manager.o(i.gcm_ble_evt_handler) refers to gatt_cache_manager.o(i.local_db_update) for local_db_update
    gatt_cache_manager.o(i.gcm_ble_evt_handler) refers to gatt_cache_manager.o(i.update_pending_flags_check) for update_pending_flags_check
    gatt_cache_manager.o(i.gcm_ble_evt_handler) refers to gatt_cache_manager.o(i.store_car_value) for store_car_value
    gatt_cache_manager.o(i.gcm_ble_evt_handler) refers to ble_conn_state.o(i.ble_conn_state_for_each_set_user_flag) for ble_conn_state_for_each_set_user_flag
    gatt_cache_manager.o(i.gcm_ble_evt_handler) refers to gatt_cache_manager.o(i.service_changed_pending_flags_check) for service_changed_pending_flags_check
    gatt_cache_manager.o(i.gcm_ble_evt_handler) refers to gatt_cache_manager.o(.data) for .data
    gatt_cache_manager.o(i.gcm_ble_evt_handler) refers to gatt_cache_manager.o(.constdata) for .constdata
    gatt_cache_manager.o(i.gcm_ble_evt_handler) refers to gatt_cache_manager.o(i.apply_pending_handle) for apply_pending_handle
    gatt_cache_manager.o(i.gcm_im_evt_handler) refers to gatt_cache_manager.o(i.local_db_apply_in_evt) for local_db_apply_in_evt
    gatt_cache_manager.o(i.gcm_im_evt_handler) refers to gatts_cache_manager.o(i.gscm_service_changed_ind_needed) for gscm_service_changed_ind_needed
    gatt_cache_manager.o(i.gcm_im_evt_handler) refers to ble_conn_state.o(i.ble_conn_state_user_flag_set) for ble_conn_state_user_flag_set
    gatt_cache_manager.o(i.gcm_im_evt_handler) refers to gatt_cache_manager.o(i.car_update_needed) for car_update_needed
    gatt_cache_manager.o(i.gcm_im_evt_handler) refers to gatt_cache_manager.o(i.update_pending_flags_check) for update_pending_flags_check
    gatt_cache_manager.o(i.gcm_im_evt_handler) refers to gatt_cache_manager.o(.data) for .data
    gatt_cache_manager.o(i.gcm_init) refers to ble_conn_state.o(i.ble_conn_state_user_flag_acquire) for ble_conn_state_user_flag_acquire
    gatt_cache_manager.o(i.gcm_init) refers to gatt_cache_manager.o(.data) for .data
    gatt_cache_manager.o(i.gcm_local_database_has_changed) refers to gatts_cache_manager.o(i.gscm_local_database_has_changed) for gscm_local_database_has_changed
    gatt_cache_manager.o(i.gcm_local_database_has_changed) refers to ble_conn_state.o(i.ble_conn_state_conn_handles) for ble_conn_state_conn_handles
    gatt_cache_manager.o(i.gcm_local_database_has_changed) refers to id_manager.o(i.im_peer_id_get_by_conn_handle) for im_peer_id_get_by_conn_handle
    gatt_cache_manager.o(i.gcm_local_database_has_changed) refers to ble_conn_state.o(i.ble_conn_state_user_flag_set) for ble_conn_state_user_flag_set
    gatt_cache_manager.o(i.gcm_local_database_has_changed) refers to gatt_cache_manager.o(i.service_changed_pending_flags_check) for service_changed_pending_flags_check
    gatt_cache_manager.o(i.gcm_local_database_has_changed) refers to gatt_cache_manager.o(.data) for .data
    gatt_cache_manager.o(i.gcm_local_db_cache_update) refers to gatt_cache_manager.o(i.local_db_update) for local_db_update
    gatt_cache_manager.o(i.gcm_local_db_cache_update) refers to gatt_cache_manager.o(i.update_pending_flags_check) for update_pending_flags_check
    gatt_cache_manager.o(i.gcm_pdb_evt_handler) refers to id_manager.o(i.im_conn_handle_get) for im_conn_handle_get
    gatt_cache_manager.o(i.gcm_pdb_evt_handler) refers to gatt_cache_manager.o(i.local_db_update) for local_db_update
    gatt_cache_manager.o(i.gcm_pdb_evt_handler) refers to gatt_cache_manager.o(i.car_update_needed) for car_update_needed
    gatt_cache_manager.o(i.gcm_pdb_evt_handler) refers to peer_database.o(i.pdb_peer_data_ptr_get) for pdb_peer_data_ptr_get
    gatt_cache_manager.o(i.gcm_pdb_evt_handler) refers to ble_conn_state.o(i.ble_conn_state_user_flag_set) for ble_conn_state_user_flag_set
    gatt_cache_manager.o(i.gcm_pdb_evt_handler) refers to gatt_cache_manager.o(i.service_changed_pending_flags_check) for service_changed_pending_flags_check
    gatt_cache_manager.o(i.gcm_pdb_evt_handler) refers to gatt_cache_manager.o(i.update_pending_flags_check) for update_pending_flags_check
    gatt_cache_manager.o(i.gcm_pdb_evt_handler) refers to gatt_cache_manager.o(.data) for .data
    gatt_cache_manager.o(i.local_db_apply_in_evt) refers to memseta.o(.text) for __aeabi_memclr4
    gatt_cache_manager.o(i.local_db_apply_in_evt) refers to gatts_cache_manager.o(i.gscm_local_db_cache_apply) for gscm_local_db_cache_apply
    gatt_cache_manager.o(i.local_db_apply_in_evt) refers to gatt_cache_manager.o(i.send_unexpected_error) for send_unexpected_error
    gatt_cache_manager.o(i.local_db_apply_in_evt) refers to ble_conn_state.o(i.ble_conn_state_user_flag_set) for ble_conn_state_user_flag_set
    gatt_cache_manager.o(i.local_db_apply_in_evt) refers to gatt_cache_manager.o(i.evt_send) for evt_send
    gatt_cache_manager.o(i.local_db_apply_in_evt) refers to gatt_cache_manager.o(.data) for .data
    gatt_cache_manager.o(i.local_db_update) refers to ble_conn_state.o(i.ble_conn_state_user_flag_set) for ble_conn_state_user_flag_set
    gatt_cache_manager.o(i.local_db_update) refers to gatt_cache_manager.o(.data) for .data
    gatt_cache_manager.o(i.sc_send_pending_handle) refers to ble_conn_state.o(i.ble_conn_state_user_flag_get) for ble_conn_state_user_flag_get
    gatt_cache_manager.o(i.sc_send_pending_handle) refers to gatt_cache_manager.o(i.service_changed_send_in_evt) for service_changed_send_in_evt
    gatt_cache_manager.o(i.sc_send_pending_handle) refers to gatt_cache_manager.o(.data) for .data
    gatt_cache_manager.o(i.send_unexpected_error) refers to memcpya.o(.text) for __aeabi_memcpy4
    gatt_cache_manager.o(i.send_unexpected_error) refers to gatt_cache_manager.o(i.evt_send) for evt_send
    gatt_cache_manager.o(i.send_unexpected_error) refers to gatt_cache_manager.o(.constdata) for .constdata
    gatt_cache_manager.o(i.service_changed_pending_flags_check) refers to ble_conn_state.o(i.ble_conn_state_for_each_set_user_flag) for ble_conn_state_for_each_set_user_flag
    gatt_cache_manager.o(i.service_changed_pending_flags_check) refers to gatt_cache_manager.o(i.sc_send_pending_handle) for sc_send_pending_handle
    gatt_cache_manager.o(i.service_changed_pending_flags_check) refers to gatt_cache_manager.o(.data) for .data
    gatt_cache_manager.o(i.service_changed_send_in_evt) refers to gatts_cache_manager.o(i.gscm_service_changed_ind_send) for gscm_service_changed_ind_send
    gatt_cache_manager.o(i.service_changed_send_in_evt) refers to gatt_cache_manager.o(i.send_unexpected_error) for send_unexpected_error
    gatt_cache_manager.o(i.service_changed_send_in_evt) refers to ble_conn_state.o(i.ble_conn_state_user_flag_set) for ble_conn_state_user_flag_set
    gatt_cache_manager.o(i.service_changed_send_in_evt) refers to memcpya.o(.text) for __aeabi_memcpy4
    gatt_cache_manager.o(i.service_changed_send_in_evt) refers to gatt_cache_manager.o(i.evt_send) for evt_send
    gatt_cache_manager.o(i.service_changed_send_in_evt) refers to id_manager.o(i.im_peer_id_get_by_conn_handle) for im_peer_id_get_by_conn_handle
    gatt_cache_manager.o(i.service_changed_send_in_evt) refers to gatts_cache_manager.o(i.gscm_db_change_notification_done) for gscm_db_change_notification_done
    gatt_cache_manager.o(i.service_changed_send_in_evt) refers to gatt_cache_manager.o(i.local_db_apply_in_evt) for local_db_apply_in_evt
    gatt_cache_manager.o(i.service_changed_send_in_evt) refers to gatt_cache_manager.o(.data) for .data
    gatt_cache_manager.o(i.service_changed_send_in_evt) refers to gatt_cache_manager.o(.constdata) for .constdata
    gatt_cache_manager.o(i.store_car_value) refers to id_manager.o(i.im_peer_id_get_by_conn_handle) for im_peer_id_get_by_conn_handle
    gatt_cache_manager.o(i.store_car_value) refers to peer_data_storage.o(i.pds_peer_data_store) for pds_peer_data_store
    gatt_cache_manager.o(i.store_car_value) refers to gatt_cache_manager.o(.constdata) for .constdata
    gatt_cache_manager.o(i.update_pending_flags_check) refers to ble_conn_state.o(i.ble_conn_state_for_each_set_user_flag) for ble_conn_state_for_each_set_user_flag
    gatt_cache_manager.o(i.update_pending_flags_check) refers to gatt_cache_manager.o(i.db_update_pending_handle) for db_update_pending_handle
    gatt_cache_manager.o(i.update_pending_flags_check) refers to gatt_cache_manager.o(.data) for .data
    gatt_cache_manager.o(i.update_pending_flags_check) refers to gatt_cache_manager.o(i.car_update_pending_handle) for car_update_pending_handle
    gatt_cache_manager.o(.data) refers to peer_manager.o(i.pm_gcm_evt_handler) for pm_gcm_evt_handler
    gatts_cache_manager.o(i.gscm_db_change_notification_done) refers to peer_data_storage.o(i.pds_peer_data_store) for pds_peer_data_store
    gatts_cache_manager.o(i.gscm_db_change_notification_done) refers to gatts_cache_manager.o(.constdata) for .constdata
    gatts_cache_manager.o(i.gscm_init) refers to gatts_cache_manager.o(.data) for .data
    gatts_cache_manager.o(i.gscm_local_database_has_changed) refers to peer_data_storage.o(i.pds_next_peer_id_get) for pds_next_peer_id_get
    gatts_cache_manager.o(i.gscm_local_database_has_changed) refers to gatts_cache_manager.o(i.service_changed_pending_set) for service_changed_pending_set
    gatts_cache_manager.o(i.gscm_local_database_has_changed) refers to gatts_cache_manager.o(.data) for .data
    gatts_cache_manager.o(i.gscm_local_db_cache_apply) refers to id_manager.o(i.im_peer_id_get_by_conn_handle) for im_peer_id_get_by_conn_handle
    gatts_cache_manager.o(i.gscm_local_db_cache_apply) refers to peer_database.o(i.pdb_peer_data_ptr_get) for pdb_peer_data_ptr_get
    gatts_cache_manager.o(i.gscm_local_db_cache_update) refers to id_manager.o(i.im_peer_id_get_by_conn_handle) for im_peer_id_get_by_conn_handle
    gatts_cache_manager.o(i.gscm_local_db_cache_update) refers to peer_database.o(i.pdb_write_buf_get) for pdb_write_buf_get
    gatts_cache_manager.o(i.gscm_local_db_cache_update) refers to peer_database.o(i.pdb_write_buf_store) for pdb_write_buf_store
    gatts_cache_manager.o(i.gscm_local_db_cache_update) refers to peer_database.o(i.pdb_write_buf_release) for pdb_write_buf_release
    gatts_cache_manager.o(i.gscm_pdb_evt_handler) refers to gatts_cache_manager.o(i.service_changed_pending_set) for service_changed_pending_set
    gatts_cache_manager.o(i.gscm_pdb_evt_handler) refers to gatts_cache_manager.o(.data) for .data
    gatts_cache_manager.o(i.gscm_service_changed_ind_needed) refers to id_manager.o(i.im_peer_id_get_by_conn_handle) for im_peer_id_get_by_conn_handle
    gatts_cache_manager.o(i.gscm_service_changed_ind_needed) refers to peer_database.o(i.pdb_peer_data_ptr_get) for pdb_peer_data_ptr_get
    gatts_cache_manager.o(i.gscm_service_changed_ind_send) refers to gatts_cache_manager.o(.data) for .data
    gatts_cache_manager.o(i.service_changed_pending_set) refers to peer_data_storage.o(i.pds_peer_data_store) for pds_peer_data_store
    gatts_cache_manager.o(i.service_changed_pending_set) refers to peer_data_storage.o(i.pds_next_peer_id_get) for pds_next_peer_id_get
    gatts_cache_manager.o(i.service_changed_pending_set) refers to gatts_cache_manager.o(.constdata) for .constdata
    gatts_cache_manager.o(i.service_changed_pending_set) refers to gatts_cache_manager.o(.data) for .data
    gatts_cache_manager.o(.constdata) refers to gatts_cache_manager.o(.constdata) for service_changed_pending
    gatts_cache_manager.o(.constdata) refers to gatts_cache_manager.o(.constdata) for service_changed_pending
    id_manager.o(i.addr_compare) refers to memcmp.o(.text) for memcmp
    id_manager.o(i.ah) refers to memseta.o(.text) for __aeabi_memclr4
    id_manager.o(i.im_address_resolve) refers to id_manager.o(i.ah) for ah
    id_manager.o(i.im_address_resolve) refers to memcmp.o(.text) for memcmp
    id_manager.o(i.im_ble_addr_get) refers to ble_conn_state.o(i.ble_conn_state_valid) for ble_conn_state_valid
    id_manager.o(i.im_ble_addr_get) refers to id_manager.o(.bss) for .bss
    id_manager.o(i.im_ble_evt_handler) refers to memcpya.o(.text) for __aeabi_memcpy4
    id_manager.o(i.im_ble_evt_handler) refers to peer_data_storage.o(i.pds_peer_data_iterate_prepare) for pds_peer_data_iterate_prepare
    id_manager.o(i.im_ble_evt_handler) refers to id_manager.o(i.addr_compare) for addr_compare
    id_manager.o(i.im_ble_evt_handler) refers to peer_data_storage.o(i.pds_peer_data_iterate) for pds_peer_data_iterate
    id_manager.o(i.im_ble_evt_handler) refers to id_manager.o(i.im_address_resolve) for im_address_resolve
    id_manager.o(i.im_ble_evt_handler) refers to id_manager.o(.bss) for .bss
    id_manager.o(i.im_ble_evt_handler) refers to id_manager.o(.constdata) for .constdata
    id_manager.o(i.im_conn_handle_get) refers to ble_conn_state.o(i.ble_conn_state_valid) for ble_conn_state_valid
    id_manager.o(i.im_conn_handle_get) refers to id_manager.o(.bss) for .bss
    id_manager.o(i.im_device_identities_list_set) refers to memseta.o(.text) for __aeabi_memclr4
    id_manager.o(i.im_device_identities_list_set) refers to peer_data_storage.o(i.pds_peer_data_read) for pds_peer_data_read
    id_manager.o(i.im_device_identities_list_set) refers to memcpya.o(.text) for __aeabi_memcpy
    id_manager.o(i.im_find_duplicate_bonding_data) refers to peer_data_storage.o(i.pds_peer_data_iterate_prepare) for pds_peer_data_iterate_prepare
    id_manager.o(i.im_find_duplicate_bonding_data) refers to id_manager.o(i.im_is_duplicate_bonding_data) for im_is_duplicate_bonding_data
    id_manager.o(i.im_find_duplicate_bonding_data) refers to peer_data_storage.o(i.pds_peer_data_iterate) for pds_peer_data_iterate
    id_manager.o(i.im_is_duplicate_bonding_data) refers to memcmp.o(.text) for memcmp
    id_manager.o(i.im_is_duplicate_bonding_data) refers to id_manager.o(i.is_valid_irk) for is_valid_irk
    id_manager.o(i.im_is_duplicate_bonding_data) refers to id_manager.o(i.addr_compare) for addr_compare
    id_manager.o(i.im_master_ids_compare) refers to id_manager.o(i.im_master_id_is_valid) for im_master_id_is_valid
    id_manager.o(i.im_master_ids_compare) refers to memcmp.o(.text) for memcmp
    id_manager.o(i.im_new_peer_id) refers to id_manager.o(.bss) for .bss
    id_manager.o(i.im_peer_free) refers to id_manager.o(i.im_conn_handle_get) for im_conn_handle_get
    id_manager.o(i.im_peer_free) refers to peer_database.o(i.pdb_peer_free) for pdb_peer_free
    id_manager.o(i.im_peer_free) refers to id_manager.o(.bss) for .bss
    id_manager.o(i.im_peer_id_get_by_conn_handle) refers to ble_conn_state.o(i.ble_conn_state_valid) for ble_conn_state_valid
    id_manager.o(i.im_peer_id_get_by_conn_handle) refers to id_manager.o(.bss) for .bss
    id_manager.o(i.im_peer_id_get_by_master_id) refers to peer_data_storage.o(i.pds_peer_data_iterate_prepare) for pds_peer_data_iterate_prepare
    id_manager.o(i.im_peer_id_get_by_master_id) refers to id_manager.o(i.im_master_ids_compare) for im_master_ids_compare
    id_manager.o(i.im_peer_id_get_by_master_id) refers to peer_data_storage.o(i.pds_peer_data_iterate) for pds_peer_data_iterate
    id_manager.o(i.im_whitelist_get) refers to id_manager.o(i.peers_id_keys_get) for peers_id_keys_get
    id_manager.o(i.im_whitelist_get) refers to id_manager.o(.data) for .data
    id_manager.o(i.im_whitelist_get) refers to id_manager.o(.bss) for .bss
    id_manager.o(i.im_whitelist_set) refers to memseta.o(.text) for __aeabi_memclr
    id_manager.o(i.im_whitelist_set) refers to memcpya.o(.text) for __aeabi_memcpy
    id_manager.o(i.im_whitelist_set) refers to id_manager.o(i.peers_id_keys_get) for peers_id_keys_get
    id_manager.o(i.im_whitelist_set) refers to id_manager.o(.bss) for .bss
    id_manager.o(i.im_whitelist_set) refers to id_manager.o(.data) for .data
    id_manager.o(i.peers_id_keys_get) refers to memseta.o(.text) for __aeabi_memclr4
    id_manager.o(i.peers_id_keys_get) refers to peer_data_storage.o(i.pds_peer_data_read) for pds_peer_data_read
    id_manager.o(i.peers_id_keys_get) refers to memcpya.o(.text) for __aeabi_memcpy
    id_manager.o(.constdata) refers to peer_manager.o(i.pm_im_evt_handler) for pm_im_evt_handler
    id_manager.o(.constdata) refers to gatt_cache_manager.o(i.gcm_im_evt_handler) for gcm_im_evt_handler
    nrf_ble_gatt.o(i.nrf_ble_gatt_data_length_set) refers to nrf_ble_gatt.o(i.data_length_update) for data_length_update
    nrf_ble_gatt.o(i.nrf_ble_gatt_init) refers to nrf_ble_gatt.o(i.link_init) for link_init
    nrf_ble_gatt.o(i.nrf_ble_gatt_on_ble_evt) refers to nrf_ble_gatt.o(i.data_length_update) for data_length_update
    nrf_ble_gatt.o(i.nrf_ble_gatt_on_ble_evt) refers to nrf_ble_gatt.o(i.link_init) for link_init
    nrf_ble_gatt.o(i.nrf_ble_gatt_on_ble_evt) refers to memcpya.o(.text) for __aeabi_memcpy4
    nrf_ble_gatt.o(i.nrf_ble_gatt_on_ble_evt) refers to nrf_ble_gatt.o(.constdata) for .constdata
    peer_data_storage.o(i.fds_evt_handler) refers to memseta.o(.text) for __aeabi_memclr4
    peer_data_storage.o(i.fds_evt_handler) refers to peer_data_storage.o(i.file_id_within_pm_range) for file_id_within_pm_range
    peer_data_storage.o(i.fds_evt_handler) refers to peer_data_storage.o(i.pds_evt_send) for pds_evt_send
    peer_data_storage.o(i.fds_evt_handler) refers to peer_data_storage.o(i.peer_data_delete_process) for peer_data_delete_process
    peer_data_storage.o(i.fds_evt_handler) refers to peer_id.o(i.peer_id_free) for peer_id_free
    peer_data_storage.o(i.fds_evt_handler) refers to peer_data_storage.o(.data) for .data
    peer_data_storage.o(i.pds_evt_send) refers to peer_data_storage.o(.constdata) for .constdata
    peer_data_storage.o(i.pds_init) refers to fds.o(i.fds_register) for fds_register
    peer_data_storage.o(i.pds_init) refers to fds.o(i.fds_init) for fds_init
    peer_data_storage.o(i.pds_init) refers to peer_id.o(i.peer_id_init) for peer_id_init
    peer_data_storage.o(i.pds_init) refers to fds.o(i.fds_record_open) for fds_record_open
    peer_data_storage.o(i.pds_init) refers to fds.o(i.fds_record_close) for fds_record_close
    peer_data_storage.o(i.pds_init) refers to peer_id.o(i.peer_id_allocate) for peer_id_allocate
    peer_data_storage.o(i.pds_init) refers to fds.o(i.fds_record_find_by_key) for fds_record_find_by_key
    peer_data_storage.o(i.pds_init) refers to peer_data_storage.o(i.fds_evt_handler) for fds_evt_handler
    peer_data_storage.o(i.pds_init) refers to peer_data_storage.o(.data) for .data
    peer_data_storage.o(i.pds_next_deleted_peer_id_get) refers to peer_id.o(i.peer_id_get_next_deleted) for peer_id_get_next_deleted
    peer_data_storage.o(i.pds_next_peer_id_get) refers to peer_id.o(i.peer_id_get_next_used) for peer_id_get_next_used
    peer_data_storage.o(i.pds_peer_count_get) refers to peer_id.o(i.peer_id_n_ids) for peer_id_n_ids
    peer_data_storage.o(i.pds_peer_data_delete) refers to peer_data_storage.o(i.peer_data_id_is_valid) for peer_data_id_is_valid
    peer_data_storage.o(i.pds_peer_data_delete) refers to peer_data_storage.o(i.peer_data_find) for peer_data_find
    peer_data_storage.o(i.pds_peer_data_delete) refers to fds.o(i.fds_record_delete) for fds_record_delete
    peer_data_storage.o(i.pds_peer_data_iterate) refers to peer_data_storage.o(i.peer_data_id_is_valid) for peer_data_id_is_valid
    peer_data_storage.o(i.pds_peer_data_iterate) refers to fds.o(i.fds_record_find_by_key) for fds_record_find_by_key
    peer_data_storage.o(i.pds_peer_data_iterate) refers to fds.o(i.fds_record_open) for fds_record_open
    peer_data_storage.o(i.pds_peer_data_iterate) refers to fds.o(i.fds_record_close) for fds_record_close
    peer_data_storage.o(i.pds_peer_data_iterate) refers to peer_data_storage.o(.data) for .data
    peer_data_storage.o(i.pds_peer_data_iterate_prepare) refers to peer_data_storage.o(.data) for .data
    peer_data_storage.o(i.pds_peer_data_read) refers to peer_data_storage.o(i.peer_data_id_is_valid) for peer_data_id_is_valid
    peer_data_storage.o(i.pds_peer_data_read) refers to peer_data_storage.o(i.peer_data_find) for peer_data_find
    peer_data_storage.o(i.pds_peer_data_read) refers to fds.o(i.fds_record_open) for fds_record_open
    peer_data_storage.o(i.pds_peer_data_read) refers to memcpya.o(.text) for __aeabi_memcpy
    peer_data_storage.o(i.pds_peer_data_read) refers to fds.o(i.fds_record_close) for fds_record_close
    peer_data_storage.o(i.pds_peer_data_store) refers to peer_data_storage.o(i.peer_data_id_is_valid) for peer_data_id_is_valid
    peer_data_storage.o(i.pds_peer_data_store) refers to peer_data_storage.o(i.peer_data_find) for peer_data_find
    peer_data_storage.o(i.pds_peer_data_store) refers to fds.o(i.fds_record_update) for fds_record_update
    peer_data_storage.o(i.pds_peer_data_store) refers to fds.o(i.fds_record_write) for fds_record_write
    peer_data_storage.o(i.pds_peer_data_store) refers to fds.o(i.fds_record_id_from_desc) for fds_record_id_from_desc
    peer_data_storage.o(i.pds_peer_id_allocate) refers to peer_id.o(i.peer_id_allocate) for peer_id_allocate
    peer_data_storage.o(i.pds_peer_id_free) refers to peer_id.o(i.peer_id_delete) for peer_id_delete
    peer_data_storage.o(i.pds_peer_id_free) refers to peer_data_storage.o(i.peer_data_delete_process) for peer_data_delete_process
    peer_data_storage.o(i.pds_peer_id_is_allocated) refers to peer_id.o(i.peer_id_is_allocated) for peer_id_is_allocated
    peer_data_storage.o(i.pds_peer_id_is_deleted) refers to peer_id.o(i.peer_id_is_deleted) for peer_id_is_deleted
    peer_data_storage.o(i.peer_data_delete_process) refers to peer_id.o(i.peer_id_free) for peer_id_free
    peer_data_storage.o(i.peer_data_delete_process) refers to peer_id.o(i.peer_id_get_next_deleted) for peer_id_get_next_deleted
    peer_data_storage.o(i.peer_data_delete_process) refers to fds.o(i.fds_record_find_in_file) for fds_record_find_in_file
    peer_data_storage.o(i.peer_data_delete_process) refers to fds.o(i.fds_file_delete) for fds_file_delete
    peer_data_storage.o(i.peer_data_delete_process) refers to memcpya.o(.text) for __aeabi_memcpy4
    peer_data_storage.o(i.peer_data_delete_process) refers to peer_data_storage.o(i.pds_evt_send) for pds_evt_send
    peer_data_storage.o(i.peer_data_delete_process) refers to peer_data_storage.o(.data) for .data
    peer_data_storage.o(i.peer_data_delete_process) refers to peer_data_storage.o(.constdata) for .constdata
    peer_data_storage.o(i.peer_data_find) refers to peer_data_storage.o(i.peer_data_id_is_valid) for peer_data_id_is_valid
    peer_data_storage.o(i.peer_data_find) refers to fds.o(i.fds_record_find) for fds_record_find
    peer_data_storage.o(.constdata) refers to peer_database.o(i.pdb_pds_evt_handler) for pdb_pds_evt_handler
    peer_database.o(i.pdb_evt_send) refers to peer_database.o(.constdata) for .constdata
    peer_database.o(i.pdb_init) refers to peer_database.o(i.write_buffer_record_invalidate) for write_buffer_record_invalidate
    peer_database.o(i.pdb_init) refers to pm_buffer.o(i.pm_buffer_init) for pm_buffer_init
    peer_database.o(i.pdb_init) refers to peer_database.o(.bss) for .bss
    peer_database.o(i.pdb_init) refers to peer_database.o(.data) for .data
    peer_database.o(i.pdb_pds_evt_handler) refers to peer_database.o(i.write_buffer_record_release) for write_buffer_record_release
    peer_database.o(i.pdb_pds_evt_handler) refers to peer_database.o(i.pdb_evt_send) for pdb_evt_send
    peer_database.o(i.pdb_pds_evt_handler) refers to peer_database.o(i.reattempt_previous_operations) for reattempt_previous_operations
    peer_database.o(i.pdb_pds_evt_handler) refers to peer_database.o(.bss) for .bss
    peer_database.o(i.pdb_pds_evt_handler) refers to peer_database.o(.data) for .data
    peer_database.o(i.pdb_peer_data_ptr_get) refers to peer_data_storage.o(i.pds_peer_data_read) for pds_peer_data_read
    peer_database.o(i.pdb_peer_free) refers to peer_database.o(i.pdb_write_buf_release) for pdb_write_buf_release
    peer_database.o(i.pdb_peer_free) refers to peer_database.o(i.write_buffer_record_find_next) for write_buffer_record_find_next
    peer_database.o(i.pdb_peer_free) refers to peer_data_storage.o(i.pds_peer_id_free) for pds_peer_id_free
    peer_database.o(i.pdb_write_buf_get) refers to peer_database.o(i.write_buffer_record_find) for write_buffer_record_find
    peer_database.o(i.pdb_write_buf_get) refers to pm_buffer.o(i.pm_buffer_block_acquire) for pm_buffer_block_acquire
    peer_database.o(i.pdb_write_buf_get) refers to pm_buffer.o(i.pm_buffer_ptr_get) for pm_buffer_ptr_get
    peer_database.o(i.pdb_write_buf_get) refers to peer_database.o(i.peer_data_point_to_buffer) for peer_data_point_to_buffer
    peer_database.o(i.pdb_write_buf_get) refers to peer_database.o(i.write_buffer_record_invalidate) for write_buffer_record_invalidate
    peer_database.o(i.pdb_write_buf_get) refers to peer_database.o(.bss) for .bss
    peer_database.o(i.pdb_write_buf_release) refers to peer_database.o(i.write_buffer_record_find) for write_buffer_record_find
    peer_database.o(i.pdb_write_buf_release) refers to peer_database.o(i.write_buffer_record_release) for write_buffer_record_release
    peer_database.o(i.pdb_write_buf_store) refers to peer_data_storage.o(i.pds_peer_id_is_allocated) for pds_peer_id_is_allocated
    peer_database.o(i.pdb_write_buf_store) refers to peer_database.o(i.write_buffer_record_find) for write_buffer_record_find
    peer_database.o(i.pdb_write_buf_store) refers to peer_database.o(i.write_buf_store) for write_buf_store
    peer_database.o(i.reattempt_previous_operations) refers to peer_database.o(i.write_buf_store) for write_buf_store
    peer_database.o(i.reattempt_previous_operations) refers to peer_database.o(i.pdb_evt_send) for pdb_evt_send
    peer_database.o(i.reattempt_previous_operations) refers to peer_database.o(.data) for .data
    peer_database.o(i.reattempt_previous_operations) refers to peer_database.o(.bss) for .bss
    peer_database.o(i.write_buf_store) refers to pm_buffer.o(i.pm_buffer_ptr_get) for pm_buffer_ptr_get
    peer_database.o(i.write_buf_store) refers to peer_database.o(i.peer_data_point_to_buffer) for peer_data_point_to_buffer
    peer_database.o(i.write_buf_store) refers to peer_data_storage.o(i.pds_peer_data_store) for pds_peer_data_store
    peer_database.o(i.write_buf_store) refers to peer_database.o(.bss) for .bss
    peer_database.o(i.write_buf_store) refers to peer_database.o(.data) for .data
    peer_database.o(i.write_buffer_record_find) refers to peer_database.o(i.write_buffer_record_find_next) for write_buffer_record_find_next
    peer_database.o(i.write_buffer_record_find_next) refers to peer_database.o(.bss) for .bss
    peer_database.o(i.write_buffer_record_release) refers to pm_buffer.o(i.pm_buffer_release) for pm_buffer_release
    peer_database.o(i.write_buffer_record_release) refers to peer_database.o(i.write_buffer_record_invalidate) for write_buffer_record_invalidate
    peer_database.o(i.write_buffer_record_release) refers to peer_database.o(.bss) for .bss
    peer_database.o(.constdata) refers to peer_manager.o(i.pm_pdb_evt_handler) for pm_pdb_evt_handler
    peer_database.o(.constdata) refers to security_manager.o(i.sm_pdb_evt_handler) for sm_pdb_evt_handler
    peer_database.o(.constdata) refers to gatts_cache_manager.o(i.gscm_pdb_evt_handler) for gscm_pdb_evt_handler
    peer_database.o(.constdata) refers to gatt_cache_manager.o(i.gcm_pdb_evt_handler) for gcm_pdb_evt_handler
    peer_id.o(i.claim) refers to nrf_atflags.o(i.nrf_atflags_find_and_set_flag) for nrf_atflags_find_and_set_flag
    peer_id.o(i.claim) refers to nrf_atflags.o(i.nrf_atflags_fetch_set) for nrf_atflags_fetch_set
    peer_id.o(i.next_id_get) refers to nrf_atflags.o(i.nrf_atflags_get) for nrf_atflags_get
    peer_id.o(i.peer_id_allocate) refers to peer_id.o(i.claim) for claim
    peer_id.o(i.peer_id_allocate) refers to peer_id.o(.bss) for .bss
    peer_id.o(i.peer_id_delete) refers to peer_id.o(i.claim) for claim
    peer_id.o(i.peer_id_delete) refers to peer_id.o(.bss) for .bss
    peer_id.o(i.peer_id_free) refers to peer_id.o(i.release) for release
    peer_id.o(i.peer_id_free) refers to peer_id.o(.bss) for .bss
    peer_id.o(i.peer_id_get_next_deleted) refers to peer_id.o(i.next_id_get) for next_id_get
    peer_id.o(i.peer_id_get_next_deleted) refers to peer_id.o(.bss) for .bss
    peer_id.o(i.peer_id_get_next_used) refers to peer_id.o(i.next_id_get) for next_id_get
    peer_id.o(i.peer_id_get_next_used) refers to peer_id.o(i.peer_id_is_deleted) for peer_id_is_deleted
    peer_id.o(i.peer_id_get_next_used) refers to peer_id.o(.bss) for .bss
    peer_id.o(i.peer_id_init) refers to memseta.o(.text) for __aeabi_memclr4
    peer_id.o(i.peer_id_init) refers to peer_id.o(.bss) for .bss
    peer_id.o(i.peer_id_is_allocated) refers to nrf_atflags.o(i.nrf_atflags_get) for nrf_atflags_get
    peer_id.o(i.peer_id_is_allocated) refers to peer_id.o(.bss) for .bss
    peer_id.o(i.peer_id_is_deleted) refers to nrf_atflags.o(i.nrf_atflags_get) for nrf_atflags_get
    peer_id.o(i.peer_id_is_deleted) refers to peer_id.o(.bss) for .bss
    peer_id.o(i.peer_id_n_ids) refers to nrf_atflags.o(i.nrf_atflags_get) for nrf_atflags_get
    peer_id.o(i.peer_id_n_ids) refers to peer_id.o(.bss) for .bss
    peer_id.o(i.release) refers to nrf_atflags.o(i.nrf_atflags_clear) for nrf_atflags_clear
    peer_manager.o(i.ble_evt_handler) refers to id_manager.o(i.im_ble_evt_handler) for im_ble_evt_handler
    peer_manager.o(i.ble_evt_handler) refers to security_manager.o(i.sm_ble_evt_handler) for sm_ble_evt_handler
    peer_manager.o(i.ble_evt_handler) refers to gatt_cache_manager.o(i.gcm_ble_evt_handler) for gcm_ble_evt_handler
    peer_manager.o(i.ble_evt_handler) refers to peer_manager.o(.data) for .data
    peer_manager.o(i.evt_send) refers to peer_manager.o(.bss) for .bss
    peer_manager.o(i.evt_send) refers to peer_manager.o(.data) for .data
    peer_manager.o(i.pm_address_resolve) refers to id_manager.o(i.im_address_resolve) for im_address_resolve
    peer_manager.o(i.pm_address_resolve) refers to peer_manager.o(.data) for .data
    peer_manager.o(i.pm_conn_handle_get) refers to id_manager.o(i.im_conn_handle_get) for im_conn_handle_get
    peer_manager.o(i.pm_conn_handle_get) refers to peer_manager.o(.data) for .data
    peer_manager.o(i.pm_conn_sec_config_reply) refers to security_manager.o(i.sm_conn_sec_config_reply) for sm_conn_sec_config_reply
    peer_manager.o(i.pm_conn_sec_params_reply) refers to security_manager.o(i.sm_sec_params_reply) for sm_sec_params_reply
    peer_manager.o(i.pm_conn_sec_params_reply) refers to peer_manager.o(.data) for .data
    peer_manager.o(i.pm_conn_sec_status_get) refers to ble_conn_state.o(i.ble_conn_state_status) for ble_conn_state_status
    peer_manager.o(i.pm_conn_sec_status_get) refers to id_manager.o(i.im_peer_id_get_by_conn_handle) for im_peer_id_get_by_conn_handle
    peer_manager.o(i.pm_conn_sec_status_get) refers to ble_conn_state.o(i.ble_conn_state_encrypted) for ble_conn_state_encrypted
    peer_manager.o(i.pm_conn_sec_status_get) refers to ble_conn_state.o(i.ble_conn_state_mitm_protected) for ble_conn_state_mitm_protected
    peer_manager.o(i.pm_conn_sec_status_get) refers to peer_manager.o(.data) for .data
    peer_manager.o(i.pm_conn_secure) refers to security_manager.o(i.sm_link_secure) for sm_link_secure
    peer_manager.o(i.pm_conn_secure) refers to peer_manager.o(.data) for .data
    peer_manager.o(i.pm_device_identities_list_set) refers to id_manager.o(i.im_device_identities_list_set) for im_device_identities_list_set
    peer_manager.o(i.pm_device_identities_list_set) refers to peer_manager.o(.data) for .data
    peer_manager.o(i.pm_gcm_evt_handler) refers to peer_manager.o(i.evt_send) for evt_send
    peer_manager.o(i.pm_id_addr_get) refers to id_manager.o(i.im_id_addr_get) for im_id_addr_get
    peer_manager.o(i.pm_id_addr_get) refers to peer_manager.o(.data) for .data
    peer_manager.o(i.pm_id_addr_set) refers to id_manager.o(i.im_id_addr_set) for im_id_addr_set
    peer_manager.o(i.pm_id_addr_set) refers to peer_manager.o(.data) for .data
    peer_manager.o(i.pm_im_evt_handler) refers to peer_manager.o(i.evt_send) for evt_send
    peer_manager.o(i.pm_init) refers to peer_data_storage.o(i.pds_init) for pds_init
    peer_manager.o(i.pm_init) refers to peer_database.o(i.pdb_init) for pdb_init
    peer_manager.o(i.pm_init) refers to security_manager.o(i.sm_init) for sm_init
    peer_manager.o(i.pm_init) refers to security_dispatcher.o(i.smd_init) for smd_init
    peer_manager.o(i.pm_init) refers to gatt_cache_manager.o(i.gcm_init) for gcm_init
    peer_manager.o(i.pm_init) refers to gatts_cache_manager.o(i.gscm_init) for gscm_init
    peer_manager.o(i.pm_init) refers to peer_manager.o(.data) for .data
    peer_manager.o(i.pm_lesc_public_key_set) refers to security_manager.o(i.sm_lesc_public_key_set) for sm_lesc_public_key_set
    peer_manager.o(i.pm_lesc_public_key_set) refers to peer_manager.o(.data) for .data
    peer_manager.o(i.pm_local_database_has_changed) refers to gatt_cache_manager.o(i.gcm_local_database_has_changed) for gcm_local_database_has_changed
    peer_manager.o(i.pm_local_database_has_changed) refers to peer_manager.o(.data) for .data
    peer_manager.o(i.pm_next_peer_id_get) refers to peer_data_storage.o(i.pds_next_peer_id_get) for pds_next_peer_id_get
    peer_manager.o(i.pm_next_peer_id_get) refers to peer_data_storage.o(i.pds_peer_id_is_deleted) for pds_peer_id_is_deleted
    peer_manager.o(i.pm_next_peer_id_get) refers to peer_manager.o(.data) for .data
    peer_manager.o(i.pm_pdb_evt_handler) refers to id_manager.o(i.im_conn_handle_get) for im_conn_handle_get
    peer_manager.o(i.pm_pdb_evt_handler) refers to peer_manager.o(i.rank_vars_update) for rank_vars_update
    peer_manager.o(i.pm_pdb_evt_handler) refers to peer_data_storage.o(i.pds_next_peer_id_get) for pds_next_peer_id_get
    peer_manager.o(i.pm_pdb_evt_handler) refers to peer_data_storage.o(i.pds_next_deleted_peer_id_get) for pds_next_deleted_peer_id_get
    peer_manager.o(i.pm_pdb_evt_handler) refers to memseta.o(.text) for __aeabi_memclr4
    peer_manager.o(i.pm_pdb_evt_handler) refers to peer_manager.o(i.evt_send) for evt_send
    peer_manager.o(i.pm_pdb_evt_handler) refers to peer_manager.o(.data) for .data
    peer_manager.o(i.pm_peer_count) refers to peer_data_storage.o(i.pds_peer_count_get) for pds_peer_count_get
    peer_manager.o(i.pm_peer_count) refers to peer_manager.o(.data) for .data
    peer_manager.o(i.pm_peer_data_app_data_load) refers to peer_manager.o(i.pm_peer_data_load) for pm_peer_data_load
    peer_manager.o(i.pm_peer_data_app_data_store) refers to peer_manager.o(i.pm_peer_data_store) for pm_peer_data_store
    peer_manager.o(i.pm_peer_data_bonding_load) refers to peer_manager.o(i.pm_peer_data_load) for pm_peer_data_load
    peer_manager.o(i.pm_peer_data_bonding_store) refers to peer_manager.o(i.pm_peer_data_store) for pm_peer_data_store
    peer_manager.o(i.pm_peer_data_delete) refers to peer_data_storage.o(i.pds_peer_data_delete) for pds_peer_data_delete
    peer_manager.o(i.pm_peer_data_delete) refers to peer_manager.o(.data) for .data
    peer_manager.o(i.pm_peer_data_load) refers to peer_data_storage.o(i.pds_peer_data_read) for pds_peer_data_read
    peer_manager.o(i.pm_peer_data_load) refers to peer_manager.o(.data) for .data
    peer_manager.o(i.pm_peer_data_remote_db_load) refers to peer_manager.o(i.pm_peer_data_load) for pm_peer_data_load
    peer_manager.o(i.pm_peer_data_remote_db_store) refers to peer_manager.o(i.pm_peer_data_store) for pm_peer_data_store
    peer_manager.o(i.pm_peer_data_store) refers to id_manager.o(i.im_find_duplicate_bonding_data) for im_find_duplicate_bonding_data
    peer_manager.o(i.pm_peer_data_store) refers to peer_data_storage.o(i.pds_peer_data_store) for pds_peer_data_store
    peer_manager.o(i.pm_peer_data_store) refers to peer_manager.o(.data) for .data
    peer_manager.o(i.pm_peer_delete) refers to id_manager.o(i.im_peer_free) for im_peer_free
    peer_manager.o(i.pm_peer_delete) refers to peer_manager.o(.data) for .data
    peer_manager.o(i.pm_peer_id_get) refers to id_manager.o(i.im_peer_id_get_by_conn_handle) for im_peer_id_get_by_conn_handle
    peer_manager.o(i.pm_peer_id_get) refers to peer_manager.o(.data) for .data
    peer_manager.o(i.pm_peer_id_list) refers to peer_manager.o(i.pm_next_peer_id_get) for pm_next_peer_id_get
    peer_manager.o(i.pm_peer_id_list) refers to peer_data_storage.o(i.pds_peer_data_read) for pds_peer_data_read
    peer_manager.o(i.pm_peer_id_list) refers to peer_manager.o(.data) for .data
    peer_manager.o(i.pm_peer_new) refers to peer_data_storage.o(i.pds_peer_data_iterate_prepare) for pds_peer_data_iterate_prepare
    peer_manager.o(i.pm_peer_new) refers to id_manager.o(i.im_is_duplicate_bonding_data) for im_is_duplicate_bonding_data
    peer_manager.o(i.pm_peer_new) refers to peer_data_storage.o(i.pds_peer_data_iterate) for pds_peer_data_iterate
    peer_manager.o(i.pm_peer_new) refers to peer_data_storage.o(i.pds_peer_id_allocate) for pds_peer_id_allocate
    peer_manager.o(i.pm_peer_new) refers to peer_data_storage.o(i.pds_peer_data_store) for pds_peer_data_store
    peer_manager.o(i.pm_peer_new) refers to id_manager.o(i.im_peer_free) for im_peer_free
    peer_manager.o(i.pm_peer_new) refers to peer_manager.o(.data) for .data
    peer_manager.o(i.pm_peer_rank_highest) refers to peer_manager.o(i.rank_vars_update) for rank_vars_update
    peer_manager.o(i.pm_peer_rank_highest) refers to memseta.o(.text) for __aeabi_memclr4
    peer_manager.o(i.pm_peer_rank_highest) refers to id_manager.o(i.im_conn_handle_get) for im_conn_handle_get
    peer_manager.o(i.pm_peer_rank_highest) refers to peer_manager.o(i.evt_send) for evt_send
    peer_manager.o(i.pm_peer_rank_highest) refers to peer_data_storage.o(i.pds_peer_data_store) for pds_peer_data_store
    peer_manager.o(i.pm_peer_rank_highest) refers to peer_manager.o(.data) for .data
    peer_manager.o(i.pm_peer_rank_highest) refers to peer_manager.o(.constdata) for .constdata
    peer_manager.o(i.pm_peer_ranks_get) refers to peer_data_storage.o(i.pds_next_peer_id_get) for pds_next_peer_id_get
    peer_manager.o(i.pm_peer_ranks_get) refers to peer_data_storage.o(i.pds_peer_data_read) for pds_peer_data_read
    peer_manager.o(i.pm_peer_ranks_get) refers to peer_manager.o(.data) for .data
    peer_manager.o(i.pm_peers_delete) refers to peer_data_storage.o(i.pds_next_peer_id_get) for pds_next_peer_id_get
    peer_manager.o(i.pm_peers_delete) refers to memseta.o(.text) for __aeabi_memclr4
    peer_manager.o(i.pm_peers_delete) refers to peer_manager.o(i.evt_send) for evt_send
    peer_manager.o(i.pm_peers_delete) refers to peer_manager.o(i.pm_peer_delete) for pm_peer_delete
    peer_manager.o(i.pm_peers_delete) refers to peer_manager.o(.data) for .data
    peer_manager.o(i.pm_privacy_get) refers to id_manager.o(i.im_privacy_get) for im_privacy_get
    peer_manager.o(i.pm_privacy_get) refers to peer_manager.o(.data) for .data
    peer_manager.o(i.pm_privacy_set) refers to id_manager.o(i.im_privacy_set) for im_privacy_set
    peer_manager.o(i.pm_privacy_set) refers to peer_manager.o(.data) for .data
    peer_manager.o(i.pm_register) refers to peer_manager.o(.data) for .data
    peer_manager.o(i.pm_register) refers to peer_manager.o(.bss) for .bss
    peer_manager.o(i.pm_sec_params_set) refers to security_manager.o(i.sm_sec_params_set) for sm_sec_params_set
    peer_manager.o(i.pm_sec_params_set) refers to peer_manager.o(.data) for .data
    peer_manager.o(i.pm_sm_evt_handler) refers to peer_manager.o(i.evt_send) for evt_send
    peer_manager.o(i.pm_whitelist_get) refers to id_manager.o(i.im_whitelist_get) for im_whitelist_get
    peer_manager.o(i.pm_whitelist_get) refers to peer_manager.o(.data) for .data
    peer_manager.o(i.pm_whitelist_set) refers to id_manager.o(i.im_whitelist_set) for im_whitelist_set
    peer_manager.o(i.pm_whitelist_set) refers to peer_manager.o(.data) for .data
    peer_manager.o(i.rank_vars_update) refers to peer_manager.o(i.pm_peer_ranks_get) for pm_peer_ranks_get
    peer_manager.o(i.rank_vars_update) refers to peer_manager.o(.data) for .data
    peer_manager.o(.constdata) refers to peer_manager.o(.data) for m_current_highest_peer_rank
    peer_manager.o(sdh_ble_observers1) refers to peer_manager.o(i.ble_evt_handler) for ble_evt_handler
    pm_buffer.o(i.mutex_lock_status_get) refers to nrf_atflags.o(i.nrf_atflags_get) for nrf_atflags_get
    pm_buffer.o(i.pm_buffer_block_acquire) refers to nrf_atflags.o(i.nrf_atflags_fetch_set) for nrf_atflags_fetch_set
    pm_buffer.o(i.pm_buffer_block_acquire) refers to pm_buffer.o(i.pm_buffer_release) for pm_buffer_release
    pm_buffer.o(i.pm_buffer_ptr_get) refers to pm_buffer.o(i.mutex_lock_status_get) for mutex_lock_status_get
    pm_buffer.o(i.pm_buffer_release) refers to pm_buffer.o(i.mutex_lock_status_get) for mutex_lock_status_get
    pm_buffer.o(i.pm_buffer_release) refers to nrf_atflags.o(i.nrf_atflags_clear) for nrf_atflags_clear
    security_dispatcher.o(i.allow_repairing) refers to ble_conn_state.o(i.ble_conn_state_user_flag_get) for ble_conn_state_user_flag_get
    security_dispatcher.o(i.allow_repairing) refers to security_dispatcher.o(.data) for .data
    security_dispatcher.o(i.auth_status_success_process) refers to ble_conn_state.o(i.ble_conn_state_user_flag_set) for ble_conn_state_user_flag_set
    security_dispatcher.o(i.auth_status_success_process) refers to peer_database.o(i.pdb_write_buf_get) for pdb_write_buf_get
    security_dispatcher.o(i.auth_status_success_process) refers to security_dispatcher.o(i.send_unexpected_error) for send_unexpected_error
    security_dispatcher.o(i.auth_status_success_process) refers to id_manager.o(i.im_peer_id_get_by_conn_handle) for im_peer_id_get_by_conn_handle
    security_dispatcher.o(i.auth_status_success_process) refers to id_manager.o(i.im_find_duplicate_bonding_data) for im_find_duplicate_bonding_data
    security_dispatcher.o(i.auth_status_success_process) refers to id_manager.o(i.im_new_peer_id) for im_new_peer_id
    security_dispatcher.o(i.auth_status_success_process) refers to security_dispatcher.o(i.allow_repairing) for allow_repairing
    security_dispatcher.o(i.auth_status_success_process) refers to security_dispatcher.o(i.send_config_req) for send_config_req
    security_dispatcher.o(i.auth_status_success_process) refers to peer_data_storage.o(i.pds_peer_id_allocate) for pds_peer_id_allocate
    security_dispatcher.o(i.auth_status_success_process) refers to peer_database.o(i.pdb_write_buf_store) for pdb_write_buf_store
    security_dispatcher.o(i.auth_status_success_process) refers to security_dispatcher.o(i.pairing_success_evt_send) for pairing_success_evt_send
    security_dispatcher.o(i.auth_status_success_process) refers to id_manager.o(i.im_peer_free) for im_peer_free
    security_dispatcher.o(i.auth_status_success_process) refers to memcpya.o(.text) for __aeabi_memcpy4
    security_dispatcher.o(i.auth_status_success_process) refers to security_dispatcher.o(i.evt_send) for evt_send
    security_dispatcher.o(i.auth_status_success_process) refers to security_dispatcher.o(.data) for .data
    security_dispatcher.o(i.auth_status_success_process) refers to security_dispatcher.o(.constdata) for .constdata
    security_dispatcher.o(i.conn_sec_failure) refers to memcpya.o(.text) for __aeabi_memcpy4
    security_dispatcher.o(i.conn_sec_failure) refers to ble_conn_state.o(i.ble_conn_state_user_flag_set) for ble_conn_state_user_flag_set
    security_dispatcher.o(i.conn_sec_failure) refers to security_dispatcher.o(i.evt_send) for evt_send
    security_dispatcher.o(i.conn_sec_failure) refers to security_dispatcher.o(.constdata) for .constdata
    security_dispatcher.o(i.conn_sec_failure) refers to security_dispatcher.o(.data) for .data
    security_dispatcher.o(i.encryption_failure) refers to security_dispatcher.o(i.conn_sec_failure) for conn_sec_failure
    security_dispatcher.o(i.evt_send) refers to id_manager.o(i.im_peer_id_get_by_conn_handle) for im_peer_id_get_by_conn_handle
    security_dispatcher.o(i.evt_send) refers to security_dispatcher.o(.constdata) for .constdata
    security_dispatcher.o(i.flag_id_init) refers to ble_conn_state.o(i.ble_conn_state_user_flag_acquire) for ble_conn_state_user_flag_acquire
    security_dispatcher.o(i.link_secure_failure) refers to ble_conn_state.o(i.ble_conn_state_user_flag_get) for ble_conn_state_user_flag_get
    security_dispatcher.o(i.link_secure_failure) refers to security_dispatcher.o(i.pairing) for pairing
    security_dispatcher.o(i.link_secure_failure) refers to peer_database.o(i.pdb_write_buf_release) for pdb_write_buf_release
    security_dispatcher.o(i.link_secure_failure) refers to security_dispatcher.o(i.send_unexpected_error) for send_unexpected_error
    security_dispatcher.o(i.link_secure_failure) refers to security_dispatcher.o(i.conn_sec_failure) for conn_sec_failure
    security_dispatcher.o(i.link_secure_failure) refers to security_dispatcher.o(i.encryption_failure) for encryption_failure
    security_dispatcher.o(i.link_secure_failure) refers to security_dispatcher.o(.data) for .data
    security_dispatcher.o(i.pairing) refers to ble_conn_state.o(i.ble_conn_state_user_flag_get) for ble_conn_state_user_flag_get
    security_dispatcher.o(i.pairing) refers to security_dispatcher.o(.data) for .data
    security_dispatcher.o(i.pairing_success_evt_send) refers to security_dispatcher.o(i.evt_send) for evt_send
    security_dispatcher.o(i.sec_info_request_process) refers to id_manager.o(i.im_peer_id_get_by_master_id) for im_peer_id_get_by_master_id
    security_dispatcher.o(i.sec_info_request_process) refers to id_manager.o(i.im_peer_id_get_by_conn_handle) for im_peer_id_get_by_conn_handle
    security_dispatcher.o(i.sec_info_request_process) refers to id_manager.o(i.im_new_peer_id) for im_new_peer_id
    security_dispatcher.o(i.sec_info_request_process) refers to security_dispatcher.o(i.sec_proc_start) for sec_proc_start
    security_dispatcher.o(i.sec_info_request_process) refers to peer_database.o(i.pdb_peer_data_ptr_get) for pdb_peer_data_ptr_get
    security_dispatcher.o(i.sec_info_request_process) refers to id_manager.o(i.im_master_ids_compare) for im_master_ids_compare
    security_dispatcher.o(i.sec_info_request_process) refers to security_dispatcher.o(i.send_unexpected_error) for send_unexpected_error
    security_dispatcher.o(i.sec_info_request_process) refers to security_dispatcher.o(i.encryption_failure) for encryption_failure
    security_dispatcher.o(i.sec_keyset_fill) refers to peer_database.o(i.pdb_write_buf_get) for pdb_write_buf_get
    security_dispatcher.o(i.sec_keyset_fill) refers to memseta.o(.text) for __aeabi_memclr
    security_dispatcher.o(i.sec_keyset_fill) refers to id_manager.o(i.im_ble_addr_get) for im_ble_addr_get
    security_dispatcher.o(i.sec_keyset_fill) refers to security_dispatcher.o(.bss) for .bss
    security_dispatcher.o(i.sec_proc_start) refers to ble_conn_state.o(i.ble_conn_state_user_flag_set) for ble_conn_state_user_flag_set
    security_dispatcher.o(i.sec_proc_start) refers to memcpya.o(.text) for __aeabi_memcpy4
    security_dispatcher.o(i.sec_proc_start) refers to security_dispatcher.o(i.evt_send) for evt_send
    security_dispatcher.o(i.sec_proc_start) refers to security_dispatcher.o(.data) for .data
    security_dispatcher.o(i.sec_proc_start) refers to security_dispatcher.o(.constdata) for .constdata
    security_dispatcher.o(i.send_config_req) refers to memseta.o(.text) for __aeabi_memclr4
    security_dispatcher.o(i.send_config_req) refers to security_dispatcher.o(i.evt_send) for evt_send
    security_dispatcher.o(i.send_unexpected_error) refers to memcpya.o(.text) for __aeabi_memcpy4
    security_dispatcher.o(i.send_unexpected_error) refers to security_dispatcher.o(i.evt_send) for evt_send
    security_dispatcher.o(i.send_unexpected_error) refers to security_dispatcher.o(.constdata) for .constdata
    security_dispatcher.o(i.smd_ble_evt_handler) refers to ble_conn_state.o(i.ble_conn_state_role) for ble_conn_state_role
    security_dispatcher.o(i.smd_ble_evt_handler) refers to security_dispatcher.o(i.pairing) for pairing
    security_dispatcher.o(i.smd_ble_evt_handler) refers to ble_conn_state.o(i.ble_conn_state_encrypted) for ble_conn_state_encrypted
    security_dispatcher.o(i.smd_ble_evt_handler) refers to ble_conn_state.o(i.ble_conn_state_user_flag_set) for ble_conn_state_user_flag_set
    security_dispatcher.o(i.smd_ble_evt_handler) refers to security_dispatcher.o(i.evt_send) for evt_send
    security_dispatcher.o(i.smd_ble_evt_handler) refers to security_dispatcher.o(i.sec_proc_start) for sec_proc_start
    security_dispatcher.o(i.smd_ble_evt_handler) refers to memcpya.o(.text) for __aeabi_memcpy4
    security_dispatcher.o(i.smd_ble_evt_handler) refers to security_dispatcher.o(i.sec_info_request_process) for sec_info_request_process
    security_dispatcher.o(i.smd_ble_evt_handler) refers to security_dispatcher.o(i.link_secure_failure) for link_secure_failure
    security_dispatcher.o(i.smd_ble_evt_handler) refers to security_dispatcher.o(i.auth_status_success_process) for auth_status_success_process
    security_dispatcher.o(i.smd_ble_evt_handler) refers to security_dispatcher.o(i.encryption_failure) for encryption_failure
    security_dispatcher.o(i.smd_ble_evt_handler) refers to security_dispatcher.o(.data) for .data
    security_dispatcher.o(i.smd_ble_evt_handler) refers to security_dispatcher.o(.constdata) for .constdata
    security_dispatcher.o(i.smd_conn_sec_config_reply) refers to ble_conn_state.o(i.ble_conn_state_user_flag_set) for ble_conn_state_user_flag_set
    security_dispatcher.o(i.smd_conn_sec_config_reply) refers to security_dispatcher.o(.data) for .data
    security_dispatcher.o(i.smd_init) refers to security_dispatcher.o(i.flag_id_init) for flag_id_init
    security_dispatcher.o(i.smd_init) refers to security_dispatcher.o(.data) for .data
    security_dispatcher.o(i.smd_link_secure) refers to ble_conn_state.o(i.ble_conn_state_role) for ble_conn_state_role
    security_dispatcher.o(i.smd_params_reply) refers to ble_conn_state.o(i.ble_conn_state_role) for ble_conn_state_role
    security_dispatcher.o(i.smd_params_reply) refers to memseta.o(.text) for __aeabi_memclr4
    security_dispatcher.o(i.smd_params_reply) refers to ble_conn_state.o(i.ble_conn_state_user_flag_set) for ble_conn_state_user_flag_set
    security_dispatcher.o(i.smd_params_reply) refers to id_manager.o(i.im_peer_id_get_by_conn_handle) for im_peer_id_get_by_conn_handle
    security_dispatcher.o(i.smd_params_reply) refers to security_dispatcher.o(i.allow_repairing) for allow_repairing
    security_dispatcher.o(i.smd_params_reply) refers to security_dispatcher.o(i.send_config_req) for send_config_req
    security_dispatcher.o(i.smd_params_reply) refers to security_dispatcher.o(i.sec_keyset_fill) for sec_keyset_fill
    security_dispatcher.o(i.smd_params_reply) refers to security_dispatcher.o(.data) for .data
    security_dispatcher.o(i.smd_params_reply) refers to security_dispatcher.o(.bss) for .bss
    security_dispatcher.o(.constdata) refers to security_manager.o(i.sm_smd_evt_handler) for sm_smd_evt_handler
    security_manager.o(i.events_send_from_err_code) refers to memseta.o(.text) for __aeabi_memclr4
    security_manager.o(i.events_send_from_err_code) refers to id_manager.o(i.im_peer_id_get_by_conn_handle) for im_peer_id_get_by_conn_handle
    security_manager.o(i.events_send_from_err_code) refers to security_manager.o(i.evt_send) for evt_send
    security_manager.o(i.evt_send) refers to security_manager.o(.constdata) for .constdata
    security_manager.o(i.flag_id_init) refers to ble_conn_state.o(i.ble_conn_state_user_flag_acquire) for ble_conn_state_user_flag_acquire
    security_manager.o(i.flags_set_from_err_code) refers to ble_conn_state.o(i.ble_conn_state_user_flag_set) for ble_conn_state_user_flag_set
    security_manager.o(i.flags_set_from_err_code) refers to security_manager.o(.data) for .data
    security_manager.o(i.link_secure) refers to security_manager.o(i.new_context_get) for new_context_get
    security_manager.o(i.link_secure) refers to security_manager.o(i.params_req_send) for params_req_send
    security_manager.o(i.link_secure) refers to security_dispatcher.o(i.smd_link_secure) for smd_link_secure
    security_manager.o(i.link_secure) refers to security_manager.o(i.flags_set_from_err_code) for flags_set_from_err_code
    security_manager.o(i.link_secure) refers to security_manager.o(i.events_send_from_err_code) for events_send_from_err_code
    security_manager.o(i.link_secure) refers to ble_conn_state.o(i.ble_conn_state_user_flag_set) for ble_conn_state_user_flag_set
    security_manager.o(i.link_secure) refers to security_manager.o(.data) for .data
    security_manager.o(i.link_secure_pending_handle) refers to ble_conn_state.o(i.ble_conn_state_user_flag_get) for ble_conn_state_user_flag_get
    security_manager.o(i.link_secure_pending_handle) refers to security_manager.o(i.link_secure) for link_secure
    security_manager.o(i.link_secure_pending_handle) refers to security_manager.o(.data) for .data
    security_manager.o(i.new_context_get) refers to security_manager.o(.data) for .data
    security_manager.o(i.params_reply_pending_handle) refers to security_manager.o(i.smd_params_reply_perform) for smd_params_reply_perform
    security_manager.o(i.params_req_send) refers to id_manager.o(i.im_peer_id_get_by_conn_handle) for im_peer_id_get_by_conn_handle
    security_manager.o(i.params_req_send) refers to security_manager.o(i.evt_send) for evt_send
    security_manager.o(i.sm_ble_evt_handler) refers to security_dispatcher.o(i.smd_ble_evt_handler) for smd_ble_evt_handler
    security_manager.o(i.sm_ble_evt_handler) refers to ble_conn_state.o(i.ble_conn_state_for_each_set_user_flag) for ble_conn_state_for_each_set_user_flag
    security_manager.o(i.sm_ble_evt_handler) refers to security_manager.o(i.params_reply_pending_handle) for params_reply_pending_handle
    security_manager.o(i.sm_ble_evt_handler) refers to security_manager.o(.data) for .data
    security_manager.o(i.sm_ble_evt_handler) refers to security_manager.o(i.link_secure_pending_handle) for link_secure_pending_handle
    security_manager.o(i.sm_conn_sec_config_reply) refers to security_dispatcher.o(i.smd_conn_sec_config_reply) for smd_conn_sec_config_reply
    security_manager.o(i.sm_init) refers to security_manager.o(i.flag_id_init) for flag_id_init
    security_manager.o(i.sm_init) refers to security_manager.o(.data) for .data
    security_manager.o(i.sm_lesc_public_key_set) refers to security_manager.o(.data) for .data
    security_manager.o(i.sm_link_secure) refers to security_manager.o(i.link_secure) for link_secure
    security_manager.o(i.sm_pdb_evt_handler) refers to ble_conn_state.o(i.ble_conn_state_for_each_set_user_flag) for ble_conn_state_for_each_set_user_flag
    security_manager.o(i.sm_pdb_evt_handler) refers to security_manager.o(i.params_reply_pending_handle) for params_reply_pending_handle
    security_manager.o(i.sm_pdb_evt_handler) refers to security_manager.o(.data) for .data
    security_manager.o(i.sm_pdb_evt_handler) refers to security_manager.o(i.link_secure_pending_handle) for link_secure_pending_handle
    security_manager.o(i.sm_sec_params_reply) refers to security_manager.o(i.sec_params_verify) for sec_params_verify
    security_manager.o(i.sm_sec_params_set) refers to security_manager.o(i.sec_params_verify) for sec_params_verify
    security_manager.o(i.sm_sec_params_set) refers to security_manager.o(.data) for .data
    security_manager.o(i.sm_smd_evt_handler) refers to security_manager.o(i.smd_params_reply_perform) for smd_params_reply_perform
    security_manager.o(i.sm_smd_evt_handler) refers to security_manager.o(i.link_secure) for link_secure
    security_manager.o(i.sm_smd_evt_handler) refers to security_manager.o(i.evt_send) for evt_send
    security_manager.o(i.sm_smd_evt_handler) refers to security_manager.o(.data) for .data
    security_manager.o(i.smd_params_reply_perform) refers to security_manager.o(i.new_context_get) for new_context_get
    security_manager.o(i.smd_params_reply_perform) refers to security_manager.o(i.params_req_send) for params_req_send
    security_manager.o(i.smd_params_reply_perform) refers to security_dispatcher.o(i.smd_params_reply) for smd_params_reply
    security_manager.o(i.smd_params_reply_perform) refers to security_manager.o(i.flags_set_from_err_code) for flags_set_from_err_code
    security_manager.o(i.smd_params_reply_perform) refers to security_manager.o(i.events_send_from_err_code) for events_send_from_err_code
    security_manager.o(i.smd_params_reply_perform) refers to security_manager.o(.data) for .data
    security_manager.o(.constdata) refers to peer_manager.o(i.pm_sm_evt_handler) for pm_sm_evt_handler
    ble_bas.o(i.battery_level_char_add) refers to memseta.o(.text) for __aeabi_memclr4
    ble_bas.o(i.battery_level_char_add) refers to ble_srv_common.o(i.characteristic_add) for characteristic_add
    ble_bas.o(i.battery_level_char_add) refers to ble_srv_common.o(i.ble_srv_report_ref_encode) for ble_srv_report_ref_encode
    ble_bas.o(i.battery_level_char_add) refers to ble_srv_common.o(i.descriptor_add) for descriptor_add
    ble_bas.o(i.ble_bas_battery_level_update) refers to ble_bas.o(i.battery_notification_send) for battery_notification_send
    ble_bas.o(i.ble_bas_battery_level_update) refers to ble_conn_state.o(i.ble_conn_state_conn_handles) for ble_conn_state_conn_handles
    ble_bas.o(i.ble_bas_battery_level_update) refers to ble_conn_state.o(i.ble_conn_state_status) for ble_conn_state_status
    ble_bas.o(i.ble_bas_battery_lvl_on_reconnection_update) refers to ble_bas.o(i.battery_notification_send) for battery_notification_send
    ble_bas.o(i.ble_bas_init) refers to ble_bas.o(i.battery_level_char_add) for battery_level_char_add
    ble_bas.o(i.ble_bas_on_ble_evt) refers to ble_srv_common.o(i.ble_srv_is_notification_enabled) for ble_srv_is_notification_enabled
    ble_dis.o(i.ble_dis_init) refers to ble_dis.o(i.char_add) for char_add
    ble_dis.o(i.ble_dis_init) refers to ble_dis.o(i.sys_id_encode) for sys_id_encode
    ble_dis.o(i.ble_dis_init) refers to ble_dis.o(i.pnp_id_encode) for pnp_id_encode
    ble_dis.o(i.ble_dis_init) refers to ble_dis.o(.data) for .data
    ble_dis.o(i.char_add) refers to app_error.o(i.app_error_handler_bare) for app_error_handler_bare
    ble_dis.o(i.char_add) refers to memseta.o(.text) for __aeabi_memclr4
    ble_dis.o(i.char_add) refers to ble_srv_common.o(i.characteristic_add) for characteristic_add
    ble_dis.o(i.char_add) refers to ble_dis.o(.data) for .data
    ble_dis.o(i.pnp_id_encode) refers to app_error.o(i.app_error_handler_bare) for app_error_handler_bare
    ble_dis.o(i.sys_id_encode) refers to app_error.o(i.app_error_handler_bare) for app_error_handler_bare
    ble_dfu.o(i.ble_dfu_buttonless_bootloader_start_finalize) refers to ble_dfu.o(.bss) for .bss
    ble_dfu.o(i.ble_dfu_buttonless_init) refers to ble_dfu_unbonded.o(i.ble_dfu_buttonless_backend_init) for ble_dfu_buttonless_backend_init
    ble_dfu.o(i.ble_dfu_buttonless_init) refers to ble_dfu_unbonded.o(i.ble_dfu_buttonless_char_add) for ble_dfu_buttonless_char_add
    ble_dfu.o(i.ble_dfu_buttonless_init) refers to ble_dfu.o(.constdata) for .constdata
    ble_dfu.o(i.ble_dfu_buttonless_init) refers to ble_dfu.o(.bss) for .bss
    ble_dfu.o(i.ble_dfu_buttonless_init) refers to ble_dfu.o(i.dummy_evt_handler) for dummy_evt_handler
    ble_dfu.o(i.ble_dfu_buttonless_on_ble_evt) refers to ble_dfu_unbonded.o(i.ble_dfu_buttonless_bootloader_start_prepare) for ble_dfu_buttonless_bootloader_start_prepare
    ble_dfu.o(i.ble_dfu_buttonless_on_ble_evt) refers to ble_dfu.o(i.on_rw_authorize_req) for on_rw_authorize_req
    ble_dfu.o(i.ble_dfu_buttonless_on_ble_evt) refers to ble_srv_common.o(i.ble_srv_is_indication_enabled) for ble_srv_is_indication_enabled
    ble_dfu.o(i.ble_dfu_buttonless_on_ble_evt) refers to ble_dfu.o(.bss) for .bss
    ble_dfu.o(i.ble_dfu_buttonless_resp_send) refers to ble_dfu.o(.bss) for .bss
    ble_dfu.o(i.on_rw_authorize_req) refers to ble_dfu_unbonded.o(i.ble_dfu_buttonless_on_ctrl_pt_write) for ble_dfu_buttonless_on_ctrl_pt_write
    ble_dfu.o(i.on_rw_authorize_req) refers to ble_dfu.o(.bss) for .bss
    ble_dfu.o(sdh_ble_observers3) refers to ble_dfu.o(i.ble_dfu_buttonless_on_ble_evt) for ble_dfu_buttonless_on_ble_evt
    ble_dfu.o(sdh_ble_observers3) refers to ble_dfu.o(.bss) for m_dfu
    ble_dfu_unbonded.o(i.ble_dfu_buttonless_async_svci_init) refers to nrf_dfu_svci.o(i.nrf_dfu_svci_vector_table_set) for nrf_dfu_svci_vector_table_set
    ble_dfu_unbonded.o(i.ble_dfu_buttonless_async_svci_init) refers to nrf_dfu_svci.o(i.nrf_dfu_svci_vector_table_unset) for nrf_dfu_svci_vector_table_unset
    ble_dfu_unbonded.o(i.ble_dfu_buttonless_async_svci_init) refers to ble_dfu_unbonded.o(.bss) for .bss
    ble_dfu_unbonded.o(i.ble_dfu_buttonless_backend_init) refers to ble_dfu_unbonded.o(.data) for .data
    ble_dfu_unbonded.o(i.ble_dfu_buttonless_bootloader_start_prepare) refers to ble_dfu.o(i.ble_dfu_buttonless_bootloader_start_finalize) for ble_dfu_buttonless_bootloader_start_finalize
    ble_dfu_unbonded.o(i.ble_dfu_buttonless_bootloader_start_prepare) refers to ble_dfu_unbonded.o(.data) for .data
    ble_dfu_unbonded.o(i.ble_dfu_buttonless_char_add) refers to memseta.o(.text) for __aeabi_memclr4
    ble_dfu_unbonded.o(i.ble_dfu_buttonless_char_add) refers to ble_srv_common.o(i.characteristic_add) for characteristic_add
    ble_dfu_unbonded.o(i.ble_dfu_buttonless_on_ctrl_pt_write) refers to ble_dfu.o(i.ble_dfu_buttonless_resp_send) for ble_dfu_buttonless_resp_send
    ble_dfu_unbonded.o(i.ble_dfu_buttonless_on_ctrl_pt_write) refers to memcpya.o(.text) for __aeabi_memcpy
    ble_dfu_unbonded.o(i.ble_dfu_buttonless_on_ctrl_pt_write) refers to ble_dfu_unbonded.o(.data) for .data
    ble_dfu_unbonded.o(i.ble_dfu_buttonless_on_ctrl_pt_write) refers to ble_dfu_unbonded.o(.bss) for .bss
    ble_dfu_unbonded.o(i.ble_dfu_buttonless_on_sys_evt) refers to ble_dfu.o(i.ble_dfu_buttonless_resp_send) for ble_dfu_buttonless_resp_send
    ble_dfu_unbonded.o(i.ble_dfu_buttonless_on_sys_evt) refers to ble_dfu_unbonded.o(.bss) for .bss
    ble_dfu_unbonded.o(i.ble_dfu_buttonless_on_sys_evt) refers to ble_dfu_unbonded.o(.data) for .data
    ble_dfu_unbonded.o(sdh_soc_observers2) refers to ble_dfu_unbonded.o(i.ble_dfu_buttonless_on_sys_evt) for ble_dfu_buttonless_on_sys_evt
    nrfx_gpiote.o(i.GPIOTE_IRQHandler) refers to nrfx_gpiote.o(i.nrf_gpiote_event_is_set) for nrf_gpiote_event_is_set
    nrfx_gpiote.o(i.GPIOTE_IRQHandler) refers to nrfx_gpiote.o(i.nrf_gpiote_event_clear) for nrf_gpiote_event_clear
    nrfx_gpiote.o(i.GPIOTE_IRQHandler) refers to nrfx_gpiote.o(i.nrf_gpio_ports_read) for nrf_gpio_ports_read
    nrfx_gpiote.o(i.GPIOTE_IRQHandler) refers to nrfx_gpiote.o(i.nrf_bitmask_bit_is_set) for nrf_bitmask_bit_is_set
    nrfx_gpiote.o(i.GPIOTE_IRQHandler) refers to nrfx_gpiote.o(i.channel_port_get) for channel_port_get
    nrfx_gpiote.o(i.GPIOTE_IRQHandler) refers to nrfx_gpiote.o(i.nrf_bitmask_bit_set) for nrf_bitmask_bit_set
    nrfx_gpiote.o(i.GPIOTE_IRQHandler) refers to nrfx_gpiote.o(i.nrf_gpio_cfg_sense_set) for nrf_gpio_cfg_sense_set
    nrfx_gpiote.o(i.GPIOTE_IRQHandler) refers to nrfx_gpiote.o(.bss) for .bss
    nrfx_gpiote.o(i.channel_free) refers to nrfx_gpiote.o(.bss) for .bss
    nrfx_gpiote.o(i.channel_port_alloc) refers to nrfx_gpiote.o(.bss) for .bss
    nrfx_gpiote.o(i.channel_port_get) refers to nrfx_gpiote.o(.bss) for .bss
    nrfx_gpiote.o(i.nrf_gpio_cfg_default) refers to nrfx_gpiote.o(i.nrf_gpio_cfg) for nrf_gpio_cfg
    nrfx_gpiote.o(i.nrf_gpio_ports_read) refers to nrfx_gpiote.o(.constdata) for .constdata
    nrfx_gpiote.o(i.nrfx_gpiote_clr_task_addr_get) refers to nrfx_gpiote.o(i.channel_port_get) for channel_port_get
    nrfx_gpiote.o(i.nrfx_gpiote_clr_task_trigger) refers to nrfx_gpiote.o(i.channel_port_get) for channel_port_get
    nrfx_gpiote.o(i.nrfx_gpiote_in_event_addr_get) refers to nrfx_gpiote.o(i.pin_in_use_by_te) for pin_in_use_by_te
    nrfx_gpiote.o(i.nrfx_gpiote_in_event_addr_get) refers to nrfx_gpiote.o(i.channel_port_get) for channel_port_get
    nrfx_gpiote.o(i.nrfx_gpiote_in_event_disable) refers to nrfx_gpiote.o(i.pin_in_use_by_port) for pin_in_use_by_port
    nrfx_gpiote.o(i.nrfx_gpiote_in_event_disable) refers to nrfx_gpiote.o(i.nrf_gpio_cfg_sense_set) for nrf_gpio_cfg_sense_set
    nrfx_gpiote.o(i.nrfx_gpiote_in_event_disable) refers to nrfx_gpiote.o(i.pin_in_use_by_te) for pin_in_use_by_te
    nrfx_gpiote.o(i.nrfx_gpiote_in_event_disable) refers to nrfx_gpiote.o(i.channel_port_get) for channel_port_get
    nrfx_gpiote.o(i.nrfx_gpiote_in_event_enable) refers to nrfx_gpiote.o(i.pin_in_use_by_port) for pin_in_use_by_port
    nrfx_gpiote.o(i.nrfx_gpiote_in_event_enable) refers to nrfx_gpiote.o(i.channel_port_get) for channel_port_get
    nrfx_gpiote.o(i.nrfx_gpiote_in_event_enable) refers to nrfx_gpiote.o(i.nrf_gpio_cfg_sense_set) for nrf_gpio_cfg_sense_set
    nrfx_gpiote.o(i.nrfx_gpiote_in_event_enable) refers to nrfx_gpiote.o(i.pin_in_use_by_te) for pin_in_use_by_te
    nrfx_gpiote.o(i.nrfx_gpiote_in_event_enable) refers to nrfx_gpiote.o(i.nrf_gpiote_event_clear) for nrf_gpiote_event_clear
    nrfx_gpiote.o(i.nrfx_gpiote_in_event_enable) refers to nrfx_gpiote.o(.bss) for .bss
    nrfx_gpiote.o(i.nrfx_gpiote_in_init) refers to nrfx_gpiote.o(i.channel_port_alloc) for channel_port_alloc
    nrfx_gpiote.o(i.nrfx_gpiote_in_init) refers to nrfx_gpiote.o(i.nrf_gpio_cfg) for nrf_gpio_cfg
    nrfx_gpiote.o(i.nrfx_gpiote_in_init) refers to nrfx_gpiote.o(i.nrf_bitmask_bit_set) for nrf_bitmask_bit_set
    nrfx_gpiote.o(i.nrfx_gpiote_in_init) refers to nrfx_gpiote.o(.bss) for .bss
    nrfx_gpiote.o(i.nrfx_gpiote_in_uninit) refers to nrfx_gpiote.o(i.nrfx_gpiote_in_event_disable) for nrfx_gpiote_in_event_disable
    nrfx_gpiote.o(i.nrfx_gpiote_in_uninit) refers to nrfx_gpiote.o(i.pin_in_use_by_te) for pin_in_use_by_te
    nrfx_gpiote.o(i.nrfx_gpiote_in_uninit) refers to nrfx_gpiote.o(i.channel_port_get) for channel_port_get
    nrfx_gpiote.o(i.nrfx_gpiote_in_uninit) refers to nrfx_gpiote.o(i.pin_configured_check) for pin_configured_check
    nrfx_gpiote.o(i.nrfx_gpiote_in_uninit) refers to nrfx_gpiote.o(i.nrf_gpio_cfg_default) for nrf_gpio_cfg_default
    nrfx_gpiote.o(i.nrfx_gpiote_in_uninit) refers to nrfx_gpiote.o(i.pin_configured_clear) for pin_configured_clear
    nrfx_gpiote.o(i.nrfx_gpiote_in_uninit) refers to nrfx_gpiote.o(i.channel_free) for channel_free
    nrfx_gpiote.o(i.nrfx_gpiote_in_uninit) refers to nrfx_gpiote.o(.bss) for .bss
    nrfx_gpiote.o(i.nrfx_gpiote_init) refers to nrfx_gpiote.o(i.channel_free) for channel_free
    nrfx_gpiote.o(i.nrfx_gpiote_init) refers to nrfx_gpiote.o(i.nrf_gpiote_event_clear) for nrf_gpiote_event_clear
    nrfx_gpiote.o(i.nrfx_gpiote_init) refers to nrfx_gpiote.o(.bss) for .bss
    nrfx_gpiote.o(i.nrfx_gpiote_is_init) refers to nrfx_gpiote.o(.bss) for .bss
    nrfx_gpiote.o(i.nrfx_gpiote_out_init) refers to nrfx_gpiote.o(i.channel_port_alloc) for channel_port_alloc
    nrfx_gpiote.o(i.nrfx_gpiote_out_init) refers to nrfx_gpiote.o(i.nrf_gpio_cfg) for nrf_gpio_cfg
    nrfx_gpiote.o(i.nrfx_gpiote_out_init) refers to nrfx_gpiote.o(i.nrf_bitmask_bit_set) for nrf_bitmask_bit_set
    nrfx_gpiote.o(i.nrfx_gpiote_out_init) refers to nrfx_gpiote.o(.bss) for .bss
    nrfx_gpiote.o(i.nrfx_gpiote_out_task_addr_get) refers to nrfx_gpiote.o(i.channel_port_get) for channel_port_get
    nrfx_gpiote.o(i.nrfx_gpiote_out_task_disable) refers to nrfx_gpiote.o(.bss) for .bss
    nrfx_gpiote.o(i.nrfx_gpiote_out_task_enable) refers to nrfx_gpiote.o(.bss) for .bss
    nrfx_gpiote.o(i.nrfx_gpiote_out_task_force) refers to nrfx_gpiote.o(.bss) for .bss
    nrfx_gpiote.o(i.nrfx_gpiote_out_task_trigger) refers to nrfx_gpiote.o(i.channel_port_get) for channel_port_get
    nrfx_gpiote.o(i.nrfx_gpiote_out_uninit) refers to nrfx_gpiote.o(i.pin_in_use_by_te) for pin_in_use_by_te
    nrfx_gpiote.o(i.nrfx_gpiote_out_uninit) refers to nrfx_gpiote.o(i.channel_port_get) for channel_port_get
    nrfx_gpiote.o(i.nrfx_gpiote_out_uninit) refers to nrfx_gpiote.o(i.channel_free) for channel_free
    nrfx_gpiote.o(i.nrfx_gpiote_out_uninit) refers to nrfx_gpiote.o(i.pin_configured_check) for pin_configured_check
    nrfx_gpiote.o(i.nrfx_gpiote_out_uninit) refers to nrfx_gpiote.o(i.nrf_gpio_cfg_default) for nrf_gpio_cfg_default
    nrfx_gpiote.o(i.nrfx_gpiote_out_uninit) refers to nrfx_gpiote.o(i.pin_configured_clear) for pin_configured_clear
    nrfx_gpiote.o(i.nrfx_gpiote_out_uninit) refers to nrfx_gpiote.o(.bss) for .bss
    nrfx_gpiote.o(i.nrfx_gpiote_set_task_addr_get) refers to nrfx_gpiote.o(i.channel_port_get) for channel_port_get
    nrfx_gpiote.o(i.nrfx_gpiote_set_task_trigger) refers to nrfx_gpiote.o(i.channel_port_get) for channel_port_get
    nrfx_gpiote.o(i.nrfx_gpiote_uninit) refers to nrfx_gpiote.o(i.nrfx_gpiote_in_uninit) for nrfx_gpiote_in_uninit
    nrfx_gpiote.o(i.nrfx_gpiote_uninit) refers to nrfx_gpiote.o(i.nrfx_gpiote_out_uninit) for nrfx_gpiote_out_uninit
    nrfx_gpiote.o(i.nrfx_gpiote_uninit) refers to nrfx_gpiote.o(.bss) for .bss
    nrfx_gpiote.o(i.pin_configured_check) refers to nrfx_gpiote.o(i.nrf_bitmask_bit_is_set) for nrf_bitmask_bit_is_set
    nrfx_gpiote.o(i.pin_configured_check) refers to nrfx_gpiote.o(.bss) for .bss
    nrfx_gpiote.o(i.pin_configured_clear) refers to nrfx_gpiote.o(.bss) for .bss
    nrfx_gpiote.o(i.pin_in_use_by_port) refers to nrfx_gpiote.o(.bss) for .bss
    nrfx_gpiote.o(i.pin_in_use_by_te) refers to nrfx_gpiote.o(.bss) for .bss
    nrfx_prs.o(i.UARTE0_UART0_IRQHandler) refers to nrfx_prs.o(.data) for .data
    nrfx_prs.o(i.nrfx_prs_acquire) refers to nrfx_prs.o(i.prs_box_get) for prs_box_get
    nrfx_prs.o(i.nrfx_prs_acquire) refers to app_util_platform.o(i.app_util_critical_region_enter) for app_util_critical_region_enter
    nrfx_prs.o(i.nrfx_prs_acquire) refers to app_util_platform.o(i.app_util_critical_region_exit) for app_util_critical_region_exit
    nrfx_prs.o(i.nrfx_prs_release) refers to nrfx_prs.o(i.prs_box_get) for prs_box_get
    nrfx_prs.o(i.prs_box_get) refers to nrfx_prs.o(.data) for .data
    nrfx_pwm.o(i.PWM0_IRQHandler) refers to nrfx_pwm.o(i.irq_handler) for irq_handler
    nrfx_pwm.o(i.PWM0_IRQHandler) refers to nrfx_pwm.o(.bss) for .bss
    nrfx_pwm.o(i.PWM1_IRQHandler) refers to nrfx_pwm.o(i.irq_handler) for irq_handler
    nrfx_pwm.o(i.PWM1_IRQHandler) refers to nrfx_pwm.o(.bss) for .bss
    nrfx_pwm.o(i.PWM2_IRQHandler) refers to nrfx_pwm.o(i.irq_handler) for irq_handler
    nrfx_pwm.o(i.PWM2_IRQHandler) refers to nrfx_pwm.o(.bss) for .bss
    nrfx_pwm.o(i.irq_handler) refers to nrfx_pwm.o(i.nrf_pwm_event_check) for nrf_pwm_event_check
    nrfx_pwm.o(i.irq_handler) refers to nrfx_pwm.o(i.nrf_pwm_event_clear) for nrf_pwm_event_clear
    nrfx_pwm.o(i.nrfx_pwm_complex_playback) refers to nrfx_pwm.o(i.nrf_pwm_sequence_set) for nrf_pwm_sequence_set
    nrfx_pwm.o(i.nrfx_pwm_complex_playback) refers to nrfx_pwm.o(i.start_playback) for start_playback
    nrfx_pwm.o(i.nrfx_pwm_complex_playback) refers to nrfx_pwm.o(.bss) for .bss
    nrfx_pwm.o(i.nrfx_pwm_init) refers to nrfx_pwm.o(i.configure_pins) for configure_pins
    nrfx_pwm.o(i.nrfx_pwm_init) refers to nrfx_pwm.o(i.nrf_pwm_event_clear) for nrf_pwm_event_clear
    nrfx_pwm.o(i.nrfx_pwm_init) refers to nrfx_pwm.o(.bss) for .bss
    nrfx_pwm.o(i.nrfx_pwm_is_stopped) refers to nrfx_pwm.o(i.nrf_pwm_event_check) for nrf_pwm_event_check
    nrfx_pwm.o(i.nrfx_pwm_is_stopped) refers to nrfx_pwm.o(.bss) for .bss
    nrfx_pwm.o(i.nrfx_pwm_simple_playback) refers to nrfx_pwm.o(i.nrf_pwm_sequence_set) for nrf_pwm_sequence_set
    nrfx_pwm.o(i.nrfx_pwm_simple_playback) refers to nrfx_pwm.o(i.start_playback) for start_playback
    nrfx_pwm.o(i.nrfx_pwm_simple_playback) refers to nrfx_pwm.o(.bss) for .bss
    nrfx_pwm.o(i.nrfx_pwm_stop) refers to nrfx_pwm.o(i.nrfx_pwm_is_stopped) for nrfx_pwm_is_stopped
    nrfx_pwm.o(i.nrfx_pwm_uninit) refers to nrfx_pwm.o(.bss) for .bss
    nrfx_pwm.o(i.start_playback) refers to nrfx_pwm.o(i.nrf_pwm_event_clear) for nrf_pwm_event_clear
    nrfx_rtc.o(i.RTC2_IRQHandler) refers to nrfx_rtc.o(i.irq_handler) for irq_handler
    nrfx_rtc.o(i.irq_handler) refers to nrfx_rtc.o(i.nrf_rtc_event_clear) for nrf_rtc_event_clear
    nrfx_rtc.o(i.irq_handler) refers to nrfx_rtc.o(.data) for .data
    nrfx_rtc.o(i.nrfx_rtc_cc_disable) refers to nrfx_rtc.o(i.nrf_rtc_event_clear) for nrf_rtc_event_clear
    nrfx_rtc.o(i.nrfx_rtc_cc_set) refers to nrfx_rtc.o(i.nrf_rtc_event_clear) for nrf_rtc_event_clear
    nrfx_rtc.o(i.nrfx_rtc_cc_set) refers to nrfx_rtc.o(.data) for .data
    nrfx_rtc.o(i.nrfx_rtc_disable) refers to nrfx_rtc.o(.data) for .data
    nrfx_rtc.o(i.nrfx_rtc_enable) refers to nrfx_rtc.o(.data) for .data
    nrfx_rtc.o(i.nrfx_rtc_init) refers to nrfx_rtc.o(.data) for .data
    nrfx_rtc.o(i.nrfx_rtc_max_ticks_get) refers to nrfx_rtc.o(.data) for .data
    nrfx_rtc.o(i.nrfx_rtc_overflow_enable) refers to nrfx_rtc.o(i.nrf_rtc_event_clear) for nrf_rtc_event_clear
    nrfx_rtc.o(i.nrfx_rtc_tick_enable) refers to nrfx_rtc.o(i.nrf_rtc_event_clear) for nrf_rtc_event_clear
    nrfx_rtc.o(i.nrfx_rtc_uninit) refers to nrfx_rtc.o(.data) for .data
    nrfx_saadc.o(i.SAADC_IRQHandler) refers to nrfx_saadc.o(i.nrf_saadc_event_check) for nrf_saadc_event_check
    nrfx_saadc.o(i.SAADC_IRQHandler) refers to nrfx_saadc.o(i.nrf_saadc_event_clear) for nrf_saadc_event_clear
    nrfx_saadc.o(i.SAADC_IRQHandler) refers to nrfx_saadc.o(i.nrf_saadc_buffer_init) for nrf_saadc_buffer_init
    nrfx_saadc.o(i.SAADC_IRQHandler) refers to nrfx_saadc.o(.bss) for .bss
    nrfx_saadc.o(i.nrfx_coredep_delay_us) refers to nrfx_saadc.o(.constdata) for .constdata
    nrfx_saadc.o(i.nrfx_saadc_abort) refers to nrfx_saadc.o(i.nrfx_saadc_is_busy) for nrfx_saadc_is_busy
    nrfx_saadc.o(i.nrfx_saadc_abort) refers to nrfx_saadc.o(i.nrf_saadc_event_clear) for nrf_saadc_event_clear
    nrfx_saadc.o(i.nrfx_saadc_abort) refers to nrfx_saadc.o(i.nrfx_coredep_delay_us) for nrfx_coredep_delay_us
    nrfx_saadc.o(i.nrfx_saadc_abort) refers to nrfx_saadc.o(.bss) for .bss
    nrfx_saadc.o(i.nrfx_saadc_buffer_convert) refers to nrfx_saadc.o(i.nrf_saadc_buffer_init) for nrf_saadc_buffer_init
    nrfx_saadc.o(i.nrfx_saadc_buffer_convert) refers to nrfx_saadc.o(i.nrf_saadc_event_check) for nrf_saadc_event_check
    nrfx_saadc.o(i.nrfx_saadc_buffer_convert) refers to nrfx_saadc.o(i.nrf_saadc_event_clear) for nrf_saadc_event_clear
    nrfx_saadc.o(i.nrfx_saadc_buffer_convert) refers to nrfx_saadc.o(.bss) for .bss
    nrfx_saadc.o(i.nrfx_saadc_calibrate_offset) refers to nrfx_saadc.o(i.nrf_saadc_event_clear) for nrf_saadc_event_clear
    nrfx_saadc.o(i.nrfx_saadc_calibrate_offset) refers to nrfx_saadc.o(.bss) for .bss
    nrfx_saadc.o(i.nrfx_saadc_channel_init) refers to nrfx_saadc.o(i.nrf_saadc_channel_input_set) for nrf_saadc_channel_input_set
    nrfx_saadc.o(i.nrfx_saadc_channel_init) refers to nrfx_saadc.o(.bss) for .bss
    nrfx_saadc.o(i.nrfx_saadc_channel_uninit) refers to nrfx_saadc.o(i.nrf_saadc_channel_input_set) for nrf_saadc_channel_input_set
    nrfx_saadc.o(i.nrfx_saadc_channel_uninit) refers to nrfx_saadc.o(i.nrfx_saadc_limits_set) for nrfx_saadc_limits_set
    nrfx_saadc.o(i.nrfx_saadc_channel_uninit) refers to nrfx_saadc.o(.bss) for .bss
    nrfx_saadc.o(i.nrfx_saadc_init) refers to nrfx_saadc.o(i.nrf_saadc_event_clear) for nrf_saadc_event_clear
    nrfx_saadc.o(i.nrfx_saadc_init) refers to nrfx_saadc.o(.bss) for .bss
    nrfx_saadc.o(i.nrfx_saadc_is_busy) refers to nrfx_saadc.o(.bss) for .bss
    nrfx_saadc.o(i.nrfx_saadc_limits_set) refers to nrfx_saadc.o(i.nrf_saadc_limit_int_get) for nrf_saadc_limit_int_get
    nrfx_saadc.o(i.nrfx_saadc_limits_set) refers to nrfx_saadc.o(.bss) for .bss
    nrfx_saadc.o(i.nrfx_saadc_sample) refers to nrfx_saadc.o(.bss) for .bss
    nrfx_saadc.o(i.nrfx_saadc_sample_convert) refers to nrfx_saadc.o(i.nrf_saadc_buffer_init) for nrf_saadc_buffer_init
    nrfx_saadc.o(i.nrfx_saadc_sample_convert) refers to nrfx_saadc.o(i.nrf_saadc_channel_input_set) for nrf_saadc_channel_input_set
    nrfx_saadc.o(i.nrfx_saadc_sample_convert) refers to nrfx_saadc.o(i.nrf_saadc_event_check) for nrf_saadc_event_check
    nrfx_saadc.o(i.nrfx_saadc_sample_convert) refers to nrfx_saadc.o(i.nrfx_coredep_delay_us) for nrfx_coredep_delay_us
    nrfx_saadc.o(i.nrfx_saadc_sample_convert) refers to nrfx_saadc.o(i.nrf_saadc_event_clear) for nrf_saadc_event_clear
    nrfx_saadc.o(i.nrfx_saadc_sample_convert) refers to nrfx_saadc.o(.bss) for .bss
    nrfx_saadc.o(i.nrfx_saadc_sample_task_get) refers to nrfx_saadc.o(.bss) for .bss
    nrfx_saadc.o(i.nrfx_saadc_uninit) refers to nrfx_saadc.o(i.nrf_saadc_event_check) for nrf_saadc_event_check
    nrfx_saadc.o(i.nrfx_saadc_uninit) refers to nrfx_saadc.o(i.nrfx_coredep_delay_us) for nrfx_coredep_delay_us
    nrfx_saadc.o(i.nrfx_saadc_uninit) refers to nrfx_saadc.o(i.nrfx_saadc_channel_uninit) for nrfx_saadc_channel_uninit
    nrfx_saadc.o(i.nrfx_saadc_uninit) refers to nrfx_saadc.o(.bss) for .bss
    nrfx_spi.o(i.SPIM0_SPIS0_TWIM0_TWIS0_SPI0_TWI0_IRQHandler) refers to nrfx_spi.o(i.transfer_byte) for transfer_byte
    nrfx_spi.o(i.SPIM0_SPIS0_TWIM0_TWIS0_SPI0_TWI0_IRQHandler) refers to nrfx_spi.o(i.nrf_gpio_pin_set) for nrf_gpio_pin_set
    nrfx_spi.o(i.SPIM0_SPIS0_TWIM0_TWIS0_SPI0_TWI0_IRQHandler) refers to nrfx_spi.o(.bss) for .bss
    nrfx_spi.o(i.nrf_gpio_cfg_output) refers to nrfx_spi.o(i.nrf_gpio_cfg) for nrf_gpio_cfg
    nrfx_spi.o(i.nrfx_spi_abort) refers to nrfx_spi.o(.bss) for .bss
    nrfx_spi.o(i.nrfx_spi_init) refers to nrfx_prs.o(i.nrfx_prs_acquire) for nrfx_prs_acquire
    nrfx_spi.o(i.nrfx_spi_init) refers to nrfx_spi.o(i.nrf_gpio_pin_set) for nrf_gpio_pin_set
    nrfx_spi.o(i.nrfx_spi_init) refers to nrfx_spi.o(i.nrf_gpio_cfg) for nrf_gpio_cfg
    nrfx_spi.o(i.nrfx_spi_init) refers to nrfx_spi.o(i.nrf_gpio_cfg_output) for nrf_gpio_cfg_output
    nrfx_spi.o(i.nrfx_spi_init) refers to nrfx_spi.o(.bss) for .bss
    nrfx_spi.o(i.nrfx_spi_init) refers to nrfx_spi.o(.constdata) for .constdata
    nrfx_spi.o(i.nrfx_spi_uninit) refers to nrfx_spi.o(i.nrf_gpio_cfg) for nrf_gpio_cfg
    nrfx_spi.o(i.nrfx_spi_uninit) refers to nrfx_prs.o(i.nrfx_prs_release) for nrfx_prs_release
    nrfx_spi.o(i.nrfx_spi_uninit) refers to nrfx_spi.o(.bss) for .bss
    nrfx_spi.o(i.nrfx_spi_xfer) refers to nrfx_spi.o(i.spi_xfer) for spi_xfer
    nrfx_spi.o(i.nrfx_spi_xfer) refers to nrfx_spi.o(.bss) for .bss
    nrfx_spi.o(i.spi_xfer) refers to nrfx_spi.o(i.transfer_byte) for transfer_byte
    nrfx_spi.o(i.spi_xfer) refers to nrfx_spi.o(i.nrf_gpio_pin_set) for nrf_gpio_pin_set
    nrfx_spi.o(.constdata) refers to nrfx_spi.o(i.SPIM0_SPIS0_TWIM0_TWIS0_SPI0_TWI0_IRQHandler) for SPIM0_SPIS0_TWIM0_TWIS0_SPI0_TWI0_IRQHandler
    nrfx_timer.o(i.TIMER1_IRQHandler) refers to nrfx_timer.o(i.nrf_timer_event_clear) for nrf_timer_event_clear
    nrfx_timer.o(i.TIMER1_IRQHandler) refers to nrfx_timer.o(.bss) for .bss
    nrfx_timer.o(i.nrfx_timer_compare) refers to nrfx_timer.o(i.nrf_timer_event_clear) for nrf_timer_event_clear
    nrfx_timer.o(i.nrfx_timer_compare_int_enable) refers to nrfx_timer.o(i.nrf_timer_event_clear) for nrf_timer_event_clear
    nrfx_timer.o(i.nrfx_timer_disable) refers to nrfx_timer.o(.bss) for .bss
    nrfx_timer.o(i.nrfx_timer_enable) refers to nrfx_timer.o(.bss) for .bss
    nrfx_timer.o(i.nrfx_timer_extended_compare) refers to nrfx_timer.o(i.nrfx_timer_compare) for nrfx_timer_compare
    nrfx_timer.o(i.nrfx_timer_init) refers to nrfx_timer.o(i.nrf_timer_event_clear) for nrf_timer_event_clear
    nrfx_timer.o(i.nrfx_timer_init) refers to nrfx_timer.o(.bss) for .bss
    nrfx_timer.o(i.nrfx_timer_is_enabled) refers to nrfx_timer.o(.bss) for .bss
    nrfx_timer.o(i.nrfx_timer_uninit) refers to nrfx_timer.o(i.nrfx_timer_disable) for nrfx_timer_disable
    nrfx_timer.o(i.nrfx_timer_uninit) refers to nrfx_timer.o(.bss) for .bss
    nrfx_wdt.o(i.WDT_IRQHandler) refers to nrfx_wdt.o(.data) for .data
    nrfx_wdt.o(i.nrfx_wdt_channel_alloc) refers to app_util_platform.o(i.app_util_critical_region_enter) for app_util_critical_region_enter
    nrfx_wdt.o(i.nrfx_wdt_channel_alloc) refers to app_util_platform.o(i.app_util_critical_region_exit) for app_util_critical_region_exit
    nrfx_wdt.o(i.nrfx_wdt_channel_alloc) refers to nrfx_wdt.o(.data) for .data
    nrfx_wdt.o(i.nrfx_wdt_enable) refers to nrfx_wdt.o(.data) for .data
    nrfx_wdt.o(i.nrfx_wdt_feed) refers to nrfx_wdt.o(.data) for .data
    nrfx_wdt.o(i.nrfx_wdt_init) refers to nrfx_wdt.o(.data) for .data
    app_error.o(i.app_error_handler_bare) refers to app_error_weak.o(i.app_error_fault_handler) for app_error_fault_handler
    app_error.o(i.app_error_save_and_stop) refers to app_error.o(.bss) for .bss
    app_error_handler_keil.o(.emb_text) refers to app_error_weak.o(i.app_error_fault_handler) for app_error_fault_handler
    app_scheduler.o(i.app_sched_event_put) refers to app_util_platform.o(i.app_util_critical_region_enter) for app_util_critical_region_enter
    app_scheduler.o(i.app_sched_event_put) refers to app_util_platform.o(i.app_util_critical_region_exit) for app_util_critical_region_exit
    app_scheduler.o(i.app_sched_event_put) refers to memcpya.o(.text) for __aeabi_memcpy
    app_scheduler.o(i.app_sched_event_put) refers to app_scheduler.o(.data) for .data
    app_scheduler.o(i.app_sched_execute) refers to app_scheduler.o(.data) for .data
    app_scheduler.o(i.app_sched_init) refers to app_scheduler.o(.data) for .data
    app_scheduler.o(i.app_sched_queue_space_get) refers to app_scheduler.o(.data) for .data
    app_timer.o(i.RTC1_IRQHandler) refers to app_timer.o(i.timer_timeouts_check) for timer_timeouts_check
    app_timer.o(i.SWI0_EGU0_IRQHandler) refers to app_timer.o(i.timer_list_handler) for timer_list_handler
    app_timer.o(i.app_timer_create) refers to app_timer.o(.bss) for .bss
    app_timer.o(i.app_timer_init) refers to app_timer.o(i.rtc1_stop) for rtc1_stop
    app_timer.o(i.app_timer_init) refers to app_timer.o(i.__NVIC_ClearPendingIRQ) for __NVIC_ClearPendingIRQ
    app_timer.o(i.app_timer_init) refers to app_timer.o(i.__NVIC_SetPriority) for __NVIC_SetPriority
    app_timer.o(i.app_timer_init) refers to app_timer.o(i.__NVIC_EnableIRQ) for __NVIC_EnableIRQ
    app_timer.o(i.app_timer_init) refers to app_timer.o(.bss) for .bss
    app_timer.o(i.app_timer_init) refers to app_timer.o(.data) for .data
    app_timer.o(i.app_timer_start) refers to app_util_platform.o(i.app_util_critical_region_enter) for app_util_critical_region_enter
    app_timer.o(i.app_timer_start) refers to app_timer.o(i.user_op_alloc) for user_op_alloc
    app_timer.o(i.app_timer_start) refers to app_util_platform.o(i.app_util_critical_region_exit) for app_util_critical_region_exit
    app_timer.o(i.app_timer_start) refers to app_timer.o(i.__NVIC_SetPendingIRQ) for __NVIC_SetPendingIRQ
    app_timer.o(i.app_timer_start) refers to app_timer.o(.bss) for .bss
    app_timer.o(i.app_timer_stop) refers to app_timer.o(i.timer_stop_op_schedule) for timer_stop_op_schedule
    app_timer.o(i.app_timer_stop) refers to app_timer.o(.bss) for .bss
    app_timer.o(i.app_timer_stop_all) refers to app_timer.o(i.timer_stop_op_schedule) for timer_stop_op_schedule
    app_timer.o(i.app_timer_stop_all) refers to app_timer.o(.bss) for .bss
    app_timer.o(i.compare_reg_update) refers to app_timer.o(i.__NVIC_ClearPendingIRQ) for __NVIC_ClearPendingIRQ
    app_timer.o(i.compare_reg_update) refers to app_timer.o(i.__NVIC_EnableIRQ) for __NVIC_EnableIRQ
    app_timer.o(i.compare_reg_update) refers to app_timer.o(i.nrfx_coredep_delay_us) for nrfx_coredep_delay_us
    app_timer.o(i.compare_reg_update) refers to app_timer.o(i.__NVIC_SetPendingIRQ) for __NVIC_SetPendingIRQ
    app_timer.o(i.compare_reg_update) refers to app_timer.o(i.rtc1_stop) for rtc1_stop
    app_timer.o(i.compare_reg_update) refers to app_timer.o(.data) for .data
    app_timer.o(i.elapsed_ticks_acquire) refers to app_timer.o(.data) for .data
    app_timer.o(i.list_insertions_handler) refers to app_timer.o(i.timer_list_remove) for timer_list_remove
    app_timer.o(i.list_insertions_handler) refers to app_timer.o(i.timer_list_insert) for timer_list_insert
    app_timer.o(i.list_insertions_handler) refers to app_timer.o(.data) for .data
    app_timer.o(i.list_insertions_handler) refers to app_timer.o(.bss) for .bss
    app_timer.o(i.nrfx_coredep_delay_us) refers to app_timer.o(.constdata) for .constdata
    app_timer.o(i.rtc1_stop) refers to app_timer.o(i.nrfx_coredep_delay_us) for nrfx_coredep_delay_us
    app_timer.o(i.rtc1_stop) refers to app_timer.o(.data) for .data
    app_timer.o(i.timeout_handler_scheduled_exec) refers to app_error.o(i.app_error_handler_bare) for app_error_handler_bare
    app_timer.o(i.timer_list_handler) refers to app_timer.o(i.elapsed_ticks_acquire) for elapsed_ticks_acquire
    app_timer.o(i.timer_list_handler) refers to app_timer.o(i.list_insertions_handler) for list_insertions_handler
    app_timer.o(i.timer_list_handler) refers to app_timer.o(i.compare_reg_update) for compare_reg_update
    app_timer.o(i.timer_list_handler) refers to app_timer.o(.data) for .data
    app_timer.o(i.timer_list_insert) refers to app_timer.o(.data) for .data
    app_timer.o(i.timer_list_remove) refers to app_timer.o(i.nrfx_coredep_delay_us) for nrfx_coredep_delay_us
    app_timer.o(i.timer_list_remove) refers to app_timer.o(.data) for .data
    app_timer.o(i.timer_stop_op_schedule) refers to app_util_platform.o(i.app_util_critical_region_enter) for app_util_critical_region_enter
    app_timer.o(i.timer_stop_op_schedule) refers to app_timer.o(i.user_op_alloc) for user_op_alloc
    app_timer.o(i.timer_stop_op_schedule) refers to app_util_platform.o(i.app_util_critical_region_exit) for app_util_critical_region_exit
    app_timer.o(i.timer_stop_op_schedule) refers to app_timer.o(i.__NVIC_SetPendingIRQ) for __NVIC_SetPendingIRQ
    app_timer.o(i.timer_stop_op_schedule) refers to app_timer.o(.bss) for .bss
    app_timer.o(i.timer_timeouts_check) refers to app_scheduler.o(i.app_sched_event_put) for app_sched_event_put
    app_timer.o(i.timer_timeouts_check) refers to app_error.o(i.app_error_handler_bare) for app_error_handler_bare
    app_timer.o(i.timer_timeouts_check) refers to app_timer.o(i.__NVIC_SetPendingIRQ) for __NVIC_SetPendingIRQ
    app_timer.o(i.timer_timeouts_check) refers to app_timer.o(.data) for .data
    app_timer.o(i.timer_timeouts_check) refers to app_timer.o(i.timeout_handler_scheduled_exec) for timeout_handler_scheduled_exec
    app_timer.o(i.user_op_alloc) refers to app_timer.o(.bss) for .bss
    app_util_platform.o(i.app_util_critical_region_enter) refers to app_util_platform.o(.bss) for .bss
    app_util_platform.o(i.app_util_critical_region_exit) refers to app_util_platform.o(.bss) for .bss
    app_util_platform.o(i.app_util_disable_irq) refers to app_util_platform.o(.data) for .data
    app_util_platform.o(i.app_util_enable_irq) refers to app_util_platform.o(.data) for .data
    fds.o(i.delete_execute) refers to fds.o(i.record_find_by_desc) for record_find_by_desc
    fds.o(i.delete_execute) refers to fds.o(i.record_header_flag_dirty) for record_header_flag_dirty
    fds.o(i.delete_execute) refers to fds.o(i.record_find) for record_find
    fds.o(i.delete_execute) refers to fds.o(.data) for .data
    fds.o(i.event_send) refers to fds.o(.bss) for .bss
    fds.o(i.fds_file_delete) refers to fds.o(i.queue_buf_get) for queue_buf_get
    fds.o(i.fds_file_delete) refers to fds.o(i.queue_buf_store) for queue_buf_store
    fds.o(i.fds_file_delete) refers to fds.o(i.queue_start) for queue_start
    fds.o(i.fds_file_delete) refers to fds.o(.data) for .data
    fds.o(i.fds_gc) refers to fds.o(i.queue_buf_get) for queue_buf_get
    fds.o(i.fds_gc) refers to fds.o(i.queue_buf_store) for queue_buf_store
    fds.o(i.fds_gc) refers to fds.o(i.queue_start) for queue_start
    fds.o(i.fds_gc) refers to fds.o(.data) for .data
    fds.o(i.fds_gc) refers to fds.o(.bss) for .bss
    fds.o(i.fds_init) refers to memseta.o(.text) for __aeabi_memclr4
    fds.o(i.fds_init) refers to fds.o(i.event_send) for event_send
    fds.o(i.fds_init) refers to nrf_atomic.o(i.nrf_atomic_flag_set_fetch) for nrf_atomic_flag_set_fetch
    fds.o(i.fds_init) refers to nrf_fstorage.o(i.nrf_fstorage_init) for nrf_fstorage_init
    fds.o(i.fds_init) refers to nrf_atfifo.o(i.nrf_atfifo_init) for nrf_atfifo_init
    fds.o(i.fds_init) refers to fds.o(i.pages_init) for pages_init
    fds.o(i.fds_init) refers to fds.o(i.queue_buf_get) for queue_buf_get
    fds.o(i.fds_init) refers to fds.o(i.queue_buf_store) for queue_buf_store
    fds.o(i.fds_init) refers to fds.o(i.queue_start) for queue_start
    fds.o(i.fds_init) refers to fds.o(.data) for .data
    fds.o(i.fds_init) refers to fds.o(fs_data) for fs_data
    fds.o(i.fds_init) refers to nrf_fstorage_sd.o(.constdata) for nrf_fstorage_sd
    fds.o(i.fds_init) refers to fds.o(.bss) for .bss
    fds.o(i.fds_init) refers to fds.o(.constdata) for .constdata
    fds.o(i.fds_record_close) refers to fds.o(i.record_find_by_desc) for record_find_by_desc
    fds.o(i.fds_record_close) refers to fds.o(.bss) for .bss
    fds.o(i.fds_record_delete) refers to fds.o(i.queue_buf_get) for queue_buf_get
    fds.o(i.fds_record_delete) refers to fds.o(i.queue_buf_store) for queue_buf_store
    fds.o(i.fds_record_delete) refers to fds.o(i.queue_start) for queue_start
    fds.o(i.fds_record_delete) refers to fds.o(.data) for .data
    fds.o(i.fds_record_find) refers to fds.o(i.record_find) for record_find
    fds.o(i.fds_record_find_by_key) refers to fds.o(i.record_find) for record_find
    fds.o(i.fds_record_find_in_file) refers to fds.o(i.record_find) for record_find
    fds.o(i.fds_record_iterate) refers to fds.o(i.record_find) for record_find
    fds.o(i.fds_record_open) refers to fds.o(i.record_find_by_desc) for record_find_by_desc
    fds.o(i.fds_record_open) refers to nrf_atomic.o(i.nrf_atomic_u32_add) for nrf_atomic_u32_add
    fds.o(i.fds_record_open) refers to fds.o(.bss) for .bss
    fds.o(i.fds_record_update) refers to fds.o(i.write_enqueue) for write_enqueue
    fds.o(i.fds_record_write) refers to fds.o(i.write_enqueue) for write_enqueue
    fds.o(i.fds_record_write_reserved) refers to fds.o(i.write_enqueue) for write_enqueue
    fds.o(i.fds_register) refers to nrf_atomic.o(i.nrf_atomic_u32_add) for nrf_atomic_u32_add
    fds.o(i.fds_register) refers to fds.o(.data) for .data
    fds.o(i.fds_register) refers to fds.o(.bss) for .bss
    fds.o(i.fds_reserve) refers to fds.o(i.write_space_reserve) for write_space_reserve
    fds.o(i.fds_reserve) refers to fds.o(.data) for .data
    fds.o(i.fds_reserve_cancel) refers to fds.o(i.write_space_free) for write_space_free
    fds.o(i.fds_reserve_cancel) refers to fds.o(.data) for .data
    fds.o(i.fds_reserve_cancel) refers to fds.o(.bss) for .bss
    fds.o(i.fds_stat) refers to memseta.o(.text) for __aeabi_memclr
    fds.o(i.fds_stat) refers to fds.o(i.page_identify) for page_identify
    fds.o(i.fds_stat) refers to fds.o(i.records_stat) for records_stat
    fds.o(i.fds_stat) refers to fds.o(.data) for .data
    fds.o(i.fds_stat) refers to fds.o(.bss) for .bss
    fds.o(i.fs_event_handler) refers to fds.o(i.queue_process) for queue_process
    fds.o(i.gc_execute) refers to fds.o(i.gc_state_advance) for gc_state_advance
    fds.o(i.gc_execute) refers to fds.o(i.gc_next_page) for gc_next_page
    fds.o(i.gc_execute) refers to fds.o(i.gc_record_find_next) for gc_record_find_next
    fds.o(i.gc_execute) refers to fds.o(i.gc_record_copy) for gc_record_copy
    fds.o(i.gc_execute) refers to fds.o(i.gc_page_erase) for gc_page_erase
    fds.o(i.gc_execute) refers to fds.o(i.page_tag_write_data) for page_tag_write_data
    fds.o(i.gc_execute) refers to fds.o(i.page_tag_write_swap) for page_tag_write_swap
    fds.o(i.gc_execute) refers to fds.o(.bss) for .bss
    fds.o(i.gc_next_page) refers to fds.o(i.gc_record_find_next) for gc_record_find_next
    fds.o(i.gc_next_page) refers to fds.o(.bss) for .bss
    fds.o(i.gc_page_erase) refers to nrf_fstorage.o(i.nrf_fstorage_erase) for nrf_fstorage_erase
    fds.o(i.gc_page_erase) refers to fds.o(.bss) for .bss
    fds.o(i.gc_page_erase) refers to fds.o(.data) for .data
    fds.o(i.gc_page_erase) refers to fds.o(fs_data) for fs_data
    fds.o(i.gc_record_copy) refers to nrf_fstorage.o(i.nrf_fstorage_write) for nrf_fstorage_write
    fds.o(i.gc_record_copy) refers to fds.o(.bss) for .bss
    fds.o(i.gc_record_copy) refers to fds.o(.data) for .data
    fds.o(i.gc_record_copy) refers to fds.o(fs_data) for fs_data
    fds.o(i.gc_record_find_next) refers to fds.o(i.record_find_next) for record_find_next
    fds.o(i.gc_record_find_next) refers to fds.o(i.gc_record_copy) for gc_record_copy
    fds.o(i.gc_record_find_next) refers to fds.o(i.gc_page_erase) for gc_page_erase
    fds.o(i.gc_record_find_next) refers to fds.o(.bss) for .bss
    fds.o(i.gc_state_advance) refers to fds.o(.bss) for .bss
    fds.o(i.gc_state_advance) refers to fds.o(.data) for .data
    fds.o(i.init_execute) refers to fds.o(i.page_tag_write_swap) for page_tag_write_swap
    fds.o(i.init_execute) refers to fds.o(i.page_tag_write_data) for page_tag_write_data
    fds.o(i.init_execute) refers to nrf_fstorage.o(i.nrf_fstorage_erase) for nrf_fstorage_erase
    fds.o(i.init_execute) refers to fds.o(.data) for .data
    fds.o(i.init_execute) refers to fds.o(.bss) for .bss
    fds.o(i.init_execute) refers to fds.o(fs_data) for fs_data
    fds.o(i.page_scan) refers to fds.o(i.header_check) for header_check
    fds.o(i.page_scan) refers to fds.o(i.header_has_next) for header_has_next
    fds.o(i.page_scan) refers to fds.o(.data) for .data
    fds.o(i.page_tag_write_data) refers to nrf_fstorage.o(i.nrf_fstorage_write) for nrf_fstorage_write
    fds.o(i.page_tag_write_data) refers to fds.o(.constdata) for .constdata
    fds.o(i.page_tag_write_data) refers to fds.o(fs_data) for fs_data
    fds.o(i.page_tag_write_swap) refers to nrf_fstorage.o(i.nrf_fstorage_write) for nrf_fstorage_write
    fds.o(i.page_tag_write_swap) refers to fds.o(.data) for .data
    fds.o(i.page_tag_write_swap) refers to fds.o(.constdata) for .constdata
    fds.o(i.page_tag_write_swap) refers to fds.o(fs_data) for fs_data
    fds.o(i.pages_init) refers to fds.o(i.page_identify) for page_identify
    fds.o(i.pages_init) refers to fds.o(i.page_scan) for page_scan
    fds.o(i.pages_init) refers to fds.o(fs_data) for fs_data
    fds.o(i.pages_init) refers to fds.o(.bss) for .bss
    fds.o(i.pages_init) refers to fds.o(.data) for .data
    fds.o(i.queue_buf_get) refers to nrf_atfifo.o(i.nrf_atfifo_item_alloc) for nrf_atfifo_item_alloc
    fds.o(i.queue_buf_get) refers to memseta.o(.text) for __aeabi_memclr4
    fds.o(i.queue_buf_get) refers to fds.o(.constdata) for .constdata
    fds.o(i.queue_buf_store) refers to nrf_atfifo.o(i.nrf_atfifo_item_put) for nrf_atfifo_item_put
    fds.o(i.queue_buf_store) refers to fds.o(.constdata) for .constdata
    fds.o(i.queue_process) refers to nrf_atfifo.o(i.nrf_atfifo_item_get) for nrf_atfifo_item_get
    fds.o(i.queue_process) refers to fds.o(i.init_execute) for init_execute
    fds.o(i.queue_process) refers to fds.o(i.write_execute) for write_execute
    fds.o(i.queue_process) refers to fds.o(i.delete_execute) for delete_execute
    fds.o(i.queue_process) refers to fds.o(i.gc_execute) for gc_execute
    fds.o(i.queue_process) refers to memseta.o(.text) for __aeabi_memclr4
    fds.o(i.queue_process) refers to fds.o(i.event_prepare) for event_prepare
    fds.o(i.queue_process) refers to fds.o(i.event_send) for event_send
    fds.o(i.queue_process) refers to nrf_atfifo.o(i.nrf_atfifo_item_free) for nrf_atfifo_item_free
    fds.o(i.queue_process) refers to nrf_atomic.o(i.nrf_atomic_u32_sub) for nrf_atomic_u32_sub
    fds.o(i.queue_process) refers to fds.o(.data) for .data
    fds.o(i.queue_process) refers to fds.o(.constdata) for .constdata
    fds.o(i.queue_start) refers to nrf_atomic.o(i.nrf_atomic_u32_fetch_add) for nrf_atomic_u32_fetch_add
    fds.o(i.queue_start) refers to fds.o(i.queue_process) for queue_process
    fds.o(i.queue_start) refers to fds.o(.data) for .data
    fds.o(i.record_find) refers to fds.o(i.record_find_next) for record_find_next
    fds.o(i.record_find) refers to fds.o(.data) for .data
    fds.o(i.record_find) refers to fds.o(.bss) for .bss
    fds.o(i.record_find_by_desc) refers to fds.o(i.is_word_aligned) for is_word_aligned
    fds.o(i.record_find_by_desc) refers to fds.o(i.record_find_next) for record_find_next
    fds.o(i.record_find_by_desc) refers to fds.o(.bss) for .bss
    fds.o(i.record_find_by_desc) refers to fds.o(fs_data) for fs_data
    fds.o(i.record_find_next) refers to fds.o(i.header_check) for header_check
    fds.o(i.record_find_next) refers to fds.o(i.header_has_next) for header_has_next
    fds.o(i.record_find_next) refers to fds.o(.bss) for .bss
    fds.o(i.record_header_flag_dirty) refers to nrf_fstorage.o(i.nrf_fstorage_write) for nrf_fstorage_write
    fds.o(i.record_header_flag_dirty) refers to fds.o(.constdata) for .constdata
    fds.o(i.record_header_flag_dirty) refers to fds.o(fs_data) for fs_data
    fds.o(i.record_header_flag_dirty) refers to fds.o(.bss) for .bss
    fds.o(i.records_stat) refers to fds.o(i.header_check) for header_check
    fds.o(i.records_stat) refers to fds.o(i.header_has_next) for header_has_next
    fds.o(i.records_stat) refers to fds.o(.bss) for .bss
    fds.o(i.write_enqueue) refers to fds.o(i.is_word_aligned) for is_word_aligned
    fds.o(i.write_enqueue) refers to fds.o(i.queue_buf_get) for queue_buf_get
    fds.o(i.write_enqueue) refers to nrf_atomic.o(i.nrf_atomic_u32_add) for nrf_atomic_u32_add
    fds.o(i.write_enqueue) refers to fds.o(i.write_space_reserve) for write_space_reserve
    fds.o(i.write_enqueue) refers to fds.o(i.write_space_free) for write_space_free
    fds.o(i.write_enqueue) refers to fds.o(i.queue_buf_store) for queue_buf_store
    fds.o(i.write_enqueue) refers to fds.o(i.queue_start) for queue_start
    fds.o(i.write_enqueue) refers to fds.o(.data) for .data
    fds.o(i.write_enqueue) refers to fds.o(.bss) for .bss
    fds.o(i.write_execute) refers to fds.o(i.page_offsets_update) for page_offsets_update
    fds.o(i.write_execute) refers to fds.o(i.record_find_by_desc) for record_find_by_desc
    fds.o(i.write_execute) refers to nrf_fstorage.o(i.nrf_fstorage_write) for nrf_fstorage_write
    fds.o(i.write_execute) refers to fds.o(i.record_header_flag_dirty) for record_header_flag_dirty
    fds.o(i.write_execute) refers to fds.o(.bss) for .bss
    fds.o(i.write_execute) refers to fds.o(.data) for .data
    fds.o(i.write_execute) refers to fds.o(fs_data) for fs_data
    fds.o(i.write_space_free) refers to fds.o(.bss) for .bss
    fds.o(i.write_space_reserve) refers to fds.o(.bss) for .bss
    fds.o(.constdata) refers to fds.o(.bss) for m_queue_inst
    fds.o(fs_data) refers to fds.o(i.fs_event_handler) for fs_event_handler
    nrf_assert.o(i.assert_nrf_callback) refers to app_error_weak.o(i.app_error_fault_handler) for app_error_fault_handler
    nrf_atfifo.o(i.nrf_atfifo_alloc_put) refers to nrf_atfifo.o(i.nrf_atfifo_item_alloc) for nrf_atfifo_item_alloc
    nrf_atfifo.o(i.nrf_atfifo_alloc_put) refers to memcpya.o(.text) for __aeabi_memcpy
    nrf_atfifo.o(i.nrf_atfifo_alloc_put) refers to nrf_atfifo.o(i.nrf_atfifo_item_put) for nrf_atfifo_item_put
    nrf_atfifo.o(i.nrf_atfifo_clear) refers to nrf_atfifo.o(.emb_text) for __asm___12_nrf_atfifo_c_51f461e1__nrf_atfifo_space_clear
    nrf_atfifo.o(i.nrf_atfifo_get_free) refers to nrf_atfifo.o(i.nrf_atfifo_item_get) for nrf_atfifo_item_get
    nrf_atfifo.o(i.nrf_atfifo_get_free) refers to memcpya.o(.text) for __aeabi_memcpy
    nrf_atfifo.o(i.nrf_atfifo_get_free) refers to nrf_atfifo.o(i.nrf_atfifo_item_free) for nrf_atfifo_item_free
    nrf_atfifo.o(i.nrf_atfifo_item_alloc) refers to nrf_atfifo.o(.emb_text) for __asm___12_nrf_atfifo_c_51f461e1__nrf_atfifo_wspace_req
    nrf_atfifo.o(i.nrf_atfifo_item_free) refers to nrf_atfifo.o(.emb_text) for __asm___12_nrf_atfifo_c_51f461e1__nrf_atfifo_rspace_close
    nrf_atfifo.o(i.nrf_atfifo_item_get) refers to nrf_atfifo.o(.emb_text) for __asm___12_nrf_atfifo_c_51f461e1__nrf_atfifo_rspace_req
    nrf_atfifo.o(i.nrf_atfifo_item_put) refers to nrf_atfifo.o(.emb_text) for __asm___12_nrf_atfifo_c_51f461e1__nrf_atfifo_wspace_close
    nrf_atflags.o(i.nrf_atflags_clear) refers to nrf_atomic.o(i.nrf_atomic_u32_and) for nrf_atomic_u32_and
    nrf_atflags.o(i.nrf_atflags_fetch_clear) refers to nrf_atomic.o(i.nrf_atomic_u32_fetch_and) for nrf_atomic_u32_fetch_and
    nrf_atflags.o(i.nrf_atflags_fetch_set) refers to nrf_atomic.o(i.nrf_atomic_u32_fetch_or) for nrf_atomic_u32_fetch_or
    nrf_atflags.o(i.nrf_atflags_find_and_clear_flag) refers to nrf_atflags.o(i.nrf_atflags_fetch_clear) for nrf_atflags_fetch_clear
    nrf_atflags.o(i.nrf_atflags_find_and_set_flag) refers to nrf_atflags.o(i.nrf_atflags_fetch_set) for nrf_atflags_fetch_set
    nrf_atflags.o(i.nrf_atflags_set) refers to nrf_atomic.o(i.nrf_atomic_u32_or) for nrf_atomic_u32_or
    nrf_atomic.o(i.nrf_atomic_flag_clear) refers to nrf_atomic.o(i.nrf_atomic_u32_and) for nrf_atomic_u32_and
    nrf_atomic.o(i.nrf_atomic_flag_clear_fetch) refers to nrf_atomic.o(i.nrf_atomic_u32_fetch_and) for nrf_atomic_u32_fetch_and
    nrf_atomic.o(i.nrf_atomic_flag_set) refers to nrf_atomic.o(i.nrf_atomic_u32_or) for nrf_atomic_u32_or
    nrf_atomic.o(i.nrf_atomic_flag_set_fetch) refers to nrf_atomic.o(i.nrf_atomic_u32_fetch_or) for nrf_atomic_u32_fetch_or
    nrf_atomic.o(i.nrf_atomic_u32_add) refers to nrf_atomic.o(.emb_text) for __asm___12_nrf_atomic_c_85ca2469__nrf_atomic_internal_add
    nrf_atomic.o(i.nrf_atomic_u32_and) refers to nrf_atomic.o(.emb_text) for __asm___12_nrf_atomic_c_85ca2469__nrf_atomic_internal_and
    nrf_atomic.o(i.nrf_atomic_u32_cmp_exch) refers to nrf_atomic.o(.emb_text) for __asm___12_nrf_atomic_c_85ca2469__nrf_atomic_internal_cmp_exch
    nrf_atomic.o(i.nrf_atomic_u32_fetch_add) refers to nrf_atomic.o(.emb_text) for __asm___12_nrf_atomic_c_85ca2469__nrf_atomic_internal_add
    nrf_atomic.o(i.nrf_atomic_u32_fetch_and) refers to nrf_atomic.o(.emb_text) for __asm___12_nrf_atomic_c_85ca2469__nrf_atomic_internal_and
    nrf_atomic.o(i.nrf_atomic_u32_fetch_or) refers to nrf_atomic.o(.emb_text) for __asm___12_nrf_atomic_c_85ca2469__nrf_atomic_internal_orr
    nrf_atomic.o(i.nrf_atomic_u32_fetch_store) refers to nrf_atomic.o(.emb_text) for __asm___12_nrf_atomic_c_85ca2469__nrf_atomic_internal_mov
    nrf_atomic.o(i.nrf_atomic_u32_fetch_sub) refers to nrf_atomic.o(.emb_text) for __asm___12_nrf_atomic_c_85ca2469__nrf_atomic_internal_sub
    nrf_atomic.o(i.nrf_atomic_u32_fetch_sub_hs) refers to nrf_atomic.o(.emb_text) for __asm___12_nrf_atomic_c_85ca2469__nrf_atomic_internal_sub_hs
    nrf_atomic.o(i.nrf_atomic_u32_fetch_xor) refers to nrf_atomic.o(.emb_text) for __asm___12_nrf_atomic_c_85ca2469__nrf_atomic_internal_eor
    nrf_atomic.o(i.nrf_atomic_u32_or) refers to nrf_atomic.o(.emb_text) for __asm___12_nrf_atomic_c_85ca2469__nrf_atomic_internal_orr
    nrf_atomic.o(i.nrf_atomic_u32_store) refers to nrf_atomic.o(.emb_text) for __asm___12_nrf_atomic_c_85ca2469__nrf_atomic_internal_mov
    nrf_atomic.o(i.nrf_atomic_u32_sub) refers to nrf_atomic.o(.emb_text) for __asm___12_nrf_atomic_c_85ca2469__nrf_atomic_internal_sub
    nrf_atomic.o(i.nrf_atomic_u32_sub_hs) refers to nrf_atomic.o(.emb_text) for __asm___12_nrf_atomic_c_85ca2469__nrf_atomic_internal_sub_hs
    nrf_atomic.o(i.nrf_atomic_u32_xor) refers to nrf_atomic.o(.emb_text) for __asm___12_nrf_atomic_c_85ca2469__nrf_atomic_internal_eor
    nrf_balloc.o(i.nrf_balloc_alloc) refers to app_util_platform.o(i.app_util_critical_region_enter) for app_util_critical_region_enter
    nrf_balloc.o(i.nrf_balloc_alloc) refers to app_util_platform.o(i.app_util_critical_region_exit) for app_util_critical_region_exit
    nrf_balloc.o(i.nrf_balloc_free) refers to app_util_platform.o(i.app_util_critical_region_enter) for app_util_critical_region_enter
    nrf_balloc.o(i.nrf_balloc_free) refers to app_util_platform.o(i.app_util_critical_region_exit) for app_util_critical_region_exit
    nrf_fprintf.o(i.nrf_fprintf) refers to nrf_fprintf_format.o(i.nrf_fprintf_fmt) for nrf_fprintf_fmt
    nrf_fprintf_format.o(i.buffer_add) refers to nrf_fprintf.o(i.nrf_fprintf_buffer_flush) for nrf_fprintf_buffer_flush
    nrf_fprintf_format.o(i.int_print) refers to nrf_fprintf_format.o(i.buffer_add) for buffer_add
    nrf_fprintf_format.o(i.int_print) refers to nrf_fprintf_format.o(i.unsigned_print) for unsigned_print
    nrf_fprintf_format.o(i.nrf_fprintf_fmt) refers to nrf_fprintf_format.o(i.buffer_add) for buffer_add
    nrf_fprintf_format.o(i.nrf_fprintf_fmt) refers to nrf_fprintf.o(i.nrf_fprintf_buffer_flush) for nrf_fprintf_buffer_flush
    nrf_fprintf_format.o(i.nrf_fprintf_fmt) refers to nrf_fprintf_format.o(i.int_print) for int_print
    nrf_fprintf_format.o(i.nrf_fprintf_fmt) refers to nrf_fprintf_format.o(i.unsigned_print) for unsigned_print
    nrf_fprintf_format.o(i.nrf_fprintf_fmt) refers to strlen.o(.text) for strlen
    nrf_fprintf_format.o(i.unsigned_print) refers to nrf_fprintf_format.o(i.buffer_add) for buffer_add
    nrf_fprintf_format.o(i.unsigned_print) refers to nrf_fprintf_format.o(.constdata) for .constdata
    nrf_fstorage.o(i.nrf_fstorage_erase) refers to nrf_fstorage.o(i.addr_is_within_bounds) for addr_is_within_bounds
    nrf_fstorage.o(i.nrf_fstorage_read) refers to nrf_fstorage.o(i.addr_is_aligned32) for addr_is_aligned32
    nrf_fstorage.o(i.nrf_fstorage_read) refers to nrf_fstorage.o(i.addr_is_within_bounds) for addr_is_within_bounds
    nrf_fstorage.o(i.nrf_fstorage_write) refers to nrf_fstorage.o(i.addr_is_aligned32) for addr_is_aligned32
    nrf_fstorage.o(i.nrf_fstorage_write) refers to nrf_fstorage.o(i.addr_is_within_bounds) for addr_is_within_bounds
    nrf_fstorage_sd.o(i.erase) refers to nrf_atfifo.o(i.nrf_atfifo_item_alloc) for nrf_atfifo_item_alloc
    nrf_fstorage_sd.o(i.erase) refers to memseta.o(.text) for __aeabi_memclr4
    nrf_fstorage_sd.o(i.erase) refers to nrf_atfifo.o(i.nrf_atfifo_item_put) for nrf_atfifo_item_put
    nrf_fstorage_sd.o(i.erase) refers to nrf_fstorage_sd.o(i.queue_start) for queue_start
    nrf_fstorage_sd.o(i.erase) refers to nrf_fstorage_sd.o(.constdata) for .constdata
    nrf_fstorage_sd.o(i.event_send) refers to memseta.o(.text) for __aeabi_memclr4
    nrf_fstorage_sd.o(i.init) refers to nrf_atomic.o(i.nrf_atomic_flag_set_fetch) for nrf_atomic_flag_set_fetch
    nrf_fstorage_sd.o(i.init) refers to nrf_sdh.o(i.nrf_sdh_is_enabled) for nrf_sdh_is_enabled
    nrf_fstorage_sd.o(i.init) refers to nrf_atfifo.o(i.nrf_atfifo_init) for nrf_atfifo_init
    nrf_fstorage_sd.o(i.init) refers to nrf_fstorage_sd.o(.constdata) for .constdata
    nrf_fstorage_sd.o(i.init) refers to nrf_fstorage_sd.o(.bss) for .bss
    nrf_fstorage_sd.o(i.is_busy) refers to nrf_fstorage_sd.o(.bss) for .bss
    nrf_fstorage_sd.o(i.nrf_fstorage_sdh_req_handler) refers to nrf_fstorage_sd.o(.bss) for .bss
    nrf_fstorage_sd.o(i.nrf_fstorage_sdh_state_handler) refers to nrf_fstorage_sd.o(i.queue_process) for queue_process
    nrf_fstorage_sd.o(i.nrf_fstorage_sdh_state_handler) refers to nrf_fstorage_sd.o(.bss) for .bss
    nrf_fstorage_sd.o(i.nrf_fstorage_sys_evt_handler) refers to nrf_fstorage_sd.o(i.event_send) for event_send
    nrf_fstorage_sd.o(i.nrf_fstorage_sys_evt_handler) refers to nrf_fstorage_sd.o(i.queue_free) for queue_free
    nrf_fstorage_sd.o(i.nrf_fstorage_sys_evt_handler) refers to nrf_sdh.o(i.nrf_sdh_request_continue) for nrf_sdh_request_continue
    nrf_fstorage_sd.o(i.nrf_fstorage_sys_evt_handler) refers to nrf_fstorage_sd.o(i.queue_process) for queue_process
    nrf_fstorage_sd.o(i.nrf_fstorage_sys_evt_handler) refers to nrf_fstorage_sd.o(.bss) for .bss
    nrf_fstorage_sd.o(i.nrf_fstorage_sys_evt_handler) refers to nrf_fstorage_sd.o(.data) for .data
    nrf_fstorage_sd.o(i.queue_free) refers to nrf_atfifo.o(i.nrf_atfifo_item_free) for nrf_atfifo_item_free
    nrf_fstorage_sd.o(i.queue_free) refers to nrf_fstorage_sd.o(.data) for .data
    nrf_fstorage_sd.o(i.queue_free) refers to nrf_fstorage_sd.o(.constdata) for .constdata
    nrf_fstorage_sd.o(i.queue_process) refers to nrf_atfifo.o(i.nrf_atfifo_item_get) for nrf_atfifo_item_get
    nrf_fstorage_sd.o(i.queue_process) refers to nrf_fstorage_sd.o(i.event_send) for event_send
    nrf_fstorage_sd.o(i.queue_process) refers to nrf_fstorage_sd.o(i.queue_free) for queue_free
    nrf_fstorage_sd.o(i.queue_process) refers to nrf_fstorage_sd.o(i.nrf_fstorage_sys_evt_handler) for nrf_fstorage_sys_evt_handler
    nrf_fstorage_sd.o(i.queue_process) refers to nrf_fstorage_sd.o(.bss) for .bss
    nrf_fstorage_sd.o(i.queue_process) refers to nrf_fstorage_sd.o(.data) for .data
    nrf_fstorage_sd.o(i.queue_process) refers to nrf_fstorage_sd.o(.constdata) for .constdata
    nrf_fstorage_sd.o(i.queue_start) refers to nrf_atomic.o(i.nrf_atomic_flag_set_fetch) for nrf_atomic_flag_set_fetch
    nrf_fstorage_sd.o(i.queue_start) refers to nrf_fstorage_sd.o(i.queue_process) for queue_process
    nrf_fstorage_sd.o(i.queue_start) refers to nrf_fstorage_sd.o(.bss) for .bss
    nrf_fstorage_sd.o(i.read) refers to memcpya.o(.text) for __aeabi_memcpy
    nrf_fstorage_sd.o(i.uninit) refers to memseta.o(.text) for __aeabi_memclr4
    nrf_fstorage_sd.o(i.uninit) refers to nrf_atfifo.o(i.nrf_atfifo_clear) for nrf_atfifo_clear
    nrf_fstorage_sd.o(i.uninit) refers to nrf_fstorage_sd.o(.bss) for .bss
    nrf_fstorage_sd.o(i.uninit) refers to nrf_fstorage_sd.o(.constdata) for .constdata
    nrf_fstorage_sd.o(i.write) refers to nrf_atfifo.o(i.nrf_atfifo_item_alloc) for nrf_atfifo_item_alloc
    nrf_fstorage_sd.o(i.write) refers to memseta.o(.text) for __aeabi_memclr4
    nrf_fstorage_sd.o(i.write) refers to nrf_atfifo.o(i.nrf_atfifo_item_put) for nrf_atfifo_item_put
    nrf_fstorage_sd.o(i.write) refers to nrf_fstorage_sd.o(i.queue_start) for queue_start
    nrf_fstorage_sd.o(i.write) refers to nrf_fstorage_sd.o(.constdata) for .constdata
    nrf_fstorage_sd.o(.constdata) refers to nrf_fstorage_sd.o(.bss) for m_fifo_inst
    nrf_fstorage_sd.o(.constdata) refers to nrf_fstorage_sd.o(i.init) for init
    nrf_fstorage_sd.o(.constdata) refers to nrf_fstorage_sd.o(i.uninit) for uninit
    nrf_fstorage_sd.o(.constdata) refers to nrf_fstorage_sd.o(i.read) for read
    nrf_fstorage_sd.o(.constdata) refers to nrf_fstorage_sd.o(i.write) for write
    nrf_fstorage_sd.o(.constdata) refers to nrf_fstorage_sd.o(i.erase) for erase
    nrf_fstorage_sd.o(.constdata) refers to nrf_fstorage_sd.o(i.rmap) for rmap
    nrf_fstorage_sd.o(.constdata) refers to nrf_fstorage_sd.o(i.wmap) for wmap
    nrf_fstorage_sd.o(.constdata) refers to nrf_fstorage_sd.o(i.is_busy) for is_busy
    nrf_fstorage_sd.o(sdh_req_observers0) refers to nrf_fstorage_sd.o(i.nrf_fstorage_sdh_req_handler) for nrf_fstorage_sdh_req_handler
    nrf_fstorage_sd.o(sdh_soc_observers0) refers to nrf_fstorage_sd.o(i.nrf_fstorage_sys_evt_handler) for nrf_fstorage_sys_evt_handler
    nrf_fstorage_sd.o(sdh_state_observers0) refers to nrf_fstorage_sd.o(i.nrf_fstorage_sdh_state_handler) for nrf_fstorage_sdh_state_handler
    nrf_memobj.o(i.memobj_op) refers to memcpya.o(.text) for __aeabi_memcpy
    nrf_memobj.o(i.nrf_memobj_alloc) refers to nrf_balloc.o(i.nrf_balloc_alloc) for nrf_balloc_alloc
    nrf_memobj.o(i.nrf_memobj_alloc) refers to nrf_memobj.o(i.nrf_memobj_free) for nrf_memobj_free
    nrf_memobj.o(i.nrf_memobj_free) refers to nrf_balloc.o(i.nrf_balloc_free) for nrf_balloc_free
    nrf_memobj.o(i.nrf_memobj_get) refers to nrf_atomic.o(i.nrf_atomic_u32_add) for nrf_atomic_u32_add
    nrf_memobj.o(i.nrf_memobj_pool_init) refers to nrf_balloc.o(i.nrf_balloc_init) for nrf_balloc_init
    nrf_memobj.o(i.nrf_memobj_put) refers to nrf_atomic.o(i.nrf_atomic_u32_sub) for nrf_atomic_u32_sub
    nrf_memobj.o(i.nrf_memobj_put) refers to nrf_memobj.o(i.nrf_memobj_free) for nrf_memobj_free
    nrf_memobj.o(i.nrf_memobj_read) refers to nrf_memobj.o(i.memobj_op) for memobj_op
    nrf_memobj.o(i.nrf_memobj_write) refers to nrf_memobj.o(i.memobj_op) for memobj_op
    nrf_section_iter.o(i.nrf_section_iter_init) refers to nrf_section_iter.o(i.nrf_section_iter_item_set) for nrf_section_iter_item_set
    nrf_section_iter.o(i.nrf_section_iter_next) refers to nrf_section_iter.o(i.nrf_section_iter_item_set) for nrf_section_iter_item_set
    nrf_strerror.o(i.nrf_strerror_find) refers to nrf_strerror.o(.constdata) for .constdata
    nrf_strerror.o(i.nrf_strerror_get) refers to nrf_strerror.o(i.nrf_strerror_find) for nrf_strerror_find
    nrf_strerror.o(i.nrf_strerror_get) refers to nrf_strerror.o(.constdata) for .constdata
    nrf_strerror.o(.constdata) refers to nrf_strerror.o(.conststring) for .conststring
    segger_rtt.o(i.SEGGER_RTT_AllocDownBuffer) refers to segger_rtt.o(i._DoInit) for _DoInit
    segger_rtt.o(i.SEGGER_RTT_AllocDownBuffer) refers to app_util_platform.o(i.app_util_critical_region_enter) for app_util_critical_region_enter
    segger_rtt.o(i.SEGGER_RTT_AllocDownBuffer) refers to app_util_platform.o(i.app_util_critical_region_exit) for app_util_critical_region_exit
    segger_rtt.o(i.SEGGER_RTT_AllocDownBuffer) refers to segger_rtt.o(.bss) for .bss
    segger_rtt.o(i.SEGGER_RTT_AllocUpBuffer) refers to segger_rtt.o(i._DoInit) for _DoInit
    segger_rtt.o(i.SEGGER_RTT_AllocUpBuffer) refers to app_util_platform.o(i.app_util_critical_region_enter) for app_util_critical_region_enter
    segger_rtt.o(i.SEGGER_RTT_AllocUpBuffer) refers to app_util_platform.o(i.app_util_critical_region_exit) for app_util_critical_region_exit
    segger_rtt.o(i.SEGGER_RTT_AllocUpBuffer) refers to segger_rtt.o(.bss) for .bss
    segger_rtt.o(i.SEGGER_RTT_ConfigDownBuffer) refers to segger_rtt.o(i._DoInit) for _DoInit
    segger_rtt.o(i.SEGGER_RTT_ConfigDownBuffer) refers to app_util_platform.o(i.app_util_critical_region_enter) for app_util_critical_region_enter
    segger_rtt.o(i.SEGGER_RTT_ConfigDownBuffer) refers to app_util_platform.o(i.app_util_critical_region_exit) for app_util_critical_region_exit
    segger_rtt.o(i.SEGGER_RTT_ConfigDownBuffer) refers to segger_rtt.o(.bss) for .bss
    segger_rtt.o(i.SEGGER_RTT_ConfigUpBuffer) refers to segger_rtt.o(i._DoInit) for _DoInit
    segger_rtt.o(i.SEGGER_RTT_ConfigUpBuffer) refers to app_util_platform.o(i.app_util_critical_region_enter) for app_util_critical_region_enter
    segger_rtt.o(i.SEGGER_RTT_ConfigUpBuffer) refers to app_util_platform.o(i.app_util_critical_region_exit) for app_util_critical_region_exit
    segger_rtt.o(i.SEGGER_RTT_ConfigUpBuffer) refers to segger_rtt.o(.bss) for .bss
    segger_rtt.o(i.SEGGER_RTT_GetKey) refers to segger_rtt.o(i.SEGGER_RTT_Read) for SEGGER_RTT_Read
    segger_rtt.o(i.SEGGER_RTT_HasData) refers to segger_rtt.o(.bss) for .bss
    segger_rtt.o(i.SEGGER_RTT_HasKey) refers to segger_rtt.o(i._DoInit) for _DoInit
    segger_rtt.o(i.SEGGER_RTT_HasKey) refers to segger_rtt.o(.bss) for .bss
    segger_rtt.o(i.SEGGER_RTT_Init) refers to segger_rtt.o(i._DoInit) for _DoInit
    segger_rtt.o(i.SEGGER_RTT_PutChar) refers to segger_rtt.o(i._DoInit) for _DoInit
    segger_rtt.o(i.SEGGER_RTT_PutChar) refers to app_util_platform.o(i.app_util_critical_region_enter) for app_util_critical_region_enter
    segger_rtt.o(i.SEGGER_RTT_PutChar) refers to app_util_platform.o(i.app_util_critical_region_exit) for app_util_critical_region_exit
    segger_rtt.o(i.SEGGER_RTT_PutChar) refers to segger_rtt.o(.bss) for .bss
    segger_rtt.o(i.SEGGER_RTT_PutCharSkip) refers to segger_rtt.o(i._DoInit) for _DoInit
    segger_rtt.o(i.SEGGER_RTT_PutCharSkip) refers to app_util_platform.o(i.app_util_critical_region_enter) for app_util_critical_region_enter
    segger_rtt.o(i.SEGGER_RTT_PutCharSkip) refers to app_util_platform.o(i.app_util_critical_region_exit) for app_util_critical_region_exit
    segger_rtt.o(i.SEGGER_RTT_PutCharSkip) refers to segger_rtt.o(.bss) for .bss
    segger_rtt.o(i.SEGGER_RTT_PutCharSkipNoLock) refers to segger_rtt.o(.bss) for .bss
    segger_rtt.o(i.SEGGER_RTT_Read) refers to app_util_platform.o(i.app_util_critical_region_enter) for app_util_critical_region_enter
    segger_rtt.o(i.SEGGER_RTT_Read) refers to segger_rtt.o(i.SEGGER_RTT_ReadNoLock) for SEGGER_RTT_ReadNoLock
    segger_rtt.o(i.SEGGER_RTT_Read) refers to app_util_platform.o(i.app_util_critical_region_exit) for app_util_critical_region_exit
    segger_rtt.o(i.SEGGER_RTT_ReadNoLock) refers to segger_rtt.o(i._DoInit) for _DoInit
    segger_rtt.o(i.SEGGER_RTT_ReadNoLock) refers to memcpya.o(.text) for __aeabi_memcpy
    segger_rtt.o(i.SEGGER_RTT_ReadNoLock) refers to segger_rtt.o(.bss) for .bss
    segger_rtt.o(i.SEGGER_RTT_SetFlagsDownBuffer) refers to segger_rtt.o(i._DoInit) for _DoInit
    segger_rtt.o(i.SEGGER_RTT_SetFlagsDownBuffer) refers to app_util_platform.o(i.app_util_critical_region_enter) for app_util_critical_region_enter
    segger_rtt.o(i.SEGGER_RTT_SetFlagsDownBuffer) refers to app_util_platform.o(i.app_util_critical_region_exit) for app_util_critical_region_exit
    segger_rtt.o(i.SEGGER_RTT_SetFlagsDownBuffer) refers to segger_rtt.o(.bss) for .bss
    segger_rtt.o(i.SEGGER_RTT_SetFlagsUpBuffer) refers to segger_rtt.o(i._DoInit) for _DoInit
    segger_rtt.o(i.SEGGER_RTT_SetFlagsUpBuffer) refers to app_util_platform.o(i.app_util_critical_region_enter) for app_util_critical_region_enter
    segger_rtt.o(i.SEGGER_RTT_SetFlagsUpBuffer) refers to app_util_platform.o(i.app_util_critical_region_exit) for app_util_critical_region_exit
    segger_rtt.o(i.SEGGER_RTT_SetFlagsUpBuffer) refers to segger_rtt.o(.bss) for .bss
    segger_rtt.o(i.SEGGER_RTT_SetNameDownBuffer) refers to segger_rtt.o(i._DoInit) for _DoInit
    segger_rtt.o(i.SEGGER_RTT_SetNameDownBuffer) refers to app_util_platform.o(i.app_util_critical_region_enter) for app_util_critical_region_enter
    segger_rtt.o(i.SEGGER_RTT_SetNameDownBuffer) refers to app_util_platform.o(i.app_util_critical_region_exit) for app_util_critical_region_exit
    segger_rtt.o(i.SEGGER_RTT_SetNameDownBuffer) refers to segger_rtt.o(.bss) for .bss
    segger_rtt.o(i.SEGGER_RTT_SetNameUpBuffer) refers to segger_rtt.o(i._DoInit) for _DoInit
    segger_rtt.o(i.SEGGER_RTT_SetNameUpBuffer) refers to app_util_platform.o(i.app_util_critical_region_enter) for app_util_critical_region_enter
    segger_rtt.o(i.SEGGER_RTT_SetNameUpBuffer) refers to app_util_platform.o(i.app_util_critical_region_exit) for app_util_critical_region_exit
    segger_rtt.o(i.SEGGER_RTT_SetNameUpBuffer) refers to segger_rtt.o(.bss) for .bss
    segger_rtt.o(i.SEGGER_RTT_SetTerminal) refers to segger_rtt.o(i._DoInit) for _DoInit
    segger_rtt.o(i.SEGGER_RTT_SetTerminal) refers to app_util_platform.o(i.app_util_critical_region_enter) for app_util_critical_region_enter
    segger_rtt.o(i.SEGGER_RTT_SetTerminal) refers to segger_rtt.o(i._GetAvailWriteSpace) for _GetAvailWriteSpace
    segger_rtt.o(i.SEGGER_RTT_SetTerminal) refers to segger_rtt.o(i._WriteNoCheck) for _WriteNoCheck
    segger_rtt.o(i.SEGGER_RTT_SetTerminal) refers to segger_rtt.o(i._WriteBlocking) for _WriteBlocking
    segger_rtt.o(i.SEGGER_RTT_SetTerminal) refers to app_util_platform.o(i.app_util_critical_region_exit) for app_util_critical_region_exit
    segger_rtt.o(i.SEGGER_RTT_SetTerminal) refers to segger_rtt.o(.bss) for .bss
    segger_rtt.o(i.SEGGER_RTT_SetTerminal) refers to segger_rtt.o(.data) for .data
    segger_rtt.o(i.SEGGER_RTT_TerminalOut) refers to segger_rtt.o(i._DoInit) for _DoInit
    segger_rtt.o(i.SEGGER_RTT_TerminalOut) refers to strlen.o(.text) for strlen
    segger_rtt.o(i.SEGGER_RTT_TerminalOut) refers to app_util_platform.o(i.app_util_critical_region_enter) for app_util_critical_region_enter
    segger_rtt.o(i.SEGGER_RTT_TerminalOut) refers to segger_rtt.o(i._GetAvailWriteSpace) for _GetAvailWriteSpace
    segger_rtt.o(i.SEGGER_RTT_TerminalOut) refers to segger_rtt.o(i._PostTerminalSwitch) for _PostTerminalSwitch
    segger_rtt.o(i.SEGGER_RTT_TerminalOut) refers to segger_rtt.o(i._WriteBlocking) for _WriteBlocking
    segger_rtt.o(i.SEGGER_RTT_TerminalOut) refers to app_util_platform.o(i.app_util_critical_region_exit) for app_util_critical_region_exit
    segger_rtt.o(i.SEGGER_RTT_TerminalOut) refers to segger_rtt.o(.bss) for .bss
    segger_rtt.o(i.SEGGER_RTT_TerminalOut) refers to segger_rtt.o(.data) for .data
    segger_rtt.o(i.SEGGER_RTT_WaitKey) refers to segger_rtt.o(i.SEGGER_RTT_GetKey) for SEGGER_RTT_GetKey
    segger_rtt.o(i.SEGGER_RTT_Write) refers to segger_rtt.o(i._DoInit) for _DoInit
    segger_rtt.o(i.SEGGER_RTT_Write) refers to app_util_platform.o(i.app_util_critical_region_enter) for app_util_critical_region_enter
    segger_rtt.o(i.SEGGER_RTT_Write) refers to segger_rtt.o(i.SEGGER_RTT_WriteNoLock) for SEGGER_RTT_WriteNoLock
    segger_rtt.o(i.SEGGER_RTT_Write) refers to app_util_platform.o(i.app_util_critical_region_exit) for app_util_critical_region_exit
    segger_rtt.o(i.SEGGER_RTT_Write) refers to segger_rtt.o(.bss) for .bss
    segger_rtt.o(i.SEGGER_RTT_WriteNoLock) refers to segger_rtt.o(i._GetAvailWriteSpace) for _GetAvailWriteSpace
    segger_rtt.o(i.SEGGER_RTT_WriteNoLock) refers to segger_rtt.o(i._WriteNoCheck) for _WriteNoCheck
    segger_rtt.o(i.SEGGER_RTT_WriteNoLock) refers to segger_rtt.o(i._WriteBlocking) for _WriteBlocking
    segger_rtt.o(i.SEGGER_RTT_WriteNoLock) refers to segger_rtt.o(.bss) for .bss
    segger_rtt.o(i.SEGGER_RTT_WriteSkipNoLock) refers to memcpya.o(.text) for __aeabi_memcpy
    segger_rtt.o(i.SEGGER_RTT_WriteSkipNoLock) refers to segger_rtt.o(.bss) for .bss
    segger_rtt.o(i.SEGGER_RTT_WriteString) refers to strlen.o(.text) for strlen
    segger_rtt.o(i.SEGGER_RTT_WriteString) refers to segger_rtt.o(i.SEGGER_RTT_Write) for SEGGER_RTT_Write
    segger_rtt.o(i.SEGGER_RTT_WriteWithOverwriteNoLock) refers to memcpya.o(.text) for __aeabi_memcpy
    segger_rtt.o(i.SEGGER_RTT_WriteWithOverwriteNoLock) refers to segger_rtt.o(.bss) for .bss
    segger_rtt.o(i._DoInit) refers to strcpy.o(.text) for strcpy
    segger_rtt.o(i._DoInit) refers to segger_rtt.o(.bss) for .bss
    segger_rtt.o(i._PostTerminalSwitch) refers to segger_rtt.o(i._WriteBlocking) for _WriteBlocking
    segger_rtt.o(i._PostTerminalSwitch) refers to segger_rtt.o(.data) for .data
    segger_rtt.o(i._WriteBlocking) refers to memcpya.o(.text) for __aeabi_memcpy
    segger_rtt.o(i._WriteNoCheck) refers to memcpya.o(.text) for __aeabi_memcpy
    segger_rtt_printf.o(i.SEGGER_RTT_printf) refers to segger_rtt_printf.o(i.SEGGER_RTT_vprintf) for SEGGER_RTT_vprintf
    segger_rtt_printf.o(i.SEGGER_RTT_vprintf) refers to segger_rtt_printf.o(i._StoreChar) for _StoreChar
    segger_rtt_printf.o(i.SEGGER_RTT_vprintf) refers to segger_rtt_printf.o(i._PrintInt) for _PrintInt
    segger_rtt_printf.o(i.SEGGER_RTT_vprintf) refers to segger_rtt_printf.o(i._PrintUnsigned) for _PrintUnsigned
    segger_rtt_printf.o(i.SEGGER_RTT_vprintf) refers to segger_rtt.o(i.SEGGER_RTT_Write) for SEGGER_RTT_Write
    segger_rtt_printf.o(i._PrintInt) refers to segger_rtt_printf.o(i._StoreChar) for _StoreChar
    segger_rtt_printf.o(i._PrintInt) refers to segger_rtt_printf.o(i._PrintUnsigned) for _PrintUnsigned
    segger_rtt_printf.o(i._PrintUnsigned) refers to segger_rtt_printf.o(i._StoreChar) for _StoreChar
    segger_rtt_printf.o(i._PrintUnsigned) refers to segger_rtt_printf.o(.constdata) for .constdata
    segger_rtt_printf.o(i._StoreChar) refers to segger_rtt.o(i.SEGGER_RTT_Write) for SEGGER_RTT_Write
    segger_rtt_syscalls_keil.o(i._sys_open) refers to strcmp.o(.text) for strcmp
    segger_rtt_syscalls_keil.o(i._sys_open) refers to segger_rtt_syscalls_keil.o(.constdata) for .constdata
    segger_rtt_syscalls_keil.o(i._sys_write) refers to segger_rtt.o(i.SEGGER_RTT_Write) for SEGGER_RTT_Write
    segger_rtt_syscalls_keil.o(i._ttywrch) refers to fputc.o(i.fputc) for fputc
    segger_rtt_syscalls_keil.o(i._ttywrch) refers to fflush.o(.text) for fflush
    segger_rtt_syscalls_keil.o(i._ttywrch) refers to stdout.o(.data) for __stdout
    nrf_sdh.o(i.SWI2_EGU2_IRQHandler) refers to app_scheduler.o(i.app_sched_event_put) for app_sched_event_put
    nrf_sdh.o(i.SWI2_EGU2_IRQHandler) refers to app_error.o(i.app_error_handler_bare) for app_error_handler_bare
    nrf_sdh.o(i.SWI2_EGU2_IRQHandler) refers to nrf_sdh.o(i.appsh_events_poll) for appsh_events_poll
    nrf_sdh.o(i.appsh_events_poll) refers to nrf_sdh.o(i.nrf_sdh_evts_poll) for nrf_sdh_evts_poll
    nrf_sdh.o(i.nrf_sdh_disable_request) refers to nrf_sdh.o(i.sdh_request_observer_notify) for sdh_request_observer_notify
    nrf_sdh.o(i.nrf_sdh_disable_request) refers to nrf_sdh.o(i.sdh_state_observer_notify) for sdh_state_observer_notify
    nrf_sdh.o(i.nrf_sdh_disable_request) refers to app_util_platform.o(i.app_util_critical_region_enter) for app_util_critical_region_enter
    nrf_sdh.o(i.nrf_sdh_disable_request) refers to app_util_platform.o(i.app_util_critical_region_exit) for app_util_critical_region_exit
    nrf_sdh.o(i.nrf_sdh_disable_request) refers to nrf_sdh.o(i.softdevice_evt_irq_disable) for softdevice_evt_irq_disable
    nrf_sdh.o(i.nrf_sdh_disable_request) refers to nrf_sdh.o(.data) for .data
    nrf_sdh.o(i.nrf_sdh_enable_request) refers to nrf_sdh.o(i.sdh_request_observer_notify) for sdh_request_observer_notify
    nrf_sdh.o(i.nrf_sdh_enable_request) refers to nrf_sdh.o(i.sdh_state_observer_notify) for sdh_state_observer_notify
    nrf_sdh.o(i.nrf_sdh_enable_request) refers to app_util_platform.o(i.app_util_critical_region_enter) for app_util_critical_region_enter
    nrf_sdh.o(i.nrf_sdh_enable_request) refers to app_util_platform.o(i.app_util_critical_region_exit) for app_util_critical_region_exit
    nrf_sdh.o(i.nrf_sdh_enable_request) refers to nrf_sdh.o(i.softdevices_evt_irq_enable) for softdevices_evt_irq_enable
    nrf_sdh.o(i.nrf_sdh_enable_request) refers to nrf_sdh.o(.data) for .data
    nrf_sdh.o(i.nrf_sdh_enable_request) refers to nrf_sdh.o(.constdata) for .constdata
    nrf_sdh.o(i.nrf_sdh_enable_request) refers to app_error_weak.o(i.app_error_fault_handler) for app_error_fault_handler
    nrf_sdh.o(i.nrf_sdh_evts_poll) refers to nrf_section_iter.o(i.nrf_section_iter_init) for nrf_section_iter_init
    nrf_sdh.o(i.nrf_sdh_evts_poll) refers to nrf_section_iter.o(i.nrf_section_iter_next) for nrf_section_iter_next
    nrf_sdh.o(i.nrf_sdh_evts_poll) refers to nrf_sdh.o(.constdata) for .constdata
    nrf_sdh.o(i.nrf_sdh_is_enabled) refers to nrf_sdh.o(.data) for .data
    nrf_sdh.o(i.nrf_sdh_is_suspended) refers to nrf_sdh.o(.data) for .data
    nrf_sdh.o(i.nrf_sdh_request_continue) refers to nrf_sdh.o(i.nrf_sdh_disable_request) for nrf_sdh_disable_request
    nrf_sdh.o(i.nrf_sdh_request_continue) refers to nrf_sdh.o(i.nrf_sdh_enable_request) for nrf_sdh_enable_request
    nrf_sdh.o(i.nrf_sdh_request_continue) refers to nrf_sdh.o(.data) for .data
    nrf_sdh.o(i.nrf_sdh_resume) refers to nrf_sdh.o(i.__sd_nvic_app_accessible_irq) for __sd_nvic_app_accessible_irq
    nrf_sdh.o(i.nrf_sdh_resume) refers to app_error.o(i.app_error_handler_bare) for app_error_handler_bare
    nrf_sdh.o(i.nrf_sdh_resume) refers to nrf_sdh.o(i.softdevices_evt_irq_enable) for softdevices_evt_irq_enable
    nrf_sdh.o(i.nrf_sdh_resume) refers to nrf_sdh.o(.data) for .data
    nrf_sdh.o(i.nrf_sdh_suspend) refers to nrf_sdh.o(i.softdevice_evt_irq_disable) for softdevice_evt_irq_disable
    nrf_sdh.o(i.nrf_sdh_suspend) refers to nrf_sdh.o(.data) for .data
    nrf_sdh.o(i.sdh_request_observer_notify) refers to nrf_section_iter.o(i.nrf_section_iter_init) for nrf_section_iter_init
    nrf_sdh.o(i.sdh_request_observer_notify) refers to nrf_section_iter.o(i.nrf_section_iter_next) for nrf_section_iter_next
    nrf_sdh.o(i.sdh_request_observer_notify) refers to nrf_sdh.o(.constdata) for .constdata
    nrf_sdh.o(i.sdh_state_observer_notify) refers to nrf_section_iter.o(i.nrf_section_iter_init) for nrf_section_iter_init
    nrf_sdh.o(i.sdh_state_observer_notify) refers to nrf_section_iter.o(i.nrf_section_iter_next) for nrf_section_iter_next
    nrf_sdh.o(i.sdh_state_observer_notify) refers to nrf_sdh.o(.constdata) for .constdata
    nrf_sdh.o(i.softdevice_evt_irq_disable) refers to nrf_sdh.o(i.__sd_nvic_app_accessible_irq) for __sd_nvic_app_accessible_irq
    nrf_sdh.o(i.softdevice_evt_irq_disable) refers to app_error.o(i.app_error_handler_bare) for app_error_handler_bare
    nrf_sdh.o(i.softdevice_evt_irq_disable) refers to app_util_platform.o(.bss) for nrf_nvic_state
    nrf_sdh.o(i.softdevices_evt_irq_enable) refers to nrf_sdh.o(i.__sd_nvic_app_accessible_irq) for __sd_nvic_app_accessible_irq
    nrf_sdh.o(i.softdevices_evt_irq_enable) refers to app_error.o(i.app_error_handler_bare) for app_error_handler_bare
    nrf_sdh.o(i.softdevices_evt_irq_enable) refers to app_util_platform.o(.bss) for nrf_nvic_state
    nrf_sdh.o(.constdata) refers to nrf_sdh.o(.constdata) for sdh_req_observers_array
    nrf_sdh.o(.constdata) refers to nrf_sdh.o(.constdata) for sdh_state_observers_array
    nrf_sdh.o(.constdata) refers to nrf_sdh.o(.constdata) for sdh_stack_observers_array
    nrf_sdh_ble.o(i.nrf_sdh_ble_app_ram_start_get) refers to nrf_sdh_ble.o(.constdata) for .constdata
    nrf_sdh_ble.o(i.nrf_sdh_ble_default_cfg_set) refers to nrf_sdh_ble.o(i.nrf_sdh_ble_app_ram_start_get) for nrf_sdh_ble_app_ram_start_get
    nrf_sdh_ble.o(i.nrf_sdh_ble_enable) refers to nrf_sdh_ble.o(.data) for .data
    nrf_sdh_ble.o(i.nrf_sdh_ble_evts_poll) refers to app_error.o(i.app_error_handler_bare) for app_error_handler_bare
    nrf_sdh_ble.o(i.nrf_sdh_ble_evts_poll) refers to nrf_section_iter.o(i.nrf_section_iter_init) for nrf_section_iter_init
    nrf_sdh_ble.o(i.nrf_sdh_ble_evts_poll) refers to nrf_section_iter.o(i.nrf_section_iter_next) for nrf_section_iter_next
    nrf_sdh_ble.o(i.nrf_sdh_ble_evts_poll) refers to nrf_sdh_ble.o(.data) for .data
    nrf_sdh_ble.o(i.nrf_sdh_ble_evts_poll) refers to nrf_sdh_ble.o(.constdata) for .constdata
    nrf_sdh_ble.o(.constdata) refers to nrf_sdh_ble.o(.constdata) for sdh_ble_observers_array
    nrf_sdh_ble.o(sdh_stack_observers0) refers to nrf_sdh_ble.o(i.nrf_sdh_ble_evts_poll) for nrf_sdh_ble_evts_poll
    nrf_sdh_soc.o(i.nrf_sdh_soc_evts_poll) refers to app_error.o(i.app_error_handler_bare) for app_error_handler_bare
    nrf_sdh_soc.o(i.nrf_sdh_soc_evts_poll) refers to nrf_section_iter.o(i.nrf_section_iter_init) for nrf_section_iter_init
    nrf_sdh_soc.o(i.nrf_sdh_soc_evts_poll) refers to nrf_section_iter.o(i.nrf_section_iter_next) for nrf_section_iter_next
    nrf_sdh_soc.o(i.nrf_sdh_soc_evts_poll) refers to nrf_sdh_soc.o(.constdata) for .constdata
    nrf_sdh_soc.o(.constdata) refers to nrf_sdh_soc.o(.constdata) for sdh_soc_observers_array
    nrf_sdh_soc.o(sdh_stack_observers0) refers to nrf_sdh_soc.o(i.nrf_sdh_soc_evts_poll) for nrf_sdh_soc_evts_poll
    memorypool.o(i._ZN10MemoryPool11isBigObjectEPv) refers to memorypool.o(.bss) for .bss
    memorypool.o(i._ZN10MemoryPool13isSmallObjectEPv) refers to memorypool.o(.bss) for .bss
    memorypool.o(i._ZN10MemoryPool14isMediumObjectEPv) refers to memorypool.o(.bss) for .bss
    memorypool.o(i._ZN10MemoryPool15getPoolByNumberEt) refers to memorypool.o(.bss) for .bss
    memorypool.o(i._ZN10MemoryPool19getPoolByObjectSizeEj) refers to memorypool.o(.bss) for .bss
    memorypool.o(i._ZN10MemoryPool7releaseEPv) refers to memorypool.o(i._ZN10MemoryPool13isSmallObjectEPv) for MemoryPool::isSmallObject(void*)
    memorypool.o(i._ZN10MemoryPool7releaseEPv) refers to critical.o(i.enterCritical) for enterCritical
    memorypool.o(i._ZN10MemoryPool7releaseEPv) refers to critical.o(i.exitCritical) for exitCritical
    memorypool.o(i._ZN10MemoryPool7releaseEPv) refers to memorypool.o(i._ZN10MemoryPool14isMediumObjectEPv) for MemoryPool::isMediumObject(void*)
    memorypool.o(i._ZN10MemoryPool7releaseEPv) refers to memorypool.o(i._ZN10MemoryPool11isBigObjectEPv) for MemoryPool::isBigObject(void*)
    memorypool.o(i._ZN10MemoryPool7releaseEPv) refers to memorypool.o(.bss) for .bss
    memorypool.o(i._ZN10MemoryPool8allocateEj) refers to critical.o(i.enterCritical) for enterCritical
    memorypool.o(i._ZN10MemoryPool8allocateEj) refers to critical.o(i.exitCritical) for exitCritical
    memorypool.o(i._ZN10MemoryPool8allocateEj) refers to memorypool.o(.bss) for .bss
    memorypool.o(i.__sti___14_memorypool_cpp_4693e55c) refers to memorypool.o(t._ZN10ObjectPoolIN10MemoryPool11SmallObjectEXadL_Z13enterCriticalEEXadL_Z12exitCriticalEEEC1EjPPh) for ObjectPool<MemoryPool::SmallObject, (&enterCritical), (&exitCritical)>::ObjectPool(unsigned, unsigned char**)
    memorypool.o(i.__sti___14_memorypool_cpp_4693e55c) refers to aeabi_atexit.o(.text) for __aeabi_atexit
    memorypool.o(i.__sti___14_memorypool_cpp_4693e55c) refers to memorypool.o(t._ZN10ObjectPoolIN10MemoryPool12MediumObjectEXadL_Z13enterCriticalEEXadL_Z12exitCriticalEEEC1EjPPh) for ObjectPool<MemoryPool::MediumObject, (&enterCritical), (&exitCritical)>::ObjectPool(unsigned, unsigned char**)
    memorypool.o(i.__sti___14_memorypool_cpp_4693e55c) refers to memorypool.o(t._ZN10ObjectPoolIN10MemoryPool9BigObjectEXadL_Z13enterCriticalEEXadL_Z12exitCriticalEEEC1EjPPh) for ObjectPool<MemoryPool::BigObject, (&enterCritical), (&exitCritical)>::ObjectPool(unsigned, unsigned char**)
    memorypool.o(i.__sti___14_memorypool_cpp_4693e55c) refers to memorypool.o(.data) for .data
    memorypool.o(i.__sti___14_memorypool_cpp_4693e55c) refers to memorypool.o(.bss) for .bss
    memorypool.o(i.__sti___14_memorypool_cpp_4693e55c) refers to memorypool.o(t._ZN10ObjectPoolIN10MemoryPool11SmallObjectEXadL_Z13enterCriticalEEXadL_Z12exitCriticalEEED1Ev) for ObjectPool<MemoryPool::SmallObject, (&enterCritical), (&exitCritical)>::~ObjectPool()
    memorypool.o(i.__sti___14_memorypool_cpp_4693e55c) refers to memorypool.o(t._ZN10ObjectPoolIN10MemoryPool12MediumObjectEXadL_Z13enterCriticalEEXadL_Z12exitCriticalEEED1Ev) for ObjectPool<MemoryPool::MediumObject, (&enterCritical), (&exitCritical)>::~ObjectPool()
    memorypool.o(i.__sti___14_memorypool_cpp_4693e55c) refers to memorypool.o(t._ZN10ObjectPoolIN10MemoryPool9BigObjectEXadL_Z13enterCriticalEEXadL_Z12exitCriticalEEED1Ev) for ObjectPool<MemoryPool::BigObject, (&enterCritical), (&exitCritical)>::~ObjectPool()
    memorypool.o(.ARM.exidx) refers to memorypool.o(i._ZN10MemoryPool8allocateEj) for i._ZN10MemoryPool8allocateEj
    memorypool.o(.ARM.exidx) refers to memorypool.o(i._ZN10MemoryPool11isBigObjectEPv) for i._ZN10MemoryPool11isBigObjectEPv
    memorypool.o(.ARM.exidx) refers to memorypool.o(i._ZN10MemoryPool14isMediumObjectEPv) for i._ZN10MemoryPool14isMediumObjectEPv
    memorypool.o(.ARM.exidx) refers to memorypool.o(i._ZN10MemoryPool13isSmallObjectEPv) for i._ZN10MemoryPool13isSmallObjectEPv
    memorypool.o(.ARM.exidx) refers to memorypool.o(i._ZN10MemoryPool7releaseEPv) for i._ZN10MemoryPool7releaseEPv
    memorypool.o(.ARM.exidx) refers to memorypool.o(i._ZN10MemoryPool15getPoolByNumberEt) for i._ZN10MemoryPool15getPoolByNumberEt
    memorypool.o(.ARM.exidx) refers to memorypool.o(i._ZN10MemoryPool19getPoolByObjectSizeEj) for i._ZN10MemoryPool19getPoolByObjectSizeEj
    memorypool.o(.ARM.exidx) refers to memorypool.o(i.__sti___14_memorypool_cpp_4693e55c) for i.__sti___14_memorypool_cpp_4693e55c
    memorypool.o(.data) refers to memorypool.o(.bss) for smallMemory
    memorypool.o(.init_array) refers to memorypool.o(i.__sti___14_memorypool_cpp_4693e55c) for __sti___14_memorypool_cpp_4693e55c
    memorypool.o(.init_array) refers to cpp_init.o(.text) for __cpp_initialize__aeabi_
    xf_nrf5_adapter.o(i._Z11xfTimerInitv) refers to sdktools.o(i._ZN5tools8SDKTools14appTimerCreateEPKvhPv) for tools::SDKTools::appTimerCreate(const void*, unsigned char, void*)
    xf_nrf5_adapter.o(i._Z11xfTimerInitv) refers to xf_nrf5_adapter.o(i.xfTimerEvent) for xfTimerEvent
    xf_nrf5_adapter.o(i._Z11xfTimerInitv) refers to xf_nrf5_adapter.o(.constdata) for .constdata
    xf_nrf5_adapter.o(i._Z11xfTimerStopv) refers to sdktools.o(i._ZN5tools8SDKTools12appTimerStopEPv) for tools::SDKTools::appTimerStop(void*)
    xf_nrf5_adapter.o(i._Z11xfTimerStopv) refers to xf_nrf5_adapter.o(.data) for .data
    xf_nrf5_adapter.o(i._Z11xfTimerStopv) refers to xf_nrf5_adapter.o(.constdata) for .constdata
    xf_nrf5_adapter.o(i._Z12xfTimerStartj) refers to xftimeoutmanager.o(i._ZN16XFTimeoutManager11getInstanceEv) for XFTimeoutManager::getInstance()
    xf_nrf5_adapter.o(i._Z12xfTimerStartj) refers to xftimeoutmanager.o(i._ZN16XFTimeoutManager7timeoutEv) for XFTimeoutManager::timeout()
    xf_nrf5_adapter.o(i._Z12xfTimerStartj) refers to sdktools.o(i._ZN5tools8SDKTools13appTimerStartEPvjS1_) for tools::SDKTools::appTimerStart(void*, unsigned, void*)
    xf_nrf5_adapter.o(i._Z12xfTimerStartj) refers to sdktools.o(i._ZN5tools8SDKTools18appTimerGetCounterEv) for tools::SDKTools::appTimerGetCounter()
    xf_nrf5_adapter.o(i._Z12xfTimerStartj) refers to xf_nrf5_adapter.o(.data) for .data
    xf_nrf5_adapter.o(i._Z12xfTimerStartj) refers to xf_nrf5_adapter.o(.constdata) for .constdata
    xf_nrf5_adapter.o(i._Z16xfPreExecuteHookv) refers to scheduler.o(i._ZN3ble9Scheduler8scheduleEv) for ble::Scheduler::schedule()
    xf_nrf5_adapter.o(i._Z18interval2TimerTicki) refers to uldiv.o(.text) for __aeabi_uldivmod
    xf_nrf5_adapter.o(i._Z21xfTimerGetElapsedTimev) refers to sdktools.o(i._ZN5tools8SDKTools18appTimerGetCounterEv) for tools::SDKTools::appTimerGetCounter()
    xf_nrf5_adapter.o(i._Z21xfTimerGetElapsedTimev) refers to xf_nrf5_adapter.o(.data) for .data
    xf_nrf5_adapter.o(i.xfTimerEvent) refers to xftimeoutmanager.o(i._ZN16XFTimeoutManager11getInstanceEv) for XFTimeoutManager::getInstance()
    xf_nrf5_adapter.o(i.xfTimerEvent) refers to xftimeoutmanager.o(i._ZN16XFTimeoutManager7timeoutEv) for XFTimeoutManager::timeout()
    xf_nrf5_adapter.o(i.xfTimerEvent) refers to xf_nrf5_adapter.o(.data) for .data
    xf_nrf5_adapter.o(.ARM.exidx) refers to xf_nrf5_adapter.o(i.xfTimerEvent) for i.xfTimerEvent
    xf_nrf5_adapter.o(.ARM.exidx) refers to xf_nrf5_adapter.o(i._Z11xfTimerInitv) for i._Z11xfTimerInitv
    xf_nrf5_adapter.o(.ARM.exidx) refers to xf_nrf5_adapter.o(i._Z12xfTimerStartj) for i._Z12xfTimerStartj
    xf_nrf5_adapter.o(.ARM.exidx) refers to xf_nrf5_adapter.o(i._Z11xfTimerStopv) for i._Z11xfTimerStopv
    xf_nrf5_adapter.o(.ARM.exidx) refers to xf_nrf5_adapter.o(i._Z21xfTimerGetElapsedTimev) for i._Z21xfTimerGetElapsedTimev
    xf_nrf5_adapter.o(.ARM.exidx) refers to xf_nrf5_adapter.o(i._Z18interval2TimerTicki) for i._Z18interval2TimerTicki
    xf_nrf5_adapter.o(.ARM.exidx) refers to xf_nrf5_adapter.o(i._Z12xfHookOnIdlev) for i._Z12xfHookOnIdlev
    xf_nrf5_adapter.o(.ARM.exidx) refers to xf_nrf5_adapter.o(i._Z16xfPreExecuteHookv) for i._Z16xfPreExecuteHookv
    xf_nrf5_adapter.o(.constdata) refers to xf_nrf5_adapter.o(.bss) for _xfTimerId_data
    initialevent.o(i._ZN12InitialEventC1Ev) refers to initialevent.o(.constdata__ZTV12InitialEvent) for vtable for InitialEvent
    initialevent.o(i._ZN12InitialEventD0Ev) refers to memorypool.o(i._ZN10MemoryPool7releaseEPv) for MemoryPool::release(void*)
    initialevent.o(i._ZN12InitialEventdlEPv) refers to memorypool.o(i._ZN10MemoryPool7releaseEPv) for MemoryPool::release(void*)
    initialevent.o(i._ZN12InitialEventnwEj) refers to memorypool.o(i._ZN10MemoryPool8allocateEj) for MemoryPool::allocate(unsigned)
    initialevent.o(.ARM.exidx) refers to initialevent.o(i._ZN12InitialEventC1Ev) for i._ZN12InitialEventC1Ev
    initialevent.o(.ARM.exidx) refers to initialevent.o(i._ZN12InitialEventD1Ev) for i._ZN12InitialEventD1Ev
    initialevent.o(.ARM.exidx) refers to initialevent.o(i._ZN12InitialEventdlEPv) for i._ZN12InitialEventdlEPv
    initialevent.o(.ARM.exidx) refers to initialevent.o(i._ZN12InitialEventD0Ev) for i._ZN12InitialEventD0Ev
    initialevent.o(.ARM.exidx) refers to initialevent.o(i._ZN12InitialEventnwEj) for i._ZN12InitialEventnwEj
    xf.o(i._ZN2XF13getMainThreadEv) refers to xf.o(.bss) for .bss
    xf.o(i._ZN2XF5startEv) refers to xftimeoutmanager.o(i._ZN16XFTimeoutManager11getInstanceEv) for XFTimeoutManager::getInstance()
    xf.o(i._ZN2XF5startEv) refers to xftimeoutmanager.o(i._ZN16XFTimeoutManager5startEv) for XFTimeoutManager::start()
    xf.o(i._ZN2XF5startEv) refers to xfthread.o(i._ZN8XFThread7executeEb) for XFThread::execute(bool)
    xf.o(i._ZN2XF5startEv) refers to xf.o(.bss) for .bss
    xf.o(i._ZN2XF8execOnceEv) refers to xftimeoutmanager.o(i._ZN16XFTimeoutManager11getInstanceEv) for XFTimeoutManager::getInstance()
    xf.o(i._ZN2XF8execOnceEv) refers to xftimeoutmanager.o(i._ZN16XFTimeoutManager5startEv) for XFTimeoutManager::start()
    xf.o(i._ZN2XF8execOnceEv) refers to xfthread.o(i._ZN8XFThread7executeEb) for XFThread::execute(bool)
    xf.o(i._ZN2XF8execOnceEv) refers to xf.o(.data) for .data
    xf.o(i._ZN2XF8execOnceEv) refers to xf.o(.bss) for .bss
    xf.o(i.__sti___6_xf_cpp_58f6a670) refers to xfthread.o(i._ZN8XFThreadC1Eh) for XFThread::XFThread(unsigned char)
    xf.o(i.__sti___6_xf_cpp_58f6a670) refers to aeabi_atexit.o(.text) for __aeabi_atexit
    xf.o(i.__sti___6_xf_cpp_58f6a670) refers to xf.o(.bss) for .bss
    xf.o(i.__sti___6_xf_cpp_58f6a670) refers to xfthread.o(i._ZN8XFThreadD1Ev) for XFThread::~XFThread()
    xf.o(.ARM.exidx) refers to xf.o(i._ZN2XF5startEv) for i._ZN2XF5startEv
    xf.o(.ARM.exidx) refers to xf.o(i._ZN2XF13getMainThreadEv) for i._ZN2XF13getMainThreadEv
    xf.o(.ARM.exidx) refers to xf.o(i._ZN2XF8execOnceEv) for i._ZN2XF8execOnceEv
    xf.o(.ARM.exidx) refers to xf.o(i.__sti___6_xf_cpp_58f6a670) for i.__sti___6_xf_cpp_58f6a670
    xf.o(.init_array) refers to xf.o(i.__sti___6_xf_cpp_58f6a670) for __sti___6_xf_cpp_58f6a670
    xf.o(.init_array) refers to cpp_init.o(.text) for __cpp_initialize__aeabi_
    xfevent.o(i._ZN7XFEventC1EhP11IXFReactiveb) refers to xfevent.o(.constdata__ZTV7XFEvent) for vtable for XFEvent
    xfevent.o(i._ZN7XFEventD0Ev) refers to memorypool.o(i._ZN10MemoryPool7releaseEPv) for MemoryPool::release(void*)
    xfevent.o(i._ZN7XFEventdlEPv) refers to memorypool.o(i._ZN10MemoryPool7releaseEPv) for MemoryPool::release(void*)
    xfevent.o(i._ZN7XFEventnwEj) refers to memorypool.o(i._ZN10MemoryPool8allocateEj) for MemoryPool::allocate(unsigned)
    xfevent.o(.ARM.exidx) refers to xfevent.o(i._ZN7XFEventC1EhP11IXFReactiveb) for i._ZN7XFEventC1EhP11IXFReactiveb
    xfevent.o(.ARM.exidx) refers to xfevent.o(i._ZN7XFEventD1Ev) for i._ZN7XFEventD1Ev
    xfevent.o(.ARM.exidx) refers to xfevent.o(i._ZN7XFEventdlEPv) for i._ZN7XFEventdlEPv
    xfevent.o(.ARM.exidx) refers to xfevent.o(i._ZN7XFEventD0Ev) for i._ZN7XFEventD0Ev
    xfevent.o(.ARM.exidx) refers to xfevent.o(i._ZN7XFEventnwEj) for i._ZN7XFEventnwEj
    xfnulltransition.o(i._ZN16XFNullTransitionC1EP11IXFReactive) refers to xfnulltransition.o(.constdata__ZTV16XFNullTransition) for vtable for XFNullTransition
    xfnulltransition.o(i._ZN16XFNullTransitionD0Ev) refers to memorypool.o(i._ZN10MemoryPool7releaseEPv) for MemoryPool::release(void*)
    xfnulltransition.o(i._ZN16XFNullTransitiondlEPv) refers to memorypool.o(i._ZN10MemoryPool7releaseEPv) for MemoryPool::release(void*)
    xfnulltransition.o(i._ZN16XFNullTransitionnwEj) refers to memorypool.o(i._ZN10MemoryPool8allocateEj) for MemoryPool::allocate(unsigned)
    xfnulltransition.o(.ARM.exidx) refers to xfnulltransition.o(i._ZN16XFNullTransitionC1EP11IXFReactive) for i._ZN16XFNullTransitionC1EP11IXFReactive
    xfnulltransition.o(.ARM.exidx) refers to xfnulltransition.o(i._ZN16XFNullTransitionD1Ev) for i._ZN16XFNullTransitionD1Ev
    xfnulltransition.o(.ARM.exidx) refers to xfnulltransition.o(i._ZN16XFNullTransitiondlEPv) for i._ZN16XFNullTransitiondlEPv
    xfnulltransition.o(.ARM.exidx) refers to xfnulltransition.o(i._ZN16XFNullTransitionD0Ev) for i._ZN16XFNullTransitionD0Ev
    xfnulltransition.o(.ARM.exidx) refers to xfnulltransition.o(i._ZN16XFNullTransitionnwEj) for i._ZN16XFNullTransitionnwEj
    xfreactive.o(i._ZN10XFReactive14startBehaviourEv) refers to initialevent.o(i._ZN12InitialEventnwEj) for InitialEvent::operator new(unsigned)
    xfreactive.o(i._ZN10XFReactive14startBehaviourEv) refers to initialevent.o(i._ZN12InitialEventC1Ev) for InitialEvent::InitialEvent()
    xfreactive.o(i._ZN10XFReactive17pushCriticalEventEP8IXFEvent) refers to xfthread.o(i._ZN8XFThread17pushCriticalEventEP8IXFEvent) for XFThread::pushCriticalEvent(IXFEvent*)
    xfreactive.o(i._ZN10XFReactive9pushEventEP8IXFEvent) refers to xfthread.o(i._ZN8XFThread9pushEventEP8IXFEvent) for XFThread::pushEvent(IXFEvent*)
    xfreactive.o(i._ZN10XFReactiveC1EP8XFThread) refers to xf.o(i._ZN2XF13getMainThreadEv) for XF::getMainThread()
    xfreactive.o(i._ZN10XFReactiveC1EP8XFThread) refers to xfreactive.o(.constdata__ZTV10XFReactive) for vtable for XFReactive
    xfreactive.o(i._ZN10XFReactiveD0Ev) refers to delete.o(i._ZdlPv) for operator delete (void*)
    xfreactive.o(.ARM.exidx) refers to xfreactive.o(i._ZN10XFReactiveC1EP8XFThread) for i._ZN10XFReactiveC1EP8XFThread
    xfreactive.o(.ARM.exidx) refers to xfreactive.o(i._ZN10XFReactiveD1Ev) for i._ZN10XFReactiveD1Ev
    xfreactive.o(.ARM.exidx) refers to xfreactive.o(i._ZN10XFReactiveD0Ev) for i._ZN10XFReactiveD0Ev
    xfreactive.o(.ARM.exidx) refers to xfreactive.o(i._ZN10XFReactive14startBehaviourEv) for i._ZN10XFReactive14startBehaviourEv
    xfreactive.o(.ARM.exidx) refers to xfreactive.o(i._ZN10XFReactive17pushCriticalEventEP8IXFEvent) for i._ZN10XFReactive17pushCriticalEventEP8IXFEvent
    xfreactive.o(.ARM.exidx) refers to xfreactive.o(i._ZN10XFReactive9pushEventEP8IXFEvent) for i._ZN10XFReactive9pushEventEP8IXFEvent
    xfreactive.o(.ARM.exidx) refers to xfreactive.o(i._ZN10XFReactive12processEventEv) for i._ZN10XFReactive12processEventEv
    xfreactive.o(.ARM.exidx) refers to xfreactive.o(i._ZN10XFReactive9getThreadEv) for i._ZN10XFReactive9getThreadEv
    xfreactive.o(.ARM.exidx) refers to xfreactive.o(i._ZN10XFReactive17getCurrentTimeoutEv) for i._ZN10XFReactive17getCurrentTimeoutEv
    xfreactive.o(.ARM.exidx) refers to xfreactive.o(i._ZN10XFReactive7processEP8IXFEvent) for i._ZN10XFReactive7processEP8IXFEvent
    xfthread.o(i._ZN8XFThread15scheduleTimeoutEhtP11IXFReactive) refers to xftimeoutmanager.o(i._ZN16XFTimeoutManager11getInstanceEv) for XFTimeoutManager::getInstance()
    xfthread.o(i._ZN8XFThread15scheduleTimeoutEhtP11IXFReactive) refers to xftimeoutmanager.o(i._ZN16XFTimeoutManager15scheduleTimeoutEhiP11IXFReactive) for XFTimeoutManager::scheduleTimeout(unsigned char, int, IXFReactive*)
    xfthread.o(i._ZN8XFThread17pushCriticalEventEP8IXFEvent) refers to critical.o(i.enterCritical) for enterCritical
    xfthread.o(i._ZN8XFThread17pushCriticalEventEP8IXFEvent) refers to xfthread.o(t._ZNSt5queueIP8IXFEventLh10EE4pushES1_) for std::queue<IXFEvent*, (unsigned char)10>::push(IXFEvent*)
    xfthread.o(i._ZN8XFThread17pushCriticalEventEP8IXFEvent) refers to critical.o(i.exitCritical) for exitCritical
    xfthread.o(i._ZN8XFThread17unscheduleTimeoutEhP11IXFReactive) refers to xftimeoutmanager.o(i._ZN16XFTimeoutManager11getInstanceEv) for XFTimeoutManager::getInstance()
    xfthread.o(i._ZN8XFThread17unscheduleTimeoutEhP11IXFReactive) refers to xftimeoutmanager.o(i._ZN16XFTimeoutManager17unscheduleTimeoutEhP11IXFReactive) for XFTimeoutManager::unscheduleTimeout(unsigned char, IXFReactive*)
    xfthread.o(i._ZN8XFThread7executeEb) refers to xf_nrf5_adapter.o(i._Z16xfPreExecuteHookv) for xfPreExecuteHook()
    xfthread.o(i._ZN8XFThread7executeEb) refers to xfthread.o(t._ZNKSt5queueIP8IXFEventLh10EE5emptyEv) for std::queue<IXFEvent*, (unsigned char)10>::empty() const
    xfthread.o(i._ZN8XFThread7executeEb) refers to xfthread.o(t._ZNSt5queueIP8IXFEventLh10EE3popEv) for std::queue<IXFEvent*, (unsigned char)10>::pop()
    xfthread.o(i._ZN8XFThread7executeEb) refers to xf_nrf5_adapter.o(i._Z12xfHookOnIdlev) for xfHookOnIdle()
    xfthread.o(i._ZN8XFThread7executeEb) refers to xfthread.o(i._ZNK8XFThread13dispatchEventEP8IXFEvent) for XFThread::dispatchEvent(IXFEvent*) const
    xfthread.o(i._ZN8XFThread9pushEventEP8IXFEvent) refers to critical.o(i.enterCritical) for enterCritical
    xfthread.o(i._ZN8XFThread9pushEventEP8IXFEvent) refers to xfthread.o(t._ZNSt5queueIP8IXFEventLh10EE4pushES1_) for std::queue<IXFEvent*, (unsigned char)10>::push(IXFEvent*)
    xfthread.o(i._ZN8XFThread9pushEventEP8IXFEvent) refers to critical.o(i.exitCritical) for exitCritical
    xfthread.o(i._ZN8XFThreadC1Eh) refers to xfthread.o(t._ZNSt5queueIP8IXFEventLh10EEC1Ev) for std::queue<IXFEvent*, (unsigned char)10>::queue()
    xfthread.o(i._ZN8XFThreadC1Eh) refers to xfthread.o(.constdata__ZTV8XFThread) for vtable for XFThread
    xfthread.o(i._ZN8XFThreadD0Ev) refers to delete.o(i._ZdlPv) for operator delete (void*)
    xfthread.o(.ARM.exidx) refers to xfthread.o(i._ZN8XFThreadC1Eh) for i._ZN8XFThreadC1Eh
    xfthread.o(.ARM.exidx) refers to xfthread.o(i._ZN8XFThreadD1Ev) for i._ZN8XFThreadD1Ev
    xfthread.o(.ARM.exidx) refers to xfthread.o(i._ZN8XFThreadD0Ev) for i._ZN8XFThreadD0Ev
    xfthread.o(.ARM.exidx) refers to xfthread.o(i._ZN8XFThread17pushCriticalEventEP8IXFEvent) for i._ZN8XFThread17pushCriticalEventEP8IXFEvent
    xfthread.o(.ARM.exidx) refers to xfthread.o(i._ZN8XFThread9pushEventEP8IXFEvent) for i._ZN8XFThread9pushEventEP8IXFEvent
    xfthread.o(.ARM.exidx) refers to xfthread.o(i._ZN8XFThread15scheduleTimeoutEhtP11IXFReactive) for i._ZN8XFThread15scheduleTimeoutEhtP11IXFReactive
    xfthread.o(.ARM.exidx) refers to xfthread.o(i._ZN8XFThread17unscheduleTimeoutEhP11IXFReactive) for i._ZN8XFThread17unscheduleTimeoutEhP11IXFReactive
    xfthread.o(.ARM.exidx) refers to xfthread.o(i._ZNK8XFThread13dispatchEventEP8IXFEvent) for i._ZNK8XFThread13dispatchEventEP8IXFEvent
    xfthread.o(.ARM.exidx) refers to xfthread.o(i._ZN8XFThread7executeEb) for i._ZN8XFThread7executeEb
    xftimeout.o(i._ZN9XFTimeoutC1ERKS_) refers to xftimeout.o(i._ZN8IXFEventC1ENS_10eEventTypeEhP11IXFReactiveb) for IXFEvent::IXFEvent(IXFEvent::eEventType, unsigned char, IXFReactive*, bool)
    xftimeout.o(i._ZN9XFTimeoutC1ERKS_) refers to xftimeout.o(.constdata__ZTV9XFTimeout) for vtable for XFTimeout
    xftimeout.o(i._ZN9XFTimeoutC1EhjP11IXFReactive) refers to xftimeout.o(i._ZN8IXFEventC1ENS_10eEventTypeEhP11IXFReactiveb) for IXFEvent::IXFEvent(IXFEvent::eEventType, unsigned char, IXFReactive*, bool)
    xftimeout.o(i._ZN9XFTimeoutC1EhjP11IXFReactive) refers to xf_nrf5_adapter.o(i._Z18interval2TimerTicki) for interval2TimerTick(int)
    xftimeout.o(i._ZN9XFTimeoutC1EhjP11IXFReactive) refers to xftimeout.o(.constdata__ZTV9XFTimeout) for vtable for XFTimeout
    xftimeout.o(i._ZN9XFTimeoutD0Ev) refers to memorypool.o(i._ZN10MemoryPool7releaseEPv) for MemoryPool::release(void*)
    xftimeout.o(i._ZN9XFTimeoutdlEPv) refers to memorypool.o(i._ZN10MemoryPool7releaseEPv) for MemoryPool::release(void*)
    xftimeout.o(i._ZN9XFTimeoutnwEj) refers to memorypool.o(i._ZN10MemoryPool8allocateEj) for MemoryPool::allocate(unsigned)
    xftimeout.o(.ARM.exidx) refers to xftimeout.o(i._ZN9XFTimeoutC1EhjP11IXFReactive) for i._ZN9XFTimeoutC1EhjP11IXFReactive
    xftimeout.o(.ARM.exidx) refers to xftimeout.o(i._ZN9XFTimeoutD1Ev) for i._ZN9XFTimeoutD1Ev
    xftimeout.o(.ARM.exidx) refers to xftimeout.o(i._ZN9XFTimeoutdlEPv) for i._ZN9XFTimeoutdlEPv
    xftimeout.o(.ARM.exidx) refers to xftimeout.o(i._ZN9XFTimeoutD0Ev) for i._ZN9XFTimeoutD0Ev
    xftimeout.o(.ARM.exidx) refers to xftimeout.o(i._ZNK9XFTimeouteqERKS_) for i._ZNK9XFTimeouteqERKS_
    xftimeout.o(.ARM.exidx) refers to xftimeout.o(i._ZN9XFTimeoutnwEj) for i._ZN9XFTimeoutnwEj
    xftimeout.o(.ARM.exidx) refers to xftimeout.o(i._ZN9XFTimeout17incrRelativeTicksEj) for i._ZN9XFTimeout17incrRelativeTicksEj
    xftimeout.o(.ARM.exidx) refers to xftimeout.o(i._ZN9XFTimeout17decrRelativeTicksEj) for i._ZN9XFTimeout17decrRelativeTicksEj
    xftimeout.o(.ARM.exidx) refers to xftimeout.o(i._ZN9XFTimeoutC1ERKS_) for i._ZN9XFTimeoutC1ERKS_
    xftimeout.o(.ARM.exidx) refers to xftimeout.o(i._ZN9XFTimeoutaSERKS_) for i._ZN9XFTimeoutaSERKS_
    xftimeoutmanager.o(i._ZN16XFTimeoutManager10addTimeoutEP9XFTimeout) refers to xf_nrf5_adapter.o(i._Z21xfTimerGetElapsedTimev) for xfTimerGetElapsedTime()
    xftimeoutmanager.o(i._ZN16XFTimeoutManager10addTimeoutEP9XFTimeout) refers to xftimeout.o(i._ZN9XFTimeout17decrRelativeTicksEj) for XFTimeout::decrRelativeTicks(unsigned)
    xftimeoutmanager.o(i._ZN16XFTimeoutManager10addTimeoutEP9XFTimeout) refers to xftimeoutmanager.o(t._ZN6IsListIP9XFTimeoutE8addFirstERKS1_) for IsList<XFTimeout*>::addFirst(XFTimeout*const &)
    xftimeoutmanager.o(i._ZN16XFTimeoutManager10addTimeoutEP9XFTimeout) refers to xf_nrf5_adapter.o(i._Z11xfTimerStopv) for xfTimerStop()
    xftimeoutmanager.o(i._ZN16XFTimeoutManager10addTimeoutEP9XFTimeout) refers to xf_nrf5_adapter.o(i._Z12xfTimerStartj) for xfTimerStart(unsigned)
    xftimeoutmanager.o(i._ZN16XFTimeoutManager10addTimeoutEP9XFTimeout) refers to xftimeoutmanager.o(t._ZN6IsListIP9XFTimeoutE5addAtEiRKS1_) for IsList<XFTimeout*>::addAt(int, XFTimeout*const &)
    xftimeoutmanager.o(i._ZN16XFTimeoutManager11getInstanceEv) refers to cxa_guard_acquire.o(i.__cxa_guard_acquire) for __cxa_guard_acquire
    xftimeoutmanager.o(i._ZN16XFTimeoutManager11getInstanceEv) refers to xftimeoutmanager.o(i._ZN16XFTimeoutManagerC1Ev) for XFTimeoutManager::XFTimeoutManager()
    xftimeoutmanager.o(i._ZN16XFTimeoutManager11getInstanceEv) refers to aeabi_atexit.o(.text) for __aeabi_atexit
    xftimeoutmanager.o(i._ZN16XFTimeoutManager11getInstanceEv) refers to xftimeoutmanager.o(.data) for .data
    xftimeoutmanager.o(i._ZN16XFTimeoutManager11getInstanceEv) refers to xftimeoutmanager.o(.bss) for .bss
    xftimeoutmanager.o(i._ZN16XFTimeoutManager11getInstanceEv) refers to xftimeoutmanager.o(i._ZN16XFTimeoutManagerD1Ev) for XFTimeoutManager::~XFTimeoutManager()
    xftimeoutmanager.o(i._ZN16XFTimeoutManager13_startXfTimerEv) refers to xf_nrf5_adapter.o(i._Z12xfTimerStartj) for xfTimerStart(unsigned)
    xftimeoutmanager.o(i._ZN16XFTimeoutManager13_startXfTimerEv) refers to xf_nrf5_adapter.o(i._Z11xfTimerStopv) for xfTimerStop()
    xftimeoutmanager.o(i._ZN16XFTimeoutManager14removeTimeoutsEhP11IXFReactive) refers to xftimeout.o(i._ZN9XFTimeoutC1EhjP11IXFReactive) for XFTimeout::XFTimeout(unsigned char, unsigned, IXFReactive*)
    xftimeoutmanager.o(i._ZN16XFTimeoutManager14removeTimeoutsEhP11IXFReactive) refers to xf_nrf5_adapter.o(i._Z21xfTimerGetElapsedTimev) for xfTimerGetElapsedTime()
    xftimeoutmanager.o(i._ZN16XFTimeoutManager14removeTimeoutsEhP11IXFReactive) refers to xftimeout.o(i._ZN9XFTimeout17decrRelativeTicksEj) for XFTimeout::decrRelativeTicks(unsigned)
    xftimeoutmanager.o(i._ZN16XFTimeoutManager14removeTimeoutsEhP11IXFReactive) refers to xftimeout.o(i._ZNK9XFTimeouteqERKS_) for XFTimeout::operator ==(const XFTimeout&) const
    xftimeoutmanager.o(i._ZN16XFTimeoutManager14removeTimeoutsEhP11IXFReactive) refers to xftimeout.o(i._ZN9XFTimeout17incrRelativeTicksEj) for XFTimeout::incrRelativeTicks(unsigned)
    xftimeoutmanager.o(i._ZN16XFTimeoutManager14removeTimeoutsEhP11IXFReactive) refers to xf_nrf5_adapter.o(i._Z11xfTimerStopv) for xfTimerStop()
    xftimeoutmanager.o(i._ZN16XFTimeoutManager14removeTimeoutsEhP11IXFReactive) refers to xf_nrf5_adapter.o(i._Z12xfTimerStartj) for xfTimerStart(unsigned)
    xftimeoutmanager.o(i._ZN16XFTimeoutManager14removeTimeoutsEhP11IXFReactive) refers to critical.o(i.enterCritical) for enterCritical
    xftimeoutmanager.o(i._ZN16XFTimeoutManager14removeTimeoutsEhP11IXFReactive) refers to xftimeoutmanager.o(t._ZN6IsListIP9XFTimeoutE12_removeFirstEv) for IsList<XFTimeout*>::_removeFirst()
    xftimeoutmanager.o(i._ZN16XFTimeoutManager14removeTimeoutsEhP11IXFReactive) refers to xftimeoutmanager.o(t._ZN6IsListIP9XFTimeoutE11destroyItemEPNS2_4ItemE) for IsList<XFTimeout*>::destroyItem(IsList<XFTimeout*>::Item*)
    xftimeoutmanager.o(i._ZN16XFTimeoutManager14removeTimeoutsEhP11IXFReactive) refers to critical.o(i.exitCritical) for exitCritical
    xftimeoutmanager.o(i._ZN16XFTimeoutManager14removeTimeoutsEhP11IXFReactive) refers to xftimeout.o(i._ZN9XFTimeoutD1Ev) for XFTimeout::~XFTimeout()
    xftimeoutmanager.o(i._ZN16XFTimeoutManager15scheduleTimeoutEhiP11IXFReactive) refers to xftimeout.o(i._ZN9XFTimeoutnwEj) for XFTimeout::operator new(unsigned)
    xftimeoutmanager.o(i._ZN16XFTimeoutManager15scheduleTimeoutEhiP11IXFReactive) refers to xftimeout.o(i._ZN9XFTimeoutC1EhjP11IXFReactive) for XFTimeout::XFTimeout(unsigned char, unsigned, IXFReactive*)
    xftimeoutmanager.o(i._ZN16XFTimeoutManager15scheduleTimeoutEhiP11IXFReactive) refers to xftimeoutmanager.o(i._ZN16XFTimeoutManager10addTimeoutEP9XFTimeout) for XFTimeoutManager::addTimeout(XFTimeout*)
    xftimeoutmanager.o(i._ZN16XFTimeoutManager17unscheduleTimeoutEhP11IXFReactive) refers to xftimeoutmanager.o(i._ZN16XFTimeoutManager14removeTimeoutsEhP11IXFReactive) for XFTimeoutManager::removeTimeouts(unsigned char, IXFReactive*)
    xftimeoutmanager.o(i._ZN16XFTimeoutManager25createTimeoutListItemPoolEj) refers to cxa_guard_acquire.o(i.__cxa_guard_acquire) for __cxa_guard_acquire
    xftimeoutmanager.o(i._ZN16XFTimeoutManager25createTimeoutListItemPoolEj) refers to xftimeoutmanager.o(t._ZN10ObjectPoolIN6IsListIP9XFTimeoutE4ItemEXadL_Z13enterCriticalEEXadL_Z12exitCriticalEEEC1EjPPh) for ObjectPool<IsList<XFTimeout*>::Item, (&enterCritical), (&exitCritical)>::ObjectPool(unsigned, unsigned char**)
    xftimeoutmanager.o(i._ZN16XFTimeoutManager25createTimeoutListItemPoolEj) refers to aeabi_atexit.o(.text) for __aeabi_atexit
    xftimeoutmanager.o(i._ZN16XFTimeoutManager25createTimeoutListItemPoolEj) refers to xftimeoutmanager.o(.data) for .data
    xftimeoutmanager.o(i._ZN16XFTimeoutManager25createTimeoutListItemPoolEj) refers to xftimeoutmanager.o(.bss) for .bss
    xftimeoutmanager.o(i._ZN16XFTimeoutManager25createTimeoutListItemPoolEj) refers to xftimeoutmanager.o(t._ZN10ObjectPoolIN6IsListIP9XFTimeoutE4ItemEXadL_Z13enterCriticalEEXadL_Z12exitCriticalEEED1Ev) for ObjectPool<IsList<XFTimeout*>::Item, (&enterCritical), (&exitCritical)>::~ObjectPool()
    xftimeoutmanager.o(i._ZN16XFTimeoutManager7timeoutEv) refers to xftimeoutmanager.o(i._ZN16XFTimeoutManager13returnTimeoutEP9XFTimeout) for XFTimeoutManager::returnTimeout(XFTimeout*)
    xftimeoutmanager.o(i._ZN16XFTimeoutManager7timeoutEv) refers to xftimeoutmanager.o(t._ZN6IsListIP9XFTimeoutE9pop_frontEv) for IsList<XFTimeout*>::pop_front()
    xftimeoutmanager.o(i._ZN16XFTimeoutManager7timeoutEv) refers to xftimeoutmanager.o(i._ZN16XFTimeoutManager13_startXfTimerEv) for XFTimeoutManager::_startXfTimer()
    xftimeoutmanager.o(i._ZN16XFTimeoutManagerC1Ev) refers to xf_nrf5_adapter.o(i._Z11xfTimerInitv) for xfTimerInit()
    xftimeoutmanager.o(i._ZN16XFTimeoutManagerC1Ev) refers to xftimeoutmanager.o(i._ZN16XFTimeoutManager25createTimeoutListItemPoolEj) for XFTimeoutManager::createTimeoutListItemPool(unsigned)
    xftimeoutmanager.o(i._ZN16XFTimeoutManagerC1Ev) refers to xftimeoutmanager.o(.constdata__ZTV16XFTimeoutManager) for vtable for XFTimeoutManager
    xftimeoutmanager.o(i._ZN16XFTimeoutManagerC1Ev) refers to xftimeoutmanager.o(.constdata__ZTV6IsListIP9XFTimeoutE) for vtable for IsList<XFTimeout*>
    xftimeoutmanager.o(i._ZN16XFTimeoutManagerC1Ev) refers to xftimeoutmanager.o(.data) for .data
    xftimeoutmanager.o(i._ZN16XFTimeoutManagerD0Ev) refers to xftimeoutmanager.o(i._ZN16XFTimeoutManagerD1Ev) for XFTimeoutManager::~XFTimeoutManager()
    xftimeoutmanager.o(i._ZN16XFTimeoutManagerD0Ev) refers to delete.o(i._ZdlPv) for operator delete (void*)
    xftimeoutmanager.o(i._ZN16XFTimeoutManagerD1Ev) refers to xftimeoutmanager.o(t._ZN6IsListIP9XFTimeoutED1Ev) for IsList<XFTimeout*>::~IsList()
    xftimeoutmanager.o(i._ZN16XFTimeoutManagerD1Ev) refers to xftimeoutmanager.o(.constdata__ZTV16XFTimeoutManager) for vtable for XFTimeoutManager
    xftimeoutmanager.o(.ARM.exidx) refers to xftimeoutmanager.o(i._ZN16XFTimeoutManager25createTimeoutListItemPoolEj) for i._ZN16XFTimeoutManager25createTimeoutListItemPoolEj
    xftimeoutmanager.o(.ARM.exidx) refers to xftimeoutmanager.o(i._ZN16XFTimeoutManagerC1Ev) for i._ZN16XFTimeoutManagerC1Ev
    xftimeoutmanager.o(.ARM.exidx) refers to xftimeoutmanager.o(i._ZN16XFTimeoutManagerD1Ev) for i._ZN16XFTimeoutManagerD1Ev
    xftimeoutmanager.o(.ARM.exidx) refers to xftimeoutmanager.o(i._ZN16XFTimeoutManagerD0Ev) for i._ZN16XFTimeoutManagerD0Ev
    xftimeoutmanager.o(.ARM.exidx) refers to xftimeoutmanager.o(i._ZN16XFTimeoutManager11getInstanceEv) for i._ZN16XFTimeoutManager11getInstanceEv
    xftimeoutmanager.o(.ARM.exidx) refers to xftimeoutmanager.o(i._ZN16XFTimeoutManager5startEv) for i._ZN16XFTimeoutManager5startEv
    xftimeoutmanager.o(.ARM.exidx) refers to xftimeoutmanager.o(i._ZN16XFTimeoutManager10addTimeoutEP9XFTimeout) for i._ZN16XFTimeoutManager10addTimeoutEP9XFTimeout
    xftimeoutmanager.o(.ARM.exidx) refers to xftimeoutmanager.o(i._ZN16XFTimeoutManager15scheduleTimeoutEhiP11IXFReactive) for i._ZN16XFTimeoutManager15scheduleTimeoutEhiP11IXFReactive
    xftimeoutmanager.o(.ARM.exidx) refers to xftimeoutmanager.o(i._ZN16XFTimeoutManager14removeTimeoutsEhP11IXFReactive) for i._ZN16XFTimeoutManager14removeTimeoutsEhP11IXFReactive
    xftimeoutmanager.o(.ARM.exidx) refers to xftimeoutmanager.o(i._ZN16XFTimeoutManager17unscheduleTimeoutEhP11IXFReactive) for i._ZN16XFTimeoutManager17unscheduleTimeoutEhP11IXFReactive
    xftimeoutmanager.o(.ARM.exidx) refers to xftimeoutmanager.o(i._ZN16XFTimeoutManager13_startXfTimerEv) for i._ZN16XFTimeoutManager13_startXfTimerEv
    xftimeoutmanager.o(.ARM.exidx) refers to xftimeoutmanager.o(i._ZN16XFTimeoutManager13returnTimeoutEP9XFTimeout) for i._ZN16XFTimeoutManager13returnTimeoutEP9XFTimeout
    xftimeoutmanager.o(.ARM.exidx) refers to xftimeoutmanager.o(i._ZN16XFTimeoutManager7timeoutEv) for i._ZN16XFTimeoutManager7timeoutEv
    xftimeoutmanager.o(.data) refers to xftimeoutmanager.o(.bss) for XFTimeoutManager::createTimeoutListItemPool(unsigned)::timeoutListItemPoolMemory
    arm_startup_nrf52.o(RESET) refers to arm_startup_nrf52.o(STACK) for __initial_sp
    arm_startup_nrf52.o(RESET) refers to arm_startup_nrf52.o(.text) for Reset_Handler
    arm_startup_nrf52.o(RESET) refers to main.o(i.HardFault_Handler) for HardFault_Handler
    arm_startup_nrf52.o(RESET) refers to nrfx_prs.o(i.UARTE0_UART0_IRQHandler) for UARTE0_UART0_IRQHandler
    arm_startup_nrf52.o(RESET) refers to nrfx_spi.o(i.SPIM0_SPIS0_TWIM0_TWIS0_SPI0_TWI0_IRQHandler) for SPIM0_SPIS0_TWIM0_TWIS0_SPI0_TWI0_IRQHandler
    arm_startup_nrf52.o(RESET) refers to nrfx_gpiote.o(i.GPIOTE_IRQHandler) for GPIOTE_IRQHandler
    arm_startup_nrf52.o(RESET) refers to nrfx_saadc.o(i.SAADC_IRQHandler) for SAADC_IRQHandler
    arm_startup_nrf52.o(RESET) refers to nrfx_timer.o(i.TIMER1_IRQHandler) for TIMER1_IRQHandler
    arm_startup_nrf52.o(RESET) refers to nrfx_wdt.o(i.WDT_IRQHandler) for WDT_IRQHandler
    arm_startup_nrf52.o(RESET) refers to app_timer.o(i.RTC1_IRQHandler) for RTC1_IRQHandler
    arm_startup_nrf52.o(RESET) refers to app_timer.o(i.SWI0_EGU0_IRQHandler) for SWI0_EGU0_IRQHandler
    arm_startup_nrf52.o(RESET) refers to nrf_sdh.o(i.SWI2_EGU2_IRQHandler) for SWI2_EGU2_IRQHandler
    arm_startup_nrf52.o(RESET) refers to nrfx_pwm.o(i.PWM0_IRQHandler) for PWM0_IRQHandler
    arm_startup_nrf52.o(RESET) refers to nrfx_pwm.o(i.PWM1_IRQHandler) for PWM1_IRQHandler
    arm_startup_nrf52.o(RESET) refers to nrfx_pwm.o(i.PWM2_IRQHandler) for PWM2_IRQHandler
    arm_startup_nrf52.o(RESET) refers to nrfx_rtc.o(i.RTC2_IRQHandler) for RTC2_IRQHandler
    arm_startup_nrf52.o(.text) refers to system_nrf52.o(i.SystemInit) for SystemInit
    arm_startup_nrf52.o(.text) refers to entry.o(.ARM.Collect$$$$00000000) for __main
    system_nrf52.o(i.SystemCoreClockUpdate) refers to system_nrf52.o(.data) for .data
    system_nrf52.o(i.SystemInit) refers to system_nrf52.o(.data) for .data
    array_del.o(i._ZdaPv) refers to delete.o(i._ZdlPv) for operator delete (void*)
    array_del.o(.ARM.exidx) refers to array_del.o(i._ZdaPv) for i._ZdaPv
    array_new.o(i._Znaj) refers to new.o(i._Znwj) for operator new(unsigned)
    array_new.o(.ARM.exidx) refers to array_new.o(i._Znaj) for i._Znaj
    array_new.o(.ARM.exidx) refers to unwind_pr0.o(.text) for __aeabi_unwind_cpp_pr0
    array_new.o(.ARM.exidx) refers to array_new.o(.ARM.extab) for .extab._Znaj
    array_new.o(.ARM.extab) refers to arm_callunex_noexceptions.o(.text) for __cxa_call_unexpected
    array_new.o(.ARM.extab) refers to bad_alloc_dtor.o(.constdata__ZTISt9bad_alloc) for typeinfo for std::bad_alloc
    delete.o(i._ZdlPv) refers to malloc.o(i.free) for free
    delete.o(.ARM.exidx) refers to delete.o(i._ZdlPv) for i._ZdlPv
    pure_virt.o(i.__cxa_pure_virtual) refers to cpp_signal.o(.text) for __rt_SIGPVFN
    pure_virt.o(.ARM.exidx) refers to pure_virt.o(i.__cxa_pure_virtual) for i.__cxa_pure_virtual
    cxa_guard_acquire.o(.ARM.exidx) refers to cxa_guard_acquire.o(i.__cxa_guard_acquire) for i.__cxa_guard_acquire
    cxa_guard_release.o(.ARM.exidx) refers to cxa_guard_release.o(i.__cxa_guard_release) for i.__cxa_guard_release
    lib_rtti_impl.o(i._ZN10__cxxabiv116__enum_type_infoD0Ev) refers to lib_rtti_impl.o(i._ZN10__cxxabiv116__enum_type_infoD1Ev) for __cxxabiv1::__enum_type_info::~__enum_type_info()
    lib_rtti_impl.o(i._ZN10__cxxabiv117__array_type_infoD0Ev) refers to lib_rtti_impl.o(i._ZN10__cxxabiv117__array_type_infoD1Ev) for __cxxabiv1::__array_type_info::~__array_type_info()
    lib_rtti_impl.o(i._ZN10__cxxabiv117__class_type_infoD0Ev) refers to lib_rtti_impl.o(i._ZN10__cxxabiv117__class_type_infoD1Ev) for __cxxabiv1::__class_type_info::~__class_type_info()
    lib_rtti_impl.o(i._ZN10__cxxabiv117__pbase_type_infoD0Ev) refers to lib_rtti_impl.o(i._ZN10__cxxabiv117__pbase_type_infoD1Ev) for __cxxabiv1::__pbase_type_info::~__pbase_type_info()
    lib_rtti_impl.o(i._ZN10__cxxabiv119__pointer_type_infoD0Ev) refers to lib_rtti_impl.o(i._ZN10__cxxabiv119__pointer_type_infoD1Ev) for __cxxabiv1::__pointer_type_info::~__pointer_type_info()
    lib_rtti_impl.o(i._ZN10__cxxabiv119__pointer_type_infoD1Ev) refers to lib_rtti_impl.o(i._ZN10__cxxabiv117__pbase_type_infoD1Ev) for __cxxabiv1::__pbase_type_info::~__pbase_type_info()
    lib_rtti_impl.o(i._ZN10__cxxabiv120__function_type_infoD0Ev) refers to lib_rtti_impl.o(i._ZN10__cxxabiv120__function_type_infoD1Ev) for __cxxabiv1::__function_type_info::~__function_type_info()
    lib_rtti_impl.o(i._ZN10__cxxabiv120__si_class_type_infoD0Ev) refers to lib_rtti_impl.o(i._ZN10__cxxabiv120__si_class_type_infoD1Ev) for __cxxabiv1::__si_class_type_info::~__si_class_type_info()
    lib_rtti_impl.o(i._ZN10__cxxabiv120__si_class_type_infoD1Ev) refers to lib_rtti_impl.o(i._ZN10__cxxabiv117__class_type_infoD1Ev) for __cxxabiv1::__class_type_info::~__class_type_info()
    lib_rtti_impl.o(i._ZN10__cxxabiv121__vmi_class_type_infoD0Ev) refers to lib_rtti_impl.o(i._ZN10__cxxabiv121__vmi_class_type_infoD1Ev) for __cxxabiv1::__vmi_class_type_info::~__vmi_class_type_info()
    lib_rtti_impl.o(i._ZN10__cxxabiv121__vmi_class_type_infoD1Ev) refers to lib_rtti_impl.o(i._ZN10__cxxabiv117__class_type_infoD1Ev) for __cxxabiv1::__class_type_info::~__class_type_info()
    lib_rtti_impl.o(i._ZN10__cxxabiv123__fundamental_type_infoD0Ev) refers to lib_rtti_impl.o(i._ZN10__cxxabiv123__fundamental_type_infoD1Ev) for __cxxabiv1::__fundamental_type_info::~__fundamental_type_info()
    lib_rtti_impl.o(i._ZN10__cxxabiv129__pointer_to_member_type_infoD0Ev) refers to lib_rtti_impl.o(i._ZN10__cxxabiv129__pointer_to_member_type_infoD1Ev) for __cxxabiv1::__pointer_to_member_type_info::~__pointer_to_member_type_info()
    lib_rtti_impl.o(i._ZN10__cxxabiv129__pointer_to_member_type_infoD1Ev) refers to lib_rtti_impl.o(i._ZN10__cxxabiv117__pbase_type_infoD1Ev) for __cxxabiv1::__pbase_type_info::~__pbase_type_info()
    lib_rtti_impl.o(.ARM.exidx) refers to lib_rtti_impl.o(i._ZN10__cxxabiv123__fundamental_type_infoD1Ev) for i._ZN10__cxxabiv123__fundamental_type_infoD1Ev
    lib_rtti_impl.o(.ARM.exidx) refers to lib_rtti_impl.o(i._ZN10__cxxabiv123__fundamental_type_infoD0Ev) for i._ZN10__cxxabiv123__fundamental_type_infoD0Ev
    lib_rtti_impl.o(.ARM.exidx) refers to lib_rtti_impl.o(i._ZN10__cxxabiv117__array_type_infoD1Ev) for i._ZN10__cxxabiv117__array_type_infoD1Ev
    lib_rtti_impl.o(.ARM.exidx) refers to lib_rtti_impl.o(i._ZN10__cxxabiv117__array_type_infoD0Ev) for i._ZN10__cxxabiv117__array_type_infoD0Ev
    lib_rtti_impl.o(.ARM.exidx) refers to lib_rtti_impl.o(i._ZN10__cxxabiv120__function_type_infoD1Ev) for i._ZN10__cxxabiv120__function_type_infoD1Ev
    lib_rtti_impl.o(.ARM.exidx) refers to lib_rtti_impl.o(i._ZN10__cxxabiv120__function_type_infoD0Ev) for i._ZN10__cxxabiv120__function_type_infoD0Ev
    lib_rtti_impl.o(.ARM.exidx) refers to lib_rtti_impl.o(i._ZN10__cxxabiv116__enum_type_infoD1Ev) for i._ZN10__cxxabiv116__enum_type_infoD1Ev
    lib_rtti_impl.o(.ARM.exidx) refers to lib_rtti_impl.o(i._ZN10__cxxabiv116__enum_type_infoD0Ev) for i._ZN10__cxxabiv116__enum_type_infoD0Ev
    lib_rtti_impl.o(.ARM.exidx) refers to lib_rtti_impl.o(i._ZN10__cxxabiv117__class_type_infoD1Ev) for i._ZN10__cxxabiv117__class_type_infoD1Ev
    lib_rtti_impl.o(.ARM.exidx) refers to lib_rtti_impl.o(i._ZN10__cxxabiv117__class_type_infoD0Ev) for i._ZN10__cxxabiv117__class_type_infoD0Ev
    lib_rtti_impl.o(.ARM.exidx) refers to lib_rtti_impl.o(i._ZN10__cxxabiv120__si_class_type_infoD1Ev) for i._ZN10__cxxabiv120__si_class_type_infoD1Ev
    lib_rtti_impl.o(.ARM.exidx) refers to lib_rtti_impl.o(i._ZN10__cxxabiv120__si_class_type_infoD0Ev) for i._ZN10__cxxabiv120__si_class_type_infoD0Ev
    lib_rtti_impl.o(.ARM.exidx) refers to lib_rtti_impl.o(i._ZN10__cxxabiv121__vmi_class_type_infoD1Ev) for i._ZN10__cxxabiv121__vmi_class_type_infoD1Ev
    lib_rtti_impl.o(.ARM.exidx) refers to lib_rtti_impl.o(i._ZN10__cxxabiv121__vmi_class_type_infoD0Ev) for i._ZN10__cxxabiv121__vmi_class_type_infoD0Ev
    lib_rtti_impl.o(.ARM.exidx) refers to lib_rtti_impl.o(i._ZN10__cxxabiv117__pbase_type_infoD1Ev) for i._ZN10__cxxabiv117__pbase_type_infoD1Ev
    lib_rtti_impl.o(.ARM.exidx) refers to lib_rtti_impl.o(i._ZN10__cxxabiv117__pbase_type_infoD0Ev) for i._ZN10__cxxabiv117__pbase_type_infoD0Ev
    lib_rtti_impl.o(.ARM.exidx) refers to lib_rtti_impl.o(i._ZN10__cxxabiv119__pointer_type_infoD1Ev) for i._ZN10__cxxabiv119__pointer_type_infoD1Ev
    lib_rtti_impl.o(.ARM.exidx) refers to lib_rtti_impl.o(i._ZN10__cxxabiv119__pointer_type_infoD0Ev) for i._ZN10__cxxabiv119__pointer_type_infoD0Ev
    lib_rtti_impl.o(.ARM.exidx) refers to lib_rtti_impl.o(i._ZN10__cxxabiv129__pointer_to_member_type_infoD1Ev) for i._ZN10__cxxabiv129__pointer_to_member_type_infoD1Ev
    lib_rtti_impl.o(.ARM.exidx) refers to lib_rtti_impl.o(i._ZN10__cxxabiv129__pointer_to_member_type_infoD0Ev) for i._ZN10__cxxabiv129__pointer_to_member_type_infoD0Ev
    aeabi_vec_delete_noexceptions.o(.text) refers to aeabi_vec_dtor_cookie.o(i.__aeabi_vec_dtor_cookie) for __aeabi_vec_dtor_cookie
    aeabi_vec_delete_noexceptions.o(.text) refers to array_del.o(i._ZdaPv) for operator delete[] (void*)
    aeabi_vec_delete_noexceptions.o(.ARM.exidx) refers to aeabi_vec_delete_noexceptions.o(.text) for .text
    aeabi_vec_new_cookie_nodtor.o(i.__aeabi_vec_new_cookie_nodtor) refers to cxa_vec_new.o(i.__cxa_vec_new) for __cxa_vec_new
    aeabi_vec_new_cookie_nodtor.o(.ARM.exidx) refers to aeabi_vec_new_cookie_nodtor.o(i.__aeabi_vec_new_cookie_nodtor) for i.__aeabi_vec_new_cookie_nodtor
    aeabi_vec_new_cookie_nodtor.o(.ARM.exidx) refers to unwind_pr0.o(.text) for __aeabi_unwind_cpp_pr0
    aeabi_vec_ctor_nocookie_nodtor.o(.ARM.exidx) refers to aeabi_vec_ctor_nocookie_nodtor.o(i.__aeabi_vec_ctor_nocookie_nodtor) for i.__aeabi_vec_ctor_nocookie_nodtor
    aeabi_vec_ctor_nocookie_nodtor.o(.ARM.exidx) refers to unwind_pr0.o(.text) for __aeabi_unwind_cpp_pr0
    floorf.o(i.__hardfp_floorf) refers (Special) to iusefp.o(.text) for __I$use$fp
    floorf.o(i.__softfp_floorf) refers (Special) to iusefp.o(.text) for __I$use$fp
    floorf.o(i.floorf) refers (Special) to iusefp.o(.text) for __I$use$fp
    powf.o(i.__hardfp_powf) refers (Special) to iusefp.o(.text) for __I$use$fp
    powf.o(i.__hardfp_powf) refers to fpstat.o(.text) for __ieee_status
    powf.o(i.__hardfp_powf) refers to errno.o(i.__set_errno) for __set_errno
    powf.o(i.__hardfp_powf) refers to funder.o(i.__mathlib_flt_overflow) for __mathlib_flt_overflow
    powf.o(i.__hardfp_powf) refers to fpclassifyf.o(i.__ARM_fpclassifyf) for __ARM_fpclassifyf
    powf.o(i.__hardfp_powf) refers to funder.o(i.__mathlib_flt_underflow) for __mathlib_flt_underflow
    powf.o(i.__hardfp_powf) refers to funder.o(i.__mathlib_flt_invalid) for __mathlib_flt_invalid
    powf.o(i.__hardfp_powf) refers to powf.o(.constdata) for .constdata
    powf.o(i.__hardfp_powf) refers to funder.o(i.__mathlib_flt_infnan2) for __mathlib_flt_infnan2
    powf.o(i.__hardfp_powf) refers to funder.o(i.__mathlib_flt_divzero) for __mathlib_flt_divzero
    powf.o(i.__softfp_powf) refers (Special) to iusefp.o(.text) for __I$use$fp
    powf.o(i.__softfp_powf) refers to powf.o(i.__hardfp_powf) for __hardfp_powf
    powf.o(i.powf) refers (Special) to iusefp.o(.text) for __I$use$fp
    powf.o(i.powf) refers to powf.o(i.__hardfp_powf) for __hardfp_powf
    powf.o(.constdata) refers (Special) to iusefp.o(.text) for __I$use$fp
    powf_x.o(i.____hardfp_powf$lsc) refers (Special) to iusefp.o(.text) for __I$use$fp
    powf_x.o(i.____hardfp_powf$lsc) refers to fpstat.o(.text) for __ieee_status
    powf_x.o(i.____hardfp_powf$lsc) refers to errno.o(i.__set_errno) for __set_errno
    powf_x.o(i.____hardfp_powf$lsc) refers to powf_x.o(.constdata) for .constdata
    powf_x.o(i.____hardfp_powf$lsc) refers to funder.o(i.__mathlib_flt_infnan2) for __mathlib_flt_infnan2
    powf_x.o(i.____softfp_powf$lsc) refers (Special) to iusefp.o(.text) for __I$use$fp
    powf_x.o(i.____softfp_powf$lsc) refers to powf_x.o(i.____hardfp_powf$lsc) for ____hardfp_powf$lsc
    powf_x.o(i.__powf$lsc) refers (Special) to iusefp.o(.text) for __I$use$fp
    powf_x.o(i.__powf$lsc) refers to powf_x.o(i.____hardfp_powf$lsc) for ____hardfp_powf$lsc
    powf_x.o(.constdata) refers (Special) to iusefp.o(.text) for __I$use$fp
    entry.o(.ARM.Collect$$$$00000000) refers (Special) to entry10a.o(.ARM.Collect$$$$0000000D) for __rt_final_cpp
    entry.o(.ARM.Collect$$$$00000000) refers (Special) to entry11a.o(.ARM.Collect$$$$0000000F) for __rt_final_exit
    entry.o(.ARM.Collect$$$$00000000) refers (Special) to entry7b.o(.ARM.Collect$$$$00000008) for _main_clock
    entry.o(.ARM.Collect$$$$00000000) refers (Special) to entry8b.o(.ARM.Collect$$$$0000000A) for _main_cpp_init
    entry.o(.ARM.Collect$$$$00000000) refers (Special) to entry9a.o(.ARM.Collect$$$$0000000B) for _main_init
    entry.o(.ARM.Collect$$$$00000000) refers (Special) to entry5.o(.ARM.Collect$$$$00000004) for _main_scatterload
    entry.o(.ARM.Collect$$$$00000000) refers (Special) to entry2.o(.ARM.Collect$$$$00000001) for _main_stk
    fputc.o(i.fputc) refers (Special) to iusesemip.o(.text) for __I$use$semihosting$fputc
    fputc.o(i.fputc) refers (Special) to semi.o(.text) for __semihosting_library_function
    uldiv.o(.text) refers to llushr.o(.text) for __aeabi_llsr
    uldiv.o(.text) refers to llshl.o(.text) for __aeabi_llsl
    printfb.o(i.__0fprintf$bare) refers to printfb.o(i._printf_core) for _printf_core
    printfb.o(i.__0fprintf$bare) refers to fputc.o(i.fputc) for fputc
    printfb.o(i.__0printf$bare) refers to printfb.o(i._printf_core) for _printf_core
    printfb.o(i.__0printf$bare) refers to fputc.o(i.fputc) for fputc
    printfb.o(i.__0printf$bare) refers to stdout.o(.data) for __stdout
    printfb.o(i.__0snprintf$bare) refers to printfb.o(i._printf_core) for _printf_core
    printfb.o(i.__0snprintf$bare) refers to printfb.o(i._snputc) for _snputc
    printfb.o(i.__0sprintf$bare) refers to printfb.o(i._printf_core) for _printf_core
    printfb.o(i.__0sprintf$bare) refers to printfb.o(i._sputc) for _sputc
    printfb.o(i.__0vfprintf$bare) refers to printfb.o(i._printf_core) for _printf_core
    printfb.o(i.__0vfprintf$bare) refers to fputc.o(i.fputc) for fputc
    printfb.o(i.__0vprintf$bare) refers to printfb.o(i._printf_core) for _printf_core
    printfb.o(i.__0vprintf$bare) refers to fputc.o(i.fputc) for fputc
    printfb.o(i.__0vprintf$bare) refers to stdout.o(.data) for __stdout
    printfb.o(i.__0vsnprintf$bare) refers to printfb.o(i._printf_core) for _printf_core
    printfb.o(i.__0vsnprintf$bare) refers to printfb.o(i._snputc) for _snputc
    printfb.o(i.__0vsprintf$bare) refers to printfb.o(i._printf_core) for _printf_core
    printfb.o(i.__0vsprintf$bare) refers to printfb.o(i._sputc) for _sputc
    printf0.o(i.__0fprintf$0) refers to printf0.o(i._printf_core) for _printf_core
    printf0.o(i.__0fprintf$0) refers to fputc.o(i.fputc) for fputc
    printf0.o(i.__0printf$0) refers to printf0.o(i._printf_core) for _printf_core
    printf0.o(i.__0printf$0) refers to fputc.o(i.fputc) for fputc
    printf0.o(i.__0printf$0) refers to stdout.o(.data) for __stdout
    printf0.o(i.__0snprintf$0) refers to printf0.o(i._printf_core) for _printf_core
    printf0.o(i.__0snprintf$0) refers to printf0.o(i._snputc) for _snputc
    printf0.o(i.__0sprintf$0) refers to printf0.o(i._printf_core) for _printf_core
    printf0.o(i.__0sprintf$0) refers to printf0.o(i._sputc) for _sputc
    printf0.o(i.__0vfprintf$0) refers to printf0.o(i._printf_core) for _printf_core
    printf0.o(i.__0vfprintf$0) refers to fputc.o(i.fputc) for fputc
    printf0.o(i.__0vprintf$0) refers to printf0.o(i._printf_core) for _printf_core
    printf0.o(i.__0vprintf$0) refers to fputc.o(i.fputc) for fputc
    printf0.o(i.__0vprintf$0) refers to stdout.o(.data) for __stdout
    printf0.o(i.__0vsnprintf$0) refers to printf0.o(i._printf_core) for _printf_core
    printf0.o(i.__0vsnprintf$0) refers to printf0.o(i._snputc) for _snputc
    printf0.o(i.__0vsprintf$0) refers to printf0.o(i._printf_core) for _printf_core
    printf0.o(i.__0vsprintf$0) refers to printf0.o(i._sputc) for _sputc
    printf1.o(i.__0fprintf$1) refers to printf1.o(i._printf_core) for _printf_core
    printf1.o(i.__0fprintf$1) refers to fputc.o(i.fputc) for fputc
    printf1.o(i.__0printf$1) refers to printf1.o(i._printf_core) for _printf_core
    printf1.o(i.__0printf$1) refers to fputc.o(i.fputc) for fputc
    printf1.o(i.__0printf$1) refers to stdout.o(.data) for __stdout
    printf1.o(i.__0snprintf$1) refers to printf1.o(i._printf_core) for _printf_core
    printf1.o(i.__0snprintf$1) refers to printf1.o(i._snputc) for _snputc
    printf1.o(i.__0sprintf$1) refers to printf1.o(i._printf_core) for _printf_core
    printf1.o(i.__0sprintf$1) refers to printf1.o(i._sputc) for _sputc
    printf1.o(i.__0vfprintf$1) refers to printf1.o(i._printf_core) for _printf_core
    printf1.o(i.__0vfprintf$1) refers to fputc.o(i.fputc) for fputc
    printf1.o(i.__0vprintf$1) refers to printf1.o(i._printf_core) for _printf_core
    printf1.o(i.__0vprintf$1) refers to fputc.o(i.fputc) for fputc
    printf1.o(i.__0vprintf$1) refers to stdout.o(.data) for __stdout
    printf1.o(i.__0vsnprintf$1) refers to printf1.o(i._printf_core) for _printf_core
    printf1.o(i.__0vsnprintf$1) refers to printf1.o(i._snputc) for _snputc
    printf1.o(i.__0vsprintf$1) refers to printf1.o(i._printf_core) for _printf_core
    printf1.o(i.__0vsprintf$1) refers to printf1.o(i._sputc) for _sputc
    printf1.o(i._printf_core) refers to uidiv.o(.text) for __aeabi_uidivmod
    printf2.o(i.__0fprintf$2) refers to printf2.o(i._printf_core) for _printf_core
    printf2.o(i.__0fprintf$2) refers to fputc.o(i.fputc) for fputc
    printf2.o(i.__0printf$2) refers to printf2.o(i._printf_core) for _printf_core
    printf2.o(i.__0printf$2) refers to fputc.o(i.fputc) for fputc
    printf2.o(i.__0printf$2) refers to stdout.o(.data) for __stdout
    printf2.o(i.__0snprintf$2) refers to printf2.o(i._printf_core) for _printf_core
    printf2.o(i.__0snprintf$2) refers to printf2.o(i._snputc) for _snputc
    printf2.o(i.__0sprintf$2) refers to printf2.o(i._printf_core) for _printf_core
    printf2.o(i.__0sprintf$2) refers to printf2.o(i._sputc) for _sputc
    printf2.o(i.__0vfprintf$2) refers to printf2.o(i._printf_core) for _printf_core
    printf2.o(i.__0vfprintf$2) refers to fputc.o(i.fputc) for fputc
    printf2.o(i.__0vprintf$2) refers to printf2.o(i._printf_core) for _printf_core
    printf2.o(i.__0vprintf$2) refers to fputc.o(i.fputc) for fputc
    printf2.o(i.__0vprintf$2) refers to stdout.o(.data) for __stdout
    printf2.o(i.__0vsnprintf$2) refers to printf2.o(i._printf_core) for _printf_core
    printf2.o(i.__0vsnprintf$2) refers to printf2.o(i._snputc) for _snputc
    printf2.o(i.__0vsprintf$2) refers to printf2.o(i._printf_core) for _printf_core
    printf2.o(i.__0vsprintf$2) refers to printf2.o(i._sputc) for _sputc
    printf3.o(i.__0fprintf$3) refers to printf3.o(i._printf_core) for _printf_core
    printf3.o(i.__0fprintf$3) refers to fputc.o(i.fputc) for fputc
    printf3.o(i.__0printf$3) refers to printf3.o(i._printf_core) for _printf_core
    printf3.o(i.__0printf$3) refers to fputc.o(i.fputc) for fputc
    printf3.o(i.__0printf$3) refers to stdout.o(.data) for __stdout
    printf3.o(i.__0snprintf$3) refers to printf3.o(i._printf_core) for _printf_core
    printf3.o(i.__0snprintf$3) refers to printf3.o(i._snputc) for _snputc
    printf3.o(i.__0sprintf$3) refers to printf3.o(i._printf_core) for _printf_core
    printf3.o(i.__0sprintf$3) refers to printf3.o(i._sputc) for _sputc
    printf3.o(i.__0vfprintf$3) refers to printf3.o(i._printf_core) for _printf_core
    printf3.o(i.__0vfprintf$3) refers to fputc.o(i.fputc) for fputc
    printf3.o(i.__0vprintf$3) refers to printf3.o(i._printf_core) for _printf_core
    printf3.o(i.__0vprintf$3) refers to fputc.o(i.fputc) for fputc
    printf3.o(i.__0vprintf$3) refers to stdout.o(.data) for __stdout
    printf3.o(i.__0vsnprintf$3) refers to printf3.o(i._printf_core) for _printf_core
    printf3.o(i.__0vsnprintf$3) refers to printf3.o(i._snputc) for _snputc
    printf3.o(i.__0vsprintf$3) refers to printf3.o(i._printf_core) for _printf_core
    printf3.o(i.__0vsprintf$3) refers to printf3.o(i._sputc) for _sputc
    printf3.o(i._printf_core) refers to uidiv.o(.text) for __aeabi_uidivmod
    printf4.o(i.__0fprintf$4) refers to printf4.o(i._printf_core) for _printf_core
    printf4.o(i.__0fprintf$4) refers to fputc.o(i.fputc) for fputc
    printf4.o(i.__0printf$4) refers to printf4.o(i._printf_core) for _printf_core
    printf4.o(i.__0printf$4) refers to fputc.o(i.fputc) for fputc
    printf4.o(i.__0printf$4) refers to stdout.o(.data) for __stdout
    printf4.o(i.__0snprintf$4) refers to printf4.o(i._printf_core) for _printf_core
    printf4.o(i.__0snprintf$4) refers to printf4.o(i._snputc) for _snputc
    printf4.o(i.__0sprintf$4) refers to printf4.o(i._printf_core) for _printf_core
    printf4.o(i.__0sprintf$4) refers to printf4.o(i._sputc) for _sputc
    printf4.o(i.__0vfprintf$4) refers to printf4.o(i._printf_core) for _printf_core
    printf4.o(i.__0vfprintf$4) refers to fputc.o(i.fputc) for fputc
    printf4.o(i.__0vprintf$4) refers to printf4.o(i._printf_core) for _printf_core
    printf4.o(i.__0vprintf$4) refers to fputc.o(i.fputc) for fputc
    printf4.o(i.__0vprintf$4) refers to stdout.o(.data) for __stdout
    printf4.o(i.__0vsnprintf$4) refers to printf4.o(i._printf_core) for _printf_core
    printf4.o(i.__0vsnprintf$4) refers to printf4.o(i._snputc) for _snputc
    printf4.o(i.__0vsprintf$4) refers to printf4.o(i._printf_core) for _printf_core
    printf4.o(i.__0vsprintf$4) refers to printf4.o(i._sputc) for _sputc
    printf4.o(i._printf_core) refers to uldiv.o(.text) for __aeabi_uldivmod
    printf5.o(i.__0fprintf$5) refers to printf5.o(i._printf_core) for _printf_core
    printf5.o(i.__0fprintf$5) refers to fputc.o(i.fputc) for fputc
    printf5.o(i.__0printf$5) refers to printf5.o(i._printf_core) for _printf_core
    printf5.o(i.__0printf$5) refers to fputc.o(i.fputc) for fputc
    printf5.o(i.__0printf$5) refers to stdout.o(.data) for __stdout
    printf5.o(i.__0snprintf$5) refers to printf5.o(i._printf_core) for _printf_core
    printf5.o(i.__0snprintf$5) refers to printf5.o(i._snputc) for _snputc
    printf5.o(i.__0sprintf$5) refers to printf5.o(i._printf_core) for _printf_core
    printf5.o(i.__0sprintf$5) refers to printf5.o(i._sputc) for _sputc
    printf5.o(i.__0vfprintf$5) refers to printf5.o(i._printf_core) for _printf_core
    printf5.o(i.__0vfprintf$5) refers to fputc.o(i.fputc) for fputc
    printf5.o(i.__0vprintf$5) refers to printf5.o(i._printf_core) for _printf_core
    printf5.o(i.__0vprintf$5) refers to fputc.o(i.fputc) for fputc
    printf5.o(i.__0vprintf$5) refers to stdout.o(.data) for __stdout
    printf5.o(i.__0vsnprintf$5) refers to printf5.o(i._printf_core) for _printf_core
    printf5.o(i.__0vsnprintf$5) refers to printf5.o(i._snputc) for _snputc
    printf5.o(i.__0vsprintf$5) refers to printf5.o(i._printf_core) for _printf_core
    printf5.o(i.__0vsprintf$5) refers to printf5.o(i._sputc) for _sputc
    printf5.o(i._printf_core) refers to uldiv.o(.text) for __aeabi_uldivmod
    printf6.o(i.__0fprintf$6) refers to printf6.o(i._printf_core) for _printf_core
    printf6.o(i.__0fprintf$6) refers to fputc.o(i.fputc) for fputc
    printf6.o(i.__0printf$6) refers to printf6.o(i._printf_core) for _printf_core
    printf6.o(i.__0printf$6) refers to fputc.o(i.fputc) for fputc
    printf6.o(i.__0printf$6) refers to stdout.o(.data) for __stdout
    printf6.o(i.__0snprintf$6) refers to printf6.o(i._printf_core) for _printf_core
    printf6.o(i.__0snprintf$6) refers to printf6.o(i._snputc) for _snputc
    printf6.o(i.__0sprintf$6) refers to printf6.o(i._printf_core) for _printf_core
    printf6.o(i.__0sprintf$6) refers to printf6.o(i._sputc) for _sputc
    printf6.o(i.__0vfprintf$6) refers to printf6.o(i._printf_core) for _printf_core
    printf6.o(i.__0vfprintf$6) refers to fputc.o(i.fputc) for fputc
    printf6.o(i.__0vprintf$6) refers to printf6.o(i._printf_core) for _printf_core
    printf6.o(i.__0vprintf$6) refers to fputc.o(i.fputc) for fputc
    printf6.o(i.__0vprintf$6) refers to stdout.o(.data) for __stdout
    printf6.o(i.__0vsnprintf$6) refers to printf6.o(i._printf_core) for _printf_core
    printf6.o(i.__0vsnprintf$6) refers to printf6.o(i._snputc) for _snputc
    printf6.o(i.__0vsprintf$6) refers to printf6.o(i._printf_core) for _printf_core
    printf6.o(i.__0vsprintf$6) refers to printf6.o(i._sputc) for _sputc
    printf6.o(i._printf_core) refers to printf6.o(i._printf_pre_padding) for _printf_pre_padding
    printf6.o(i._printf_core) refers to uidiv.o(.text) for __aeabi_uidivmod
    printf6.o(i._printf_core) refers to printf6.o(i._printf_post_padding) for _printf_post_padding
    printf7.o(i.__0fprintf$7) refers to printf7.o(i._printf_core) for _printf_core
    printf7.o(i.__0fprintf$7) refers to fputc.o(i.fputc) for fputc
    printf7.o(i.__0printf$7) refers to printf7.o(i._printf_core) for _printf_core
    printf7.o(i.__0printf$7) refers to fputc.o(i.fputc) for fputc
    printf7.o(i.__0printf$7) refers to stdout.o(.data) for __stdout
    printf7.o(i.__0snprintf$7) refers to printf7.o(i._printf_core) for _printf_core
    printf7.o(i.__0snprintf$7) refers to printf7.o(i._snputc) for _snputc
    printf7.o(i.__0sprintf$7) refers to printf7.o(i._printf_core) for _printf_core
    printf7.o(i.__0sprintf$7) refers to printf7.o(i._sputc) for _sputc
    printf7.o(i.__0vfprintf$7) refers to printf7.o(i._printf_core) for _printf_core
    printf7.o(i.__0vfprintf$7) refers to fputc.o(i.fputc) for fputc
    printf7.o(i.__0vprintf$7) refers to printf7.o(i._printf_core) for _printf_core
    printf7.o(i.__0vprintf$7) refers to fputc.o(i.fputc) for fputc
    printf7.o(i.__0vprintf$7) refers to stdout.o(.data) for __stdout
    printf7.o(i.__0vsnprintf$7) refers to printf7.o(i._printf_core) for _printf_core
    printf7.o(i.__0vsnprintf$7) refers to printf7.o(i._snputc) for _snputc
    printf7.o(i.__0vsprintf$7) refers to printf7.o(i._printf_core) for _printf_core
    printf7.o(i.__0vsprintf$7) refers to printf7.o(i._sputc) for _sputc
    printf7.o(i._printf_core) refers to printf7.o(i._printf_pre_padding) for _printf_pre_padding
    printf7.o(i._printf_core) refers to uldiv.o(.text) for __aeabi_uldivmod
    printf7.o(i._printf_core) refers to printf7.o(i._printf_post_padding) for _printf_post_padding
    printf8.o(i.__0fprintf$8) refers to printf8.o(i._printf_core) for _printf_core
    printf8.o(i.__0fprintf$8) refers to fputc.o(i.fputc) for fputc
    printf8.o(i.__0printf$8) refers to printf8.o(i._printf_core) for _printf_core
    printf8.o(i.__0printf$8) refers to fputc.o(i.fputc) for fputc
    printf8.o(i.__0printf$8) refers to stdout.o(.data) for __stdout
    printf8.o(i.__0snprintf$8) refers to printf8.o(i._printf_core) for _printf_core
    printf8.o(i.__0snprintf$8) refers to printf8.o(i._snputc) for _snputc
    printf8.o(i.__0sprintf$8) refers to printf8.o(i._printf_core) for _printf_core
    printf8.o(i.__0sprintf$8) refers to printf8.o(i._sputc) for _sputc
    printf8.o(i.__0vfprintf$8) refers to printf8.o(i._printf_core) for _printf_core
    printf8.o(i.__0vfprintf$8) refers to fputc.o(i.fputc) for fputc
    printf8.o(i.__0vprintf$8) refers to printf8.o(i._printf_core) for _printf_core
    printf8.o(i.__0vprintf$8) refers to fputc.o(i.fputc) for fputc
    printf8.o(i.__0vprintf$8) refers to stdout.o(.data) for __stdout
    printf8.o(i.__0vsnprintf$8) refers to printf8.o(i._printf_core) for _printf_core
    printf8.o(i.__0vsnprintf$8) refers to printf8.o(i._snputc) for _snputc
    printf8.o(i.__0vsprintf$8) refers to printf8.o(i._printf_core) for _printf_core
    printf8.o(i.__0vsprintf$8) refers to printf8.o(i._sputc) for _sputc
    printf8.o(i._printf_core) refers to printf8.o(i._printf_pre_padding) for _printf_pre_padding
    printf8.o(i._printf_core) refers to uldiv.o(.text) for __aeabi_uldivmod
    printf8.o(i._printf_core) refers to printf8.o(i._printf_post_padding) for _printf_post_padding
    printfa.o(i.__0fprintf) refers (Special) to iusefp.o(.text) for __I$use$fp
    printfa.o(i.__0fprintf) refers to printfa.o(i._printf_core) for _printf_core
    printfa.o(i.__0fprintf) refers to fputc.o(i.fputc) for fputc
    printfa.o(i.__0printf) refers (Special) to iusefp.o(.text) for __I$use$fp
    printfa.o(i.__0printf) refers to printfa.o(i._printf_core) for _printf_core
    printfa.o(i.__0printf) refers to fputc.o(i.fputc) for fputc
    printfa.o(i.__0printf) refers to stdout.o(.data) for __stdout
    printfa.o(i.__0snprintf) refers (Special) to iusefp.o(.text) for __I$use$fp
    printfa.o(i.__0snprintf) refers to printfa.o(i._printf_core) for _printf_core
    printfa.o(i.__0snprintf) refers to printfa.o(i._snputc) for _snputc
    printfa.o(i.__0sprintf) refers (Special) to iusefp.o(.text) for __I$use$fp
    printfa.o(i.__0sprintf) refers to printfa.o(i._printf_core) for _printf_core
    printfa.o(i.__0sprintf) refers to printfa.o(i._sputc) for _sputc
    printfa.o(i.__0vfprintf) refers (Special) to iusefp.o(.text) for __I$use$fp
    printfa.o(i.__0vfprintf) refers to printfa.o(i._printf_core) for _printf_core
    printfa.o(i.__0vfprintf) refers to fputc.o(i.fputc) for fputc
    printfa.o(i.__0vprintf) refers (Special) to iusefp.o(.text) for __I$use$fp
    printfa.o(i.__0vprintf) refers to printfa.o(i._printf_core) for _printf_core
    printfa.o(i.__0vprintf) refers to fputc.o(i.fputc) for fputc
    printfa.o(i.__0vprintf) refers to stdout.o(.data) for __stdout
    printfa.o(i.__0vsnprintf) refers (Special) to iusefp.o(.text) for __I$use$fp
    printfa.o(i.__0vsnprintf) refers to printfa.o(i._printf_core) for _printf_core
    printfa.o(i.__0vsnprintf) refers to printfa.o(i._snputc) for _snputc
    printfa.o(i.__0vsprintf) refers (Special) to iusefp.o(.text) for __I$use$fp
    printfa.o(i.__0vsprintf) refers to printfa.o(i._printf_core) for _printf_core
    printfa.o(i.__0vsprintf) refers to printfa.o(i._sputc) for _sputc
    printfa.o(i._fp_digits) refers (Special) to iusefp.o(.text) for __I$use$fp
    printfa.o(i._fp_digits) refers to dmul.o(.text) for __aeabi_dmul
    printfa.o(i._fp_digits) refers to ddiv.o(.text) for __aeabi_ddiv
    printfa.o(i._fp_digits) refers to cdrcmple.o(.text) for __aeabi_cdrcmple
    printfa.o(i._fp_digits) refers to dadd.o(.text) for __aeabi_dadd
    printfa.o(i._fp_digits) refers to dfixul.o(.text) for __aeabi_d2ulz
    printfa.o(i._fp_digits) refers to uldiv.o(.text) for __aeabi_uldivmod
    printfa.o(i._printf_core) refers (Special) to iusefp.o(.text) for __I$use$fp
    printfa.o(i._printf_core) refers to printfa.o(i._printf_pre_padding) for _printf_pre_padding
    printfa.o(i._printf_core) refers to uldiv.o(.text) for __aeabi_uldivmod
    printfa.o(i._printf_core) refers to printfa.o(i._printf_post_padding) for _printf_post_padding
    printfa.o(i._printf_core) refers to printfa.o(i._fp_digits) for _fp_digits
    printfa.o(i._printf_core) refers to uidiv.o(.text) for __aeabi_uidivmod
    printfa.o(i._printf_post_padding) refers (Special) to iusefp.o(.text) for __I$use$fp
    printfa.o(i._printf_pre_padding) refers (Special) to iusefp.o(.text) for __I$use$fp
    printfa.o(i._snputc) refers (Special) to iusefp.o(.text) for __I$use$fp
    printfa.o(i._sputc) refers (Special) to iusefp.o(.text) for __I$use$fp
    malloc.o(i.free) refers to mvars.o(.data) for __microlib_freelist
    malloc.o(i.malloc) refers to mvars.o(.data) for __microlib_freelist_initialised
    malloc.o(i.malloc) refers to mvars.o(.data) for __microlib_freelist
    malloc.o(i.malloc) refers to arm_startup_nrf52.o(HEAP) for __heap_base
    mallocr.o(i.__free$realloc) refers to mvars.o(.data) for __microlib_freelist
    mallocr.o(i.__malloc$realloc) refers to mallocr.o(i.internal_alloc) for internal_alloc
    mallocr.o(i.__malloc$realloc) refers to mvars.o(.data) for __microlib_freelist_initialised
    mallocr.o(i.__malloc$realloc) refers to arm_startup_nrf52.o(HEAP) for __heap_base
    mallocr.o(i.__malloc$realloc) refers to mvars.o(.data) for __microlib_freelist
    mallocr.o(i.internal_alloc) refers to memcpya.o(.text) for __aeabi_memcpy
    mallocr.o(i.internal_alloc) refers to mvars.o(.data) for __microlib_freelist
    mallocr.o(i.realloc) refers to mallocr.o(i.__free$realloc) for __free$realloc
    mallocr.o(i.realloc) refers to mallocr.o(i.internal_alloc) for internal_alloc
    mallocr.o(i.realloc) refers to mallocr.o(i.__malloc$realloc) for __malloc$realloc
    mallocr.o(i.realloc) refers to mvars.o(.data) for __microlib_freelist
    malloca.o(i.__aligned_malloc) refers to mvars.o(.data) for __microlib_freelist_initialised
    malloca.o(i.__aligned_malloc) refers to mvars.o(.data) for __microlib_freelist
    malloca.o(i.__aligned_malloc) refers to arm_startup_nrf52.o(HEAP) for __heap_base
    malloca.o(i.__free$memalign) refers to mvars.o(.data) for __microlib_freelist
    malloca.o(i.__malloc$memalign) refers to malloca.o(i.__aligned_malloc) for __aligned_malloc
    mallocra.o(i.__aligned_malloc$realloc) refers to mallocra.o(i.internal_alloc) for internal_alloc
    mallocra.o(i.__aligned_malloc$realloc) refers to mvars.o(.data) for __microlib_freelist_initialised
    mallocra.o(i.__aligned_malloc$realloc) refers to arm_startup_nrf52.o(HEAP) for __heap_base
    mallocra.o(i.__aligned_malloc$realloc) refers to mvars.o(.data) for __microlib_freelist
    mallocra.o(i.__free$realloc$memalign) refers to mvars.o(.data) for __microlib_freelist
    mallocra.o(i.__malloc$realloc$memalign) refers to mallocra.o(i.__aligned_malloc$realloc) for __aligned_malloc$realloc
    mallocra.o(i.__realloc$memalign) refers to mallocra.o(i.__free$realloc$memalign) for __free$realloc$memalign
    mallocra.o(i.__realloc$memalign) refers to mallocra.o(i.internal_alloc) for internal_alloc
    mallocra.o(i.__realloc$memalign) refers to mallocra.o(i.__malloc$realloc$memalign) for __malloc$realloc$memalign
    mallocra.o(i.__realloc$memalign) refers to mvars.o(.data) for __microlib_freelist
    mallocra.o(i.internal_alloc) refers to memcpya.o(.text) for __aeabi_memcpy
    mallocra.o(i.internal_alloc) refers to mvars.o(.data) for __microlib_freelist
    cpp_init.o(.emb_text) refers (Special) to entry8a.o(.ARM.Collect$$$$00000009) for _main_cpp_init$empty
    cpp_init.o(.init_array) refers (Special) to entry8a.o(.ARM.Collect$$$$00000009) for _main_cpp_init$empty
    cpp_init.o(.init_array) refers to cpp_init.o(.text) for __cpp_initialize__aeabi_
    cpp_init.o(.dummy_text) refers (Special) to entry8a.o(.ARM.Collect$$$$00000009) for _main_cpp_init$empty
    cpp_init.o(.text) refers (Special) to entry8a.o(.ARM.Collect$$$$00000009) for _main_cpp_init$empty
    aeabi_atexit.o(.text) refers (Special) to cxa_finalize.o(.text) for __cxa_finalize
    aeabi_atexit.o(.text) refers to malloc.o(i.malloc) for malloc
    aeabi_atexit.o(.text) refers to cpp_dtor.o(.text) for __rt_ddtor_pointer_addr
    dmul.o(.text) refers (Special) to iusefp.o(.text) for __I$use$fp
    dmul.o(.text) refers to depilogue.o(.text) for _double_epilogue
    ffltul.o(.text) refers (Special) to iusefp.o(.text) for __I$use$fp
    ffltul.o(.text) refers to fepilogue.o(.text) for _float_epilogue
    dfltui.o(.text) refers (Special) to iusefp.o(.text) for __I$use$fp
    dfltui.o(.text) refers to depilogue.o(.text) for _double_epilogue
    ffixul.o(.text) refers (Special) to iusefp.o(.text) for __I$use$fp
    ffixul.o(.text) refers to llshl.o(.text) for __aeabi_llsl
    d2f.o(.text) refers (Special) to iusefp.o(.text) for __I$use$fp
    d2f.o(.text) refers to fepilogue.o(.text) for _float_round
    new.o(i._Znwj) refers to cpp_memory.o(.text) for __rt_new_handler_addr
    new.o(i._Znwj) refers to malloc.o(i.malloc) for malloc
    new.o(i._Znwj) refers to arm_newhandler_noexceptions.o(.text) for __default_new_handler()
    new.o(.ARM.exidx) refers to new.o(i._Znwj) for i._Znwj
    new.o(.ARM.exidx) refers to unwind_pr0.o(.text) for __aeabi_unwind_cpp_pr0
    new.o(.ARM.exidx) refers to new.o(.ARM.extab) for .extab._Znwj
    new.o(.ARM.extab) refers to arm_callunex_noexceptions.o(.text) for __cxa_call_unexpected
    new.o(.ARM.extab) refers to bad_alloc_dtor.o(.constdata__ZTISt9bad_alloc) for typeinfo for std::bad_alloc
    arm_callunex_noexceptions.o(.ARM.exidx) refers to arm_callunex_noexceptions.o(.text) for .text
    bad_alloc_dtor.o(i._ZNSt9bad_allocD0Ev) refers to bad_alloc_dtor.o(i._ZNSt9bad_allocD1Ev) for std::bad_alloc::~bad_alloc()
    bad_alloc_dtor.o(i._ZNSt9bad_allocD0Ev) refers to delete.o(i._ZdlPv) for operator delete (void*)
    bad_alloc_dtor.o(.ARM.exidx) refers to bad_alloc_dtor.o(i._ZNSt9bad_allocD1Ev) for i._ZNSt9bad_allocD1Ev
    bad_alloc_dtor.o(.ARM.exidx) refers to bad_alloc_dtor.o(i._ZNSt9bad_allocD0Ev) for i._ZNSt9bad_allocD0Ev
    cxa_vec_new.o(i.__cxa_vec_new) refers to array_new_general.o(i.__ARM_array_new_general) for __ARM_array_new_general
    cxa_vec_new.o(i.__cxa_vec_new) refers to array_del.o(i._ZdaPv) for operator delete[] (void*)
    cxa_vec_new.o(.ARM.exidx) refers to cxa_vec_new.o(i.__cxa_vec_new) for i.__cxa_vec_new
    cxa_vec_new.o(.ARM.exidx) refers to unwind_pr0.o(.text) for __aeabi_unwind_cpp_pr0
    type_info_dtor.o(.ARM.exidx) refers to type_info_dtor.o(i._ZNSt9type_infoD1Ev) for i._ZNSt9type_infoD1Ev
    type_info_dtor.o(.ARM.exidx) refers to type_info_dtor.o(i._ZNSt9type_infoD0Ev) for i._ZNSt9type_infoD0Ev
    aeabi_vec_dtor_cookie.o(i.__aeabi_vec_dtor_cookie) refers to aeabi_vec_dtor_noexceptions.o(.text) for __aeabi_vec_dtor
    aeabi_vec_dtor_cookie.o(.ARM.exidx) refers to aeabi_vec_dtor_cookie.o(i.__aeabi_vec_dtor_cookie) for i.__aeabi_vec_dtor_cookie
    arm_exceptions_callterm.o(.text) refers to arm_exceptions_globs.o(.text) for __cxa_get_globals
    arm_exceptions_callterm.o(.text) refers to arm_exceptions_support.o(.text) for __ARM::is_foreign_exception(_Unwind_Control_Block*)
    arm_exceptions_callterm.o(.text) refers to arm_exceptions_terminate.o(.text) for std::terminate()
    arm_exceptions_callterm.o(.ARM.exidx) refers to arm_exceptions_callterm.o(.text) for .text
    unwind_pr0.o(.text) refers to unwind_prcommon.o(.text) for __ARM_unwind_cpp_prcommon
    unwind_pr0.o(.ARM.exidx) refers to unwind_pr0.o(.text) for .text
    fpclassifyf.o(i.__ARM_fpclassifyf) refers (Special) to iusefp.o(.text) for __I$use$fp
    entry2.o(.ARM.Collect$$$$00000001) refers to entry2.o(.ARM.Collect$$$$00002712) for __lit__00000000
    entry2.o(.ARM.Collect$$$$00002712) refers to arm_startup_nrf52.o(STACK) for __initial_sp
    entry2.o(__vectab_stack_and_reset_area) refers to arm_startup_nrf52.o(STACK) for __initial_sp
    entry2.o(__vectab_stack_and_reset_area) refers to entry.o(.ARM.Collect$$$$00000000) for __main
    entry5.o(.ARM.Collect$$$$00000004) refers to init.o(.text) for __scatterload
    entry8a.o(.ARM.Collect$$$$00000009) refers (Weak) to cpp_init.o(.text) for __cpp_initialize__aeabi_
    entry9a.o(.ARM.Collect$$$$0000000B) refers to main.o(i.main) for main
    entry9b.o(.ARM.Collect$$$$0000000C) refers to main.o(i.main) for main
    entry10b.o(.ARM.Collect$$$$0000000E) refers (Weak) to cxa_finalize.o(.text) for __cxa_finalize
    errno.o(i.__aeabi_errno_addr) refers to errno.o(.data) for .data
    errno.o(i.__read_errno) refers to errno.o(.data) for .data
    errno.o(i.__set_errno) refers to errno.o(.data) for .data
    cpp_dtor.o(.text) refers to cpp_dtor.o(.data) for .data
    cxa_finalize.o(.text) refers (Special) to cpp_final.o(.text) for __rt_lib_shutdown_cpp_2
    cxa_finalize.o(.text) refers to cpp_dtor.o(.text) for __rt_ddtor_pointer_addr
    cxa_finalize.o(.text) refers to malloc.o(i.free) for free
    depilogue.o(.text) refers to llshl.o(.text) for __aeabi_llsl
    depilogue.o(.text) refers to llushr.o(.text) for __aeabi_llsr
    dadd.o(.text) refers to llshl.o(.text) for __aeabi_llsl
    dadd.o(.text) refers to llsshr.o(.text) for __aeabi_lasr
    dadd.o(.text) refers to depilogue.o(.text) for _double_epilogue
    ddiv.o(.text) refers to depilogue.o(.text) for _double_round
    dfixul.o(.text) refers to llushr.o(.text) for __aeabi_llsr
    dfixul.o(.text) refers to llshl.o(.text) for __aeabi_llsl
    arm_begincatch_noexceptions.o(.ARM.exidx) refers to arm_begincatch_noexceptions.o(.text) for .text
    arm_newhandler_noexceptions.o(.text) refers to arm_exceptions_terminate.o(.text) for std::terminate()
    arm_newhandler_noexceptions.o(.ARM.exidx) refers to arm_newhandler_noexceptions.o(.text) for .text
    array_new_general.o(i.__ARM_array_new_general) refers to array_new.o(i._Znaj) for operator new[] (unsigned)
    array_new_general.o(i.__ARM_array_new_general) refers to ARM_vec_cleanup_noexceptions.o(.text) for __ARM_vec_cleanup
    array_new_general.o(i.__ARM_array_new_general) refers to arm_exceptions_terminate.o(.text) for std::terminate()
    array_new_general.o(i.__ARM_array_new_general) refers to arm_rethrow_noexceptions.o(.text) for __cxa_rethrow
    array_new_general.o(i.__ARM_array_new_general.clean) refers to arm_exceptions_cleanup.o(.emb_text) for __cxa_end_cleanup
    array_new_general.o(.ARM.exidx) refers to array_new_general.o(i.__ARM_array_new_general) for i.__ARM_array_new_general
    array_new_general.o(.ARM.exidx) refers to unwind_pr0.o(.text) for __aeabi_unwind_cpp_pr0
    array_new_general.o(.ARM.exidx) refers to array_new_general.o(.ARM.extab) for .extab.__ARM_array_new_general
    array_new_general.o(.ARM.exidx) refers to array_new_general.o(i.__ARM_array_new_general.clean) for i.__ARM_array_new_general.clean
    array_new_general.o(.ARM.extab) refers to array_new_general.o(i.__ARM_array_new_general) for i.__ARM_array_new_general
    array_new_general.o(.ARM.extab) refers to array_new_general.o(i.__ARM_array_new_general.clean) for i.__ARM_array_new_general.clean
    bad_alloc_what.o(.ARM.exidx) refers to bad_alloc_what.o(i._ZNKSt9bad_alloc4whatEv) for i._ZNKSt9bad_alloc4whatEv
    exception_dtor.o(i._ZNSt9exceptionD0Ev) refers to delete.o(i._ZdlPv) for operator delete (void*)
    exception_dtor.o(.ARM.exidx) refers to exception_dtor.o(i._ZNSt9exceptionD1Ev) for i._ZNSt9exceptionD1Ev
    exception_dtor.o(.ARM.exidx) refers to exception_dtor.o(i._ZNSt9exceptionD0Ev) for i._ZNSt9exceptionD0Ev
    aeabi_vec_dtor_noexceptions.o(.ARM.exidx) refers to aeabi_vec_dtor_noexceptions.o(.text) for .text
    arm_exceptions_terminate.o(.text) refers to arm_exceptions_globs.o(.text) for __cxa_get_globals
    arm_exceptions_terminate.o(.ARM.exidx) refers to arm_exceptions_terminate.o(.text) for .text
    arm_exceptions_support.o(.text) refers to arm_exceptions_support.o(.constdata) for .constdata
    arm_exceptions_support.o(.ARM.exidx) refers to arm_exceptions_support.o(.text) for .text
    arm_exceptions_globs.o(.text) refers to cpp_memory.o(.text) for __rt_eh_globals_addr
    arm_exceptions_globs.o(.text) refers to malloc.o(i.malloc) for malloc
    arm_exceptions_globs.o(.text) refers to arm_exceptions_mem.o(.text) for __ARM_exceptions_buffer_init
    arm_exceptions_globs.o(.ARM.exidx) refers to arm_exceptions_globs.o(.text) for .text
    unwind_prcommon.o(.text) refers to unwinder.o(.text) for _Unwind_VRS_Get
    unwind_prcommon.o(.text) refers (Weak) to arm_exceptions_cleanup.o(.text) for __cxa_begin_cleanup
    unwind_prcommon.o(.text) refers to unwind_activity.o(.emb_text) for _Unwind_Activity
    unwind_prcommon.o(.text) refers (Weak) to arm_callunex_noexceptions.o(.text) for __cxa_call_unexpected
    unwind_prcommon.o(.ARM.exidx) refers to unwind_prcommon.o(.text) for .text
    init.o(.text) refers to entry5.o(.ARM.Collect$$$$00000004) for __main_after_scatterload
    cpp_final.o(.text) refers (Special) to entry10b.o(.ARM.Collect$$$$0000000E) for __rt_final_cpp$nonempty
    cpp_memory.o(.text) refers to cpp_memory.o(.data) for .data
    ARM_vec_cleanup_noexceptions.o(.ARM.exidx) refers to ARM_vec_cleanup_noexceptions.o(.text) for .text
    arm_endcatch_noexceptions.o(.ARM.exidx) refers to arm_endcatch_noexceptions.o(.text) for .text
    arm_rethrow_noexceptions.o(.ARM.exidx) refers to arm_rethrow_noexceptions.o(.text) for .text
    exception_what.o(.ARM.exidx) refers to exception_what.o(i._ZNKSt9exception4whatEv) for i._ZNKSt9exception4whatEv
    arm_exceptions_mem.o(.text) refers to malloc.o(i.malloc) for malloc
    arm_exceptions_mem.o(.ARM.exidx) refers to arm_exceptions_mem.o(.text) for .text
    arm_exceptions_cleanup.o(.emb_text) refers to arm_exceptions_cleanup.o(.text) for __ARM_cxa_end_cleanup
    arm_exceptions_cleanup.o(.emb_text) refers (Weak) to unwinder.o(.emb_text) for _Unwind_Resume
    arm_exceptions_cleanup.o(.ARM.exidx) refers to arm_exceptions_cleanup.o(.emb_text) for __cxa_end_cleanup
    arm_exceptions_cleanup.o(.text) refers to arm_exceptions_globs.o(.text) for __cxa_get_globals
    arm_exceptions_cleanup.o(.text) refers to arm_exceptions_support.o(.text) for __ARM::is_foreign_exception(_Unwind_Control_Block*)
    arm_exceptions_cleanup.o(.text) refers to arm_exceptions_foreign.o(.text) for __ARM::get_foreign_intermediary(__cxa_exception*, _Unwind_Control_Block*)
    arm_exceptions_cleanup.o(.text) refers to arm_exceptions_terminate.o(.text) for std::terminate()
    arm_exceptions_cleanup.o(.text) refers to arm_exceptions_free.o(.text) for __cxa_free_exception
    arm_exceptions_cleanup.o(.ARM.exidx) refers to arm_exceptions_cleanup.o(.text) for .text
    unwinder.o(.emb_text) refers to unwinder.o(.text) for __ARM_Unwind_RaiseException
    unwinder.o(.text) refers to bsearch.o(.text) for bsearch
    unwinder.o(.text) refers to unwind_activity.o(.emb_text) for _Unwind_Activity
    unwinder.o(.text) refers to unwinder.o(.emb_text) for __ARM_Unwind_VRS_corerestore
    unwinder.o(.text) refers to malloc.o(i.malloc) for malloc
    unwinder.o(.text) refers to memcpya.o(.text) for __aeabi_memcpy4
    unwinder.o(.text) refers to malloc.o(i.free) for free
    unwinder.o(.text) refers (Weak) to unwind_pr0.o(.text) for __aeabi_unwind_cpp_pr0
    unwinder.o(.ARM.exidx) refers to unwinder.o(.text) for .text
    arm_exceptions_free.o(.text) refers to arm_exceptions_globs.o(.text) for __cxa_get_globals
    arm_exceptions_free.o(.text) refers to arm_exceptions_mem.o(.text) for __ARM_exceptions_buffer_free
    arm_exceptions_free.o(.text) refers to malloc.o(i.free) for free
    arm_exceptions_free.o(.ARM.exidx) refers to arm_exceptions_free.o(.text) for .text
    arm_exceptions_foreign.o(.text) refers to arm_exceptions_support.o(.text) for __ARM::same_exceptions_class(const void*, const void*)
    arm_exceptions_foreign.o(.text) refers to arm_exceptions_alloc.o(.text) for __cxa_allocate_exception
    arm_exceptions_foreign.o(.ARM.exidx) refers to arm_exceptions_foreign.o(.text) for .text
    arm_exceptions_alloc.o(.text) refers to arm_exceptions_globs.o(.text) for __cxa_get_globals
    arm_exceptions_alloc.o(.text) refers to malloc.o(i.malloc) for malloc
    arm_exceptions_alloc.o(.text) refers to arm_exceptions_mem.o(.text) for __ARM_exceptions_buffer_allocate
    arm_exceptions_alloc.o(.text) refers to arm_exceptions_callterm.o(.text) for __ARM::call_terminate_handler(_Unwind_Control_Block*)
    arm_exceptions_alloc.o(.ARM.exidx) refers to arm_exceptions_alloc.o(.text) for .text
    appfactory.o(i._ZThn16_N11application8HeatFlowD1Ev) refers to appfactory.o(i._ZN11application8HeatFlowD1Ev) for application::HeatFlow::~HeatFlow()
    appfactory.o(.ARM.exidx) refers to appfactory.o(i._ZThn16_N11application8HeatFlowD1Ev) for i._ZThn16_N11application8HeatFlowD1Ev
    appfactory.o(i._ZTv0_n12_N11application8HeatFlowD1Ev) refers to appfactory.o(i._ZN11application8HeatFlowD1Ev) for application::HeatFlow::~HeatFlow()
    appfactory.o(.ARM.exidx) refers to appfactory.o(i._ZTv0_n12_N11application8HeatFlowD1Ev) for i._ZTv0_n12_N11application8HeatFlowD1Ev
    appfactory.o(i._ZN11application8HeatFlowD1Ev) refers to xfreactive.o(i._ZN10XFReactiveD1Ev) for XFReactive::~XFReactive()
    appfactory.o(.ARM.exidx) refers to appfactory.o(i._ZN11application8HeatFlowD1Ev) for i._ZN11application8HeatFlowD1Ev
    heatflow.o(.constdata__ZTVN11application8HeatFlowE) refers to heatflow.o(.constdata__ZTIN11application8HeatFlowE) for typeinfo for application::HeatFlow
    heatflow.o(.constdata__ZTVN11application8HeatFlowE) refers to appfactory.o(i._ZN11application8HeatFlowD1Ev) for application::HeatFlow::~HeatFlow()
    heatflow.o(.constdata__ZTVN11application8HeatFlowE) refers to heatflow.o(i._ZN11application8HeatFlowD0Ev) for application::HeatFlow::~HeatFlow__deallocating()
    heatflow.o(.constdata__ZTVN11application8HeatFlowE) refers to xfreactive.o(i._ZN10XFReactive14startBehaviourEv) for XFReactive::startBehaviour()
    heatflow.o(.constdata__ZTVN11application8HeatFlowE) refers to xfreactive.o(i._ZN10XFReactive9pushEventEP8IXFEvent) for XFReactive::pushEvent(IXFEvent*)
    heatflow.o(.constdata__ZTVN11application8HeatFlowE) refers to xfreactive.o(i._ZN10XFReactive7processEP8IXFEvent) for XFReactive::process(IXFEvent*)
    heatflow.o(.constdata__ZTVN11application8HeatFlowE) refers to xfreactive.o(i._ZN10XFReactive17pushCriticalEventEP8IXFEvent) for XFReactive::pushCriticalEvent(IXFEvent*)
    heatflow.o(.constdata__ZTVN11application8HeatFlowE) refers to heatflow.o(i._ZN11application8HeatFlow12processEventEv) for application::HeatFlow::processEvent()
    heatflow.o(.constdata__ZTVN11application8HeatFlowE) refers to xfreactive.o(i._ZN10XFReactive9getThreadEv) for XFReactive::getThread()
    heatflow.o(.constdata__ZTVN11application8HeatFlowE) refers to heatflow.o(i._ZN11application8HeatFlow18onAdvertiseStoppedEPN3ble20PeripheralControllerE) for application::HeatFlow::onAdvertiseStopped(ble::PeripheralController*)
    heatflow.o(.constdata__ZTVN11application8HeatFlowE) refers to heatflow.o(i._ZN11application8HeatFlow23onAdvertiseStateChangedEPN3ble20PeripheralControllerE13ble_adv_evt_t) for application::HeatFlow::onAdvertiseStateChanged(ble::PeripheralController*, ble_adv_evt_t)
    heatflow.o(.constdata__ZTVN11application8HeatFlowE) refers to heatflow.o(i._ZN11application8HeatFlow16onAdvertiseErrorEPN3ble20PeripheralControllerEj) for application::HeatFlow::onAdvertiseError(ble::PeripheralController*, unsigned)
    heatflow.o(.constdata__ZTVN11application8HeatFlowE) refers to heatflow.o(i._ZN11application8HeatFlow21onPeripheralConnectedEPN3ble20PeripheralControllerE) for application::HeatFlow::onPeripheralConnected(ble::PeripheralController*)
    heatflow.o(.constdata__ZTVN11application8HeatFlowE) refers to heatflow.o(i._ZN11application8HeatFlow24onPeripheralDisconnectedEPN3ble20PeripheralControllerE) for application::HeatFlow::onPeripheralDisconnected(ble::PeripheralController*)
    heatflow.o(.constdata__ZTVN11application8HeatFlowE) refers to heatflow.o(i._ZN11application8HeatFlow24onPeripheralStateChangedEPN3ble20PeripheralControllerEh) for application::HeatFlow::onPeripheralStateChanged(ble::PeripheralController*, unsigned char)
    heatflow.o(.constdata__ZTVN11application8HeatFlowE) refers to heatflow.o(i._ZN11application8HeatFlow16onPasskeyDisplayEPN3ble20PeripheralControllerEPc) for application::HeatFlow::onPasskeyDisplay(ble::PeripheralController*, char*)
    heatflow.o(.constdata__ZTVN11application8HeatFlowE) refers to heatflow.o(i._ZN11application8HeatFlow19onAuthStatusUpdatedEPN3ble20PeripheralControllerE25ble_gap_evt_auth_status_t) for application::HeatFlow::onAuthStatusUpdated(ble::PeripheralController*, ble_gap_evt_auth_status_t)
    heatflow.o(.constdata__ZTVN11application8HeatFlowE) refers to heatflow.o(i._ZN11application8HeatFlow21onConfigurationChangeEPN3ble11MhfsServiceEht) for application::HeatFlow::onConfigurationChange(ble::MhfsService*, unsigned char, unsigned short)
    heatflow.o(.constdata__ZTVN11application8HeatFlowE) refers to heatflow.o(i._ZN11application8HeatFlow15onCommandChangeEPN3ble11MhfsServiceE14eMhfsCommandId) for application::HeatFlow::onCommandChange(ble::MhfsService*, eMhfsCommandId)
    heatflow.o(.constdata__ZTVN11application8HeatFlowE) refers to heatflow.o(i._ZN11application8HeatFlow21onBatteryStateChangedEPN7battery14BatteryManagerENS1_12BatteryState13eBatteryStateE) for application::HeatFlow::onBatteryStateChanged(battery::BatteryManager*, battery::BatteryState::eBatteryState)
    heatflow.o(.constdata__ZTVN11application8HeatFlowE) refers to heatflow.o(i._ZN11application8HeatFlow21onBatteryLevelChangedEPN7battery14BatteryManagerEh) for application::HeatFlow::onBatteryLevelChanged(battery::BatteryManager*, unsigned char)
    heatflow.o(.constdata__ZTVN11application8HeatFlowE) refers to heatflow.o(i._ZThn12_N11application8HeatFlow18onAdvertiseStoppedEPN3ble20PeripheralControllerE) for thunk{-12} to application::HeatFlow::onAdvertiseStopped(ble::PeripheralController*)
    heatflow.o(.constdata__ZTVN11application8HeatFlowE) refers to heatflow.o(i._ZThn12_N11application8HeatFlow23onAdvertiseStateChangedEPN3ble20PeripheralControllerE13ble_adv_evt_t) for thunk{-12} to application::HeatFlow::onAdvertiseStateChanged(ble::PeripheralController*, ble_adv_evt_t)
    heatflow.o(.constdata__ZTVN11application8HeatFlowE) refers to heatflow.o(i._ZThn12_N11application8HeatFlow16onAdvertiseErrorEPN3ble20PeripheralControllerEj) for thunk{-12} to application::HeatFlow::onAdvertiseError(ble::PeripheralController*, unsigned)
    heatflow.o(.constdata__ZTVN11application8HeatFlowE) refers to heatflow.o(i._ZThn12_N11application8HeatFlow21onPeripheralConnectedEPN3ble20PeripheralControllerE) for thunk{-12} to application::HeatFlow::onPeripheralConnected(ble::PeripheralController*)
    heatflow.o(.constdata__ZTVN11application8HeatFlowE) refers to heatflow.o(i._ZThn12_N11application8HeatFlow24onPeripheralDisconnectedEPN3ble20PeripheralControllerE) for thunk{-12} to application::HeatFlow::onPeripheralDisconnected(ble::PeripheralController*)
    heatflow.o(.constdata__ZTVN11application8HeatFlowE) refers to heatflow.o(i._ZThn12_N11application8HeatFlow24onPeripheralStateChangedEPN3ble20PeripheralControllerEh) for thunk{-12} to application::HeatFlow::onPeripheralStateChanged(ble::PeripheralController*, unsigned char)
    heatflow.o(.constdata__ZTVN11application8HeatFlowE) refers to heatflow.o(i._ZThn12_N11application8HeatFlow16onPasskeyDisplayEPN3ble20PeripheralControllerEPc) for thunk{-12} to application::HeatFlow::onPasskeyDisplay(ble::PeripheralController*, char*)
    heatflow.o(.constdata__ZTVN11application8HeatFlowE) refers to heatflow.o(i._ZThn12_N11application8HeatFlow19onAuthStatusUpdatedEPN3ble20PeripheralControllerE25ble_gap_evt_auth_status_t) for thunk{-12} to application::HeatFlow::onAuthStatusUpdated(ble::PeripheralController*, ble_gap_evt_auth_status_t)
    heatflow.o(.constdata__ZTVN11application8HeatFlowE) refers to appfactory.o(i._ZThn16_N11application8HeatFlowD1Ev) for thunk{-16} to application::HeatFlow::~HeatFlow()
    heatflow.o(.constdata__ZTVN11application8HeatFlowE) refers to heatflow.o(i._ZThn16_N11application8HeatFlowD0Ev) for thunk{-16} to application::HeatFlow::~HeatFlow__deallocating()
    heatflow.o(.constdata__ZTVN11application8HeatFlowE) refers to heatflow.o(i._ZThn16_N11application8HeatFlow21onConfigurationChangeEPN3ble11MhfsServiceEht) for thunk{-16} to application::HeatFlow::onConfigurationChange(ble::MhfsService*, unsigned char, unsigned short)
    heatflow.o(.constdata__ZTVN11application8HeatFlowE) refers to heatflow.o(i._ZThn16_N11application8HeatFlow15onCommandChangeEPN3ble11MhfsServiceE14eMhfsCommandId) for thunk{-16} to application::HeatFlow::onCommandChange(ble::MhfsService*, eMhfsCommandId)
    heatflow.o(.constdata__ZTVN11application8HeatFlowE) refers to heatflow.o(i._ZThn20_N11application8HeatFlow21onBatteryStateChangedEPN7battery14BatteryManagerENS1_12BatteryState13eBatteryStateE) for thunk{-20} to application::HeatFlow::onBatteryStateChanged(battery::BatteryManager*, battery::BatteryState::eBatteryState)
    heatflow.o(.constdata__ZTVN11application8HeatFlowE) refers to heatflow.o(i._ZThn20_N11application8HeatFlow21onBatteryLevelChangedEPN7battery14BatteryManagerEh) for thunk{-20} to application::HeatFlow::onBatteryLevelChanged(battery::BatteryManager*, unsigned char)
    heatflow.o(.constdata__ZTVN11application8HeatFlowE) refers to heatflow.o(.constdata__ZTVN11application8HeatFlowE) for vtable for application::HeatFlow
    heatflow.o(.constdata__ZTVN11application8HeatFlowE) refers to heatflow.o(.constdata) for construction vtable for base class {ble::MhfsObserver} of application::HeatFlow
    heatflow.o(.ARM.exidx) refers to heatflow.o(i._ZN3ble12MhfsObserverD1Ev) for i._ZN3ble12MhfsObserverD1Ev
    heatflow.o(i._ZTv0_n12_N3ble12MhfsObserverD0Ev) refers to heatflow.o(i._ZN3ble12MhfsObserverD0Ev) for ble::MhfsObserver::~MhfsObserver__deallocating()
    heatflow.o(.ARM.exidx) refers to heatflow.o(i._ZTv0_n12_N3ble12MhfsObserverD0Ev) for i._ZTv0_n12_N3ble12MhfsObserverD0Ev
    heatflow.o(i._ZTv0_n12_N3ble12MhfsObserverD1Ev) refers to heatflow.o(i._ZN3ble12MhfsObserverD1Ev) for ble::MhfsObserver::~MhfsObserver()
    heatflow.o(.ARM.exidx) refers to heatflow.o(i._ZTv0_n12_N3ble12MhfsObserverD1Ev) for i._ZTv0_n12_N3ble12MhfsObserverD1Ev
    heatflow.o(i._ZN11application8HeatFlowD0Ev) refers to appfactory.o(i._ZN11application8HeatFlowD1Ev) for application::HeatFlow::~HeatFlow()
    heatflow.o(i._ZN11application8HeatFlowD0Ev) refers to delete.o(i._ZdlPv) for operator delete (void*)
    heatflow.o(.ARM.exidx) refers to heatflow.o(i._ZN11application8HeatFlowD0Ev) for i._ZN11application8HeatFlowD0Ev
    heatflow.o(i._ZTv0_n12_N11application8HeatFlowD0Ev) refers to heatflow.o(i._ZN11application8HeatFlowD0Ev) for application::HeatFlow::~HeatFlow__deallocating()
    heatflow.o(.ARM.exidx) refers to heatflow.o(i._ZTv0_n12_N11application8HeatFlowD0Ev) for i._ZTv0_n12_N11application8HeatFlowD0Ev
    heatflow.o(i._ZN3ble12MhfsObserverD0Ev) refers to heatflow.o(i._ZN3ble12MhfsObserverD1Ev) for ble::MhfsObserver::~MhfsObserver()
    heatflow.o(i._ZN3ble12MhfsObserverD0Ev) refers to delete.o(i._ZdlPv) for operator delete (void*)
    heatflow.o(.ARM.exidx) refers to heatflow.o(i._ZN3ble12MhfsObserverD0Ev) for i._ZN3ble12MhfsObserverD0Ev
    heatflow.o(i._ZThn16_N11application8HeatFlowD0Ev) refers to heatflow.o(i._ZN11application8HeatFlowD0Ev) for application::HeatFlow::~HeatFlow__deallocating()
    heatflow.o(.ARM.exidx) refers to heatflow.o(i._ZThn16_N11application8HeatFlowD0Ev) for i._ZThn16_N11application8HeatFlowD0Ev
    heatflow.o(.constdata__ZTVN3ble25BlePrivateServiceObserverE) refers to heatflow.o(.constdata__ZTIN3ble25BlePrivateServiceObserverE) for typeinfo for ble::BlePrivateServiceObserver
    heatflow.o(.constdata__ZTVN3ble25BlePrivateServiceObserverE) refers to heatflow.o(i._ZN3ble25BlePrivateServiceObserverD1Ev) for ble::BlePrivateServiceObserver::~BlePrivateServiceObserver()
    heatflow.o(.constdata__ZTVN3ble25BlePrivateServiceObserverE) refers to heatflow.o(i._ZN3ble25BlePrivateServiceObserverD0Ev) for ble::BlePrivateServiceObserver::~BlePrivateServiceObserver__deallocating()
    heatflow.o(.constdata__ZTIN3ble12MhfsObserverE) refers to lib_rtti_impl.o(.constdata__ZTVN10__cxxabiv121__vmi_class_type_infoE) for vtable for __cxxabiv1::__vmi_class_type_info
    heatflow.o(.constdata__ZTIN3ble12MhfsObserverE) refers to heatflow.o(.constdata__ZTSN3ble12MhfsObserverE) for typeinfo name for ble::MhfsObserver
    heatflow.o(.constdata__ZTIN3ble12MhfsObserverE) refers to heatflow.o(.constdata__ZTIN3ble25BlePrivateServiceObserverE) for typeinfo for ble::BlePrivateServiceObserver
    heatflow.o(.constdata__ZTIN11application8HeatFlowE) refers to lib_rtti_impl.o(.constdata__ZTVN10__cxxabiv121__vmi_class_type_infoE) for vtable for __cxxabiv1::__vmi_class_type_info
    heatflow.o(.constdata__ZTIN11application8HeatFlowE) refers to heatflow.o(.constdata__ZTSN11application8HeatFlowE) for typeinfo name for application::HeatFlow
    heatflow.o(.constdata__ZTIN11application8HeatFlowE) refers to xfreactive.o(.constdata__ZTI10XFReactive) for typeinfo for XFReactive
    heatflow.o(.constdata__ZTIN11application8HeatFlowE) refers to heatflow.o(.constdata__ZTIN3ble18PeripheralObserverE) for typeinfo for ble::PeripheralObserver
    heatflow.o(.constdata__ZTIN11application8HeatFlowE) refers to heatflow.o(.constdata__ZTIN3ble12MhfsObserverE) for typeinfo for ble::MhfsObserver
    heatflow.o(.constdata__ZTIN11application8HeatFlowE) refers to heatflow.o(.constdata__ZTIN7battery15BatteryObserverE) for typeinfo for battery::BatteryObserver
    heatflow.o(.constdata__ZTIN3ble18PeripheralObserverE) refers to lib_rtti_impl.o(.constdata__ZTVN10__cxxabiv117__class_type_infoE) for vtable for __cxxabiv1::__class_type_info
    heatflow.o(.constdata__ZTIN3ble18PeripheralObserverE) refers to heatflow.o(.constdata__ZTSN3ble18PeripheralObserverE) for typeinfo name for ble::PeripheralObserver
    heatflow.o(.constdata__ZTIN3ble25BlePrivateServiceObserverE) refers to lib_rtti_impl.o(.constdata__ZTVN10__cxxabiv117__class_type_infoE) for vtable for __cxxabiv1::__class_type_info
    heatflow.o(.constdata__ZTIN3ble25BlePrivateServiceObserverE) refers to heatflow.o(.constdata__ZTSN3ble25BlePrivateServiceObserverE) for typeinfo name for ble::BlePrivateServiceObserver
    heatflow.o(.constdata__ZTIN7battery15BatteryObserverE) refers to lib_rtti_impl.o(.constdata__ZTVN10__cxxabiv117__class_type_infoE) for vtable for __cxxabiv1::__class_type_info
    heatflow.o(.constdata__ZTIN7battery15BatteryObserverE) refers to heatflow.o(.constdata__ZTSN7battery15BatteryObserverE) for typeinfo name for battery::BatteryObserver
    heatflow.o(.ARM.exidx) refers to heatflow.o(i._ZN3ble25BlePrivateServiceObserverD1Ev) for i._ZN3ble25BlePrivateServiceObserverD1Ev
    heatflow.o(i._ZN3ble25BlePrivateServiceObserverD0Ev) refers to delete.o(i._ZdlPv) for operator delete (void*)
    heatflow.o(.ARM.exidx) refers to heatflow.o(i._ZN3ble25BlePrivateServiceObserverD0Ev) for i._ZN3ble25BlePrivateServiceObserverD0Ev
    uptime.o(.constdata__ZTV6UpTime) refers to uptime.o(.constdata__ZTI6UpTime) for typeinfo for UpTime
    uptime.o(.constdata__ZTV6UpTime) refers to uptime.o(i._ZN6UpTimeD1Ev) for UpTime::~UpTime()
    uptime.o(.constdata__ZTV6UpTime) refers to uptime.o(i._ZN6UpTimeD0Ev) for UpTime::~UpTime__deallocating()
    uptime.o(.constdata__ZTV6UpTime) refers to xfreactive.o(i._ZN10XFReactive14startBehaviourEv) for XFReactive::startBehaviour()
    uptime.o(.constdata__ZTV6UpTime) refers to xfreactive.o(i._ZN10XFReactive9pushEventEP8IXFEvent) for XFReactive::pushEvent(IXFEvent*)
    uptime.o(.constdata__ZTV6UpTime) refers to xfreactive.o(i._ZN10XFReactive7processEP8IXFEvent) for XFReactive::process(IXFEvent*)
    uptime.o(.constdata__ZTV6UpTime) refers to xfreactive.o(i._ZN10XFReactive17pushCriticalEventEP8IXFEvent) for XFReactive::pushCriticalEvent(IXFEvent*)
    uptime.o(.constdata__ZTV6UpTime) refers to uptime.o(i._ZN6UpTime12processEventEv) for UpTime::processEvent()
    uptime.o(.constdata__ZTV6UpTime) refers to xfreactive.o(i._ZN10XFReactive9getThreadEv) for XFReactive::getThread()
    uptime.o(.constdata__ZTI6UpTime) refers to lib_rtti_impl.o(.constdata__ZTVN10__cxxabiv120__si_class_type_infoE) for vtable for __cxxabiv1::__si_class_type_info
    uptime.o(.constdata__ZTI6UpTime) refers to uptime.o(.constdata__ZTS6UpTime) for typeinfo name for UpTime
    uptime.o(.constdata__ZTI6UpTime) refers to xfreactive.o(.constdata__ZTI10XFReactive) for typeinfo for XFReactive
    factory.o(.constdata__ZTV7Factory) refers to factory.o(.constdata__ZTI7Factory) for typeinfo for Factory
    factory.o(.constdata__ZTV7Factory) refers to factory.o(i._ZN7Factory11onDataSavedEPN5flash15FlashControllerE) for Factory::onDataSaved(flash::FlashController*)
    factory.o(.constdata__ZTV7Factory) refers to factory.o(i._ZN7Factory14onDataRestoredEPN5flash15FlashControllerE) for Factory::onDataRestored(flash::FlashController*)
    factory.o(.constdata__ZTV7Factory) refers to factory.o(i._ZN7Factory13onDataClearedEPN5flash15FlashControllerE) for Factory::onDataCleared(flash::FlashController*)
    factory.o(.constdata__ZTV7Factory) refers to factory.o(i._ZN7Factory18onFlashInitializedEPN5flash15FlashControllerE) for Factory::onFlashInitialized(flash::FlashController*)
    factory.o(.constdata__ZTV7Factory) refers to factory.o(i._ZN7Factory12onFlashErrorEPN5flash15FlashControllerE) for Factory::onFlashError(flash::FlashController*)
    factory.o(.ARM.exidx) refers to factory.o(i._ZN7Factory11onDataSavedEPN5flash15FlashControllerE) for i._ZN7Factory11onDataSavedEPN5flash15FlashControllerE
    factory.o(.ARM.exidx) refers to factory.o(i._ZN7Factory14onDataRestoredEPN5flash15FlashControllerE) for i._ZN7Factory14onDataRestoredEPN5flash15FlashControllerE
    factory.o(.ARM.exidx) refers to factory.o(i._ZN7Factory13onDataClearedEPN5flash15FlashControllerE) for i._ZN7Factory13onDataClearedEPN5flash15FlashControllerE
    factory.o(.ARM.exidx) refers to factory.o(i._ZN7Factory12onFlashErrorEPN5flash15FlashControllerE) for i._ZN7Factory12onFlashErrorEPN5flash15FlashControllerE
    factory.o(.constdata__ZTI7Factory) refers to lib_rtti_impl.o(.constdata__ZTVN10__cxxabiv120__si_class_type_infoE) for vtable for __cxxabiv1::__si_class_type_info
    factory.o(.constdata__ZTI7Factory) refers to factory.o(.constdata__ZTS7Factory) for typeinfo name for Factory
    factory.o(.constdata__ZTI7Factory) refers to factory.o(.constdata__ZTIN5flash13FlashObserverE) for typeinfo for flash::FlashObserver
    factory.o(.constdata__ZTIN5flash13FlashObserverE) refers to lib_rtti_impl.o(.constdata__ZTVN10__cxxabiv117__class_type_infoE) for vtable for __cxxabiv1::__class_type_info
    factory.o(.constdata__ZTIN5flash13FlashObserverE) refers to factory.o(.constdata__ZTSN5flash13FlashObserverE) for typeinfo name for flash::FlashObserver
    pwmhal.o(.constdata__ZTVN3hal6PwmHalE) refers to pwmhal.o(.constdata__ZTIN3hal6PwmHalE) for typeinfo for hal::PwmHal
    pwmhal.o(.constdata__ZTVN3hal6PwmHalE) refers to pwmhal.o(i._ZN3hal6PwmHalD1Ev) for hal::PwmHal::~PwmHal()
    pwmhal.o(.constdata__ZTVN3hal6PwmHalE) refers to pwmhal.o(i._ZN3hal6PwmHalD0Ev) for hal::PwmHal::~PwmHal__deallocating()
    pwmhal.o(.ARM.exidx) refers to pwmhal.o(i._ZN3hal6PwmHal14_baseFrequencyEv) for i._ZN3hal6PwmHal14_baseFrequencyEv
    pwmhal.o(.constdata__ZTIN3hal6PwmHalE) refers to lib_rtti_impl.o(.constdata__ZTVN10__cxxabiv117__class_type_infoE) for vtable for __cxxabiv1::__class_type_info
    pwmhal.o(.constdata__ZTIN3hal6PwmHalE) refers to pwmhal.o(.constdata__ZTSN3hal6PwmHalE) for typeinfo name for hal::PwmHal
    batterymanager.o(.constdata__ZTVN7battery14BatteryManagerE) refers to batterymanager.o(.constdata__ZTIN7battery14BatteryManagerE) for typeinfo for battery::BatteryManager
    batterymanager.o(.constdata__ZTVN7battery14BatteryManagerE) refers to batterymanager.o(i._ZN7battery14BatteryManagerD1Ev) for battery::BatteryManager::~BatteryManager()
    batterymanager.o(.constdata__ZTVN7battery14BatteryManagerE) refers to batterymanager.o(i._ZN7battery14BatteryManagerD0Ev) for battery::BatteryManager::~BatteryManager__deallocating()
    batterymanager.o(.constdata__ZTVN7battery14BatteryManagerE) refers to batterymanager.o(i._ZN7battery14BatteryManager4saveEPt) for battery::BatteryManager::save(unsigned short*)
    batterymanager.o(.constdata__ZTVN7battery14BatteryManagerE) refers to batterymanager.o(i._ZN7battery14BatteryManager7restoreEPj) for battery::BatteryManager::restore(unsigned*)
    batterymanager.o(.constdata__ZTVN7battery14BatteryManagerE) refers to batterymanager.o(i._ZN7battery14BatteryManager13onMeasureDoneEPN3hal8SaadcHalEPst) for battery::BatteryManager::onMeasureDone(hal::SaadcHal*, short*, unsigned short)
    batterymanager.o(.constdata__ZTVN7battery14BatteryManagerE) refers to batterymanager.o(i._ZThn84_N7battery14BatteryManager13onMeasureDoneEPN3hal8SaadcHalEPst) for thunk{-84} to battery::BatteryManager::onMeasureDone(hal::SaadcHal*, short*, unsigned short)
    batterymanager.o(.ARM.exidx) refers to batterymanager.o(t._ZN8ISubjectIN3hal13SaadcObserverELi12EE11addObserverEPS1_) for t._ZN8ISubjectIN3hal13SaadcObserverELi12EE11addObserverEPS1_
    batterymanager.o(.constdata__ZTIN7battery14BatteryManagerE) refers to lib_rtti_impl.o(.constdata__ZTVN10__cxxabiv121__vmi_class_type_infoE) for vtable for __cxxabiv1::__vmi_class_type_info
    batterymanager.o(.constdata__ZTIN7battery14BatteryManagerE) refers to batterymanager.o(.constdata__ZTSN7battery14BatteryManagerE) for typeinfo name for battery::BatteryManager
    batterymanager.o(.constdata__ZTIN7battery14BatteryManagerE) refers to batterymanager.o(.constdata__ZTI8ISubjectIN7battery15BatteryObserverELi12EE) for typeinfo for ISubject<battery::BatteryObserver, (int)12>
    batterymanager.o(.constdata__ZTIN7battery14BatteryManagerE) refers to batterymanager.o(.constdata__ZTIN5flash9PersisterE) for typeinfo for flash::Persister
    batterymanager.o(.constdata__ZTIN7battery14BatteryManagerE) refers to batterymanager.o(.constdata__ZTIN3hal13SaadcObserverE) for typeinfo for hal::SaadcObserver
    batterymanager.o(.constdata__ZTIN5flash9PersisterE) refers to lib_rtti_impl.o(.constdata__ZTVN10__cxxabiv117__class_type_infoE) for vtable for __cxxabiv1::__class_type_info
    batterymanager.o(.constdata__ZTIN5flash9PersisterE) refers to batterymanager.o(.constdata__ZTSN5flash9PersisterE) for typeinfo name for flash::Persister
    batterymanager.o(.constdata__ZTIN3hal13SaadcObserverE) refers to lib_rtti_impl.o(.constdata__ZTVN10__cxxabiv117__class_type_infoE) for vtable for __cxxabiv1::__class_type_info
    batterymanager.o(.constdata__ZTIN3hal13SaadcObserverE) refers to batterymanager.o(.constdata__ZTSN3hal13SaadcObserverE) for typeinfo name for hal::SaadcObserver
    batterymanager.o(.constdata__ZTI8ISubjectIN7battery15BatteryObserverELi12EE) refers to lib_rtti_impl.o(.constdata__ZTVN10__cxxabiv117__class_type_infoE) for vtable for __cxxabiv1::__class_type_info
    batterymanager.o(.constdata__ZTI8ISubjectIN7battery15BatteryObserverELi12EE) refers to batterymanager.o(.constdata__ZTS8ISubjectIN7battery15BatteryObserverELi12EE) for typeinfo name for ISubject<battery::BatteryObserver, (int)12>
    advertiser.o(.constdata__ZTVN3ble10AdvertiserE) refers to advertiser.o(.constdata__ZTIN3ble10AdvertiserE) for typeinfo for ble::Advertiser
    advertiser.o(.constdata__ZTVN3ble10AdvertiserE) refers to advertiser.o(i._ZN3ble10AdvertiserD1Ev) for ble::Advertiser::~Advertiser()
    advertiser.o(.constdata__ZTVN3ble10AdvertiserE) refers to advertiser.o(i._ZN3ble10AdvertiserD0Ev) for ble::Advertiser::~Advertiser__deallocating()
    advertiser.o(.constdata__ZTIN3ble10AdvertiserE) refers to lib_rtti_impl.o(.constdata__ZTVN10__cxxabiv117__class_type_infoE) for vtable for __cxxabiv1::__class_type_info
    advertiser.o(.constdata__ZTIN3ble10AdvertiserE) refers to advertiser.o(.constdata__ZTSN3ble10AdvertiserE) for typeinfo name for ble::Advertiser
    blecontroller.o(.constdata__ZTVN3ble13BleControllerE) refers to blecontroller.o(.constdata__ZTIN3ble13BleControllerE) for typeinfo for ble::BleController
    blecontroller.o(.constdata__ZTVN3ble13BleControllerE) refers to blecontroller.o(i._ZN3ble13BleControllerD1Ev) for ble::BleController::~BleController()
    blecontroller.o(.constdata__ZTVN3ble13BleControllerE) refers to blecontroller.o(i._ZN3ble13BleControllerD0Ev) for ble::BleController::~BleController__deallocating()
    blecontroller.o(.constdata__ZTIN3ble13BleControllerE) refers to lib_rtti_impl.o(.constdata__ZTVN10__cxxabiv121__vmi_class_type_infoE) for vtable for __cxxabiv1::__vmi_class_type_info
    blecontroller.o(.constdata__ZTIN3ble13BleControllerE) refers to blecontroller.o(.constdata__ZTSN3ble13BleControllerE) for typeinfo name for ble::BleController
    blecontroller.o(.constdata__ZTIN3ble13BleControllerE) refers to blecontroller.o(.constdata__ZTI8ISubjectIN3ble11BleObserverELi12EE) for typeinfo for ISubject<ble::BleObserver, (int)12>
    blecontroller.o(.constdata__ZTI8ISubjectIN3ble11BleObserverELi12EE) refers to lib_rtti_impl.o(.constdata__ZTVN10__cxxabiv117__class_type_infoE) for vtable for __cxxabiv1::__class_type_info
    blecontroller.o(.constdata__ZTI8ISubjectIN3ble11BleObserverELi12EE) refers to blecontroller.o(.constdata__ZTS8ISubjectIN3ble11BleObserverELi12EE) for typeinfo name for ISubject<ble::BleObserver, (int)12>
    gap.o(.constdata__ZTVN3ble3GapE) refers to gap.o(.constdata__ZTIN3ble3GapE) for typeinfo for ble::Gap
    gap.o(.constdata__ZTVN3ble3GapE) refers to gap.o(i._ZN3ble3Gap10onBleEventEPK9ble_evt_tPv) for ble::Gap::onBleEvent(const ble_evt_t*, void*)
    gap.o(.constdata__ZTVN3ble3GapE) refers to gap.o(i._ZN3ble3Gap13onSystemEventEj) for ble::Gap::onSystemEvent(unsigned)
    gap.o(.constdata__ZTVN3ble3GapE) refers to gap.o(i._ZN3ble3GapD1Ev) for ble::Gap::~Gap()
    gap.o(.constdata__ZTVN3ble3GapE) refers to gap.o(i._ZN3ble3GapD0Ev) for ble::Gap::~Gap__deallocating()
    gap.o(.constdata__ZTIN3ble3GapE) refers to lib_rtti_impl.o(.constdata__ZTVN10__cxxabiv121__vmi_class_type_infoE) for vtable for __cxxabiv1::__vmi_class_type_info
    gap.o(.constdata__ZTIN3ble3GapE) refers to gap.o(.constdata__ZTSN3ble3GapE) for typeinfo name for ble::Gap
    gap.o(.constdata__ZTIN3ble3GapE) refers to gap.o(.constdata__ZTIN3ble11BleObserverE) for typeinfo for ble::BleObserver
    gap.o(.constdata__ZTIN3ble3GapE) refers to gap.o(.constdata__ZTI8ISubjectIN3ble14BleGapObserverELi1EE) for typeinfo for ISubject<ble::BleGapObserver, (int)1>
    gap.o(.constdata__ZTIN3ble11BleObserverE) refers to lib_rtti_impl.o(.constdata__ZTVN10__cxxabiv117__class_type_infoE) for vtable for __cxxabiv1::__class_type_info
    gap.o(.constdata__ZTIN3ble11BleObserverE) refers to gap.o(.constdata__ZTSN3ble11BleObserverE) for typeinfo name for ble::BleObserver
    gap.o(.constdata__ZTI8ISubjectIN3ble14BleGapObserverELi1EE) refers to lib_rtti_impl.o(.constdata__ZTVN10__cxxabiv117__class_type_infoE) for vtable for __cxxabiv1::__class_type_info
    gap.o(.constdata__ZTI8ISubjectIN3ble14BleGapObserverELi1EE) refers to gap.o(.constdata__ZTS8ISubjectIN3ble14BleGapObserverELi1EE) for typeinfo name for ISubject<ble::BleGapObserver, (int)1>
    gatt.o(.constdata__ZTVN3ble4GattE) refers to gatt.o(.constdata__ZTIN3ble4GattE) for typeinfo for ble::Gatt
    gatt.o(.constdata__ZTVN3ble4GattE) refers to gatt.o(i._ZN3ble4GattD1Ev) for ble::Gatt::~Gatt()
    gatt.o(.constdata__ZTVN3ble4GattE) refers to gatt.o(i._ZN3ble4GattD0Ev) for ble::Gatt::~Gatt__deallocating()
    gatt.o(.constdata__ZTIN3ble4GattE) refers to lib_rtti_impl.o(.constdata__ZTVN10__cxxabiv121__vmi_class_type_infoE) for vtable for __cxxabiv1::__vmi_class_type_info
    gatt.o(.constdata__ZTIN3ble4GattE) refers to gatt.o(.constdata__ZTSN3ble4GattE) for typeinfo name for ble::Gatt
    gatt.o(.constdata__ZTIN3ble4GattE) refers to gatt.o(.constdata__ZTI8ISubjectIN3ble15BleGattObserverELi12EE) for typeinfo for ISubject<ble::BleGattObserver, (int)12>
    gatt.o(.constdata__ZTI8ISubjectIN3ble15BleGattObserverELi12EE) refers to lib_rtti_impl.o(.constdata__ZTVN10__cxxabiv117__class_type_infoE) for vtable for __cxxabiv1::__class_type_info
    gatt.o(.constdata__ZTI8ISubjectIN3ble15BleGattObserverELi12EE) refers to gatt.o(.constdata__ZTS8ISubjectIN3ble15BleGattObserverELi12EE) for typeinfo name for ISubject<ble::BleGattObserver, (int)12>
    gattcharacteristic.o(.constdata__ZTVN3ble18GattCharacteristicE) refers to gattcharacteristic.o(.constdata__ZTIN3ble18GattCharacteristicE) for typeinfo for ble::GattCharacteristic
    gattcharacteristic.o(.constdata__ZTVN3ble18GattCharacteristicE) refers to gattcharacteristic.o(i._ZN3ble18GattCharacteristicD1Ev) for ble::GattCharacteristic::~GattCharacteristic()
    gattcharacteristic.o(.constdata__ZTVN3ble18GattCharacteristicE) refers to gattcharacteristic.o(i._ZN3ble18GattCharacteristicD0Ev) for ble::GattCharacteristic::~GattCharacteristic__deallocating()
    gattcharacteristic.o(.constdata__ZTIN3ble18GattCharacteristicE) refers to lib_rtti_impl.o(.constdata__ZTVN10__cxxabiv117__class_type_infoE) for vtable for __cxxabiv1::__class_type_info
    gattcharacteristic.o(.constdata__ZTIN3ble18GattCharacteristicE) refers to gattcharacteristic.o(.constdata__ZTSN3ble18GattCharacteristicE) for typeinfo name for ble::GattCharacteristic
    peripheralcontroller.o(.constdata__ZTVN3ble20PeripheralControllerE) refers to peripheralcontroller.o(.constdata__ZTIN3ble20PeripheralControllerE) for typeinfo for ble::PeripheralController
    peripheralcontroller.o(.constdata__ZTVN3ble20PeripheralControllerE) refers to peripheralcontroller.o(i._ZN3ble20PeripheralController20onGapConnParamUpdateEPNS_3GapEt) for ble::PeripheralController::onGapConnParamUpdate(ble::Gap*, unsigned short)
    peripheralcontroller.o(.constdata__ZTVN3ble20PeripheralControllerE) refers to peripheralcontroller.o(i._ZN3ble20PeripheralController25onGapConnParamUpdateErrorEPNS_3GapEj) for ble::PeripheralController::onGapConnParamUpdateError(ble::Gap*, unsigned)
    peripheralcontroller.o(.constdata__ZTVN3ble20PeripheralControllerE) refers to peripheralcontroller.o(i._ZN3ble20PeripheralController14onGapConnectedEPNS_3GapEt) for ble::PeripheralController::onGapConnected(ble::Gap*, unsigned short)
    peripheralcontroller.o(.constdata__ZTVN3ble20PeripheralControllerE) refers to peripheralcontroller.o(i._ZN3ble20PeripheralController17onGapDisconnectedEPNS_3GapEt) for ble::PeripheralController::onGapDisconnected(ble::Gap*, unsigned short)
    peripheralcontroller.o(.constdata__ZTVN3ble20PeripheralControllerE) refers to peripheralcontroller.o(i._ZN3ble20PeripheralController19onGapPasskeyDisplayEPNS_3GapEtPc) for ble::PeripheralController::onGapPasskeyDisplay(ble::Gap*, unsigned short, char*)
    peripheralcontroller.o(.constdata__ZTVN3ble20PeripheralControllerE) refers to peripheralcontroller.o(i._ZN3ble20PeripheralController25onGapAuthenticationStatusEPNS_3GapEt25ble_gap_evt_auth_status_t) for ble::PeripheralController::onGapAuthenticationStatus(ble::Gap*, unsigned short, ble_gap_evt_auth_status_t)
    peripheralcontroller.o(.constdata__ZTVN3ble20PeripheralControllerE) refers to peripheralcontroller.o(i._ZN3ble20PeripheralControllerD1Ev) for ble::PeripheralController::~PeripheralController()
    peripheralcontroller.o(.constdata__ZTVN3ble20PeripheralControllerE) refers to peripheralcontroller.o(i._ZN3ble20PeripheralControllerD0Ev) for ble::PeripheralController::~PeripheralController__deallocating()
    peripheralcontroller.o(.constdata__ZTVN3ble20PeripheralControllerE) refers to peripheralcontroller.o(i._ZN3ble20PeripheralController4saveEPt) for ble::PeripheralController::save(unsigned short*)
    peripheralcontroller.o(.constdata__ZTVN3ble20PeripheralControllerE) refers to peripheralcontroller.o(i._ZN3ble20PeripheralController7restoreEPj) for ble::PeripheralController::restore(unsigned*)
    peripheralcontroller.o(.constdata__ZTVN3ble20PeripheralControllerE) refers to peripheralcontroller.o(i._ZN3ble20PeripheralController12processEventEv) for ble::PeripheralController::processEvent()
    peripheralcontroller.o(.constdata__ZTVN3ble20PeripheralControllerE) refers to peripheralcontroller.o(i._ZThn56_N3ble20PeripheralControllerD1Ev) for thunk{-56} to ble::PeripheralController::~PeripheralController()
    peripheralcontroller.o(.constdata__ZTVN3ble20PeripheralControllerE) refers to peripheralcontroller.o(i._ZThn56_N3ble20PeripheralControllerD0Ev) for thunk{-56} to ble::PeripheralController::~PeripheralController__deallocating()
    peripheralcontroller.o(.constdata__ZTVN3ble20PeripheralControllerE) refers to peripheralcontroller.o(i._ZThn56_N3ble20PeripheralController4saveEPt) for thunk{-56} to ble::PeripheralController::save(unsigned short*)
    peripheralcontroller.o(.constdata__ZTVN3ble20PeripheralControllerE) refers to peripheralcontroller.o(i._ZThn56_N3ble20PeripheralController7restoreEPj) for thunk{-56} to ble::PeripheralController::restore(unsigned*)
    peripheralcontroller.o(.constdata__ZTVN3ble20PeripheralControllerE) refers to peripheralcontroller.o(i._ZThn88_N3ble20PeripheralControllerD1Ev) for thunk{-88} to ble::PeripheralController::~PeripheralController()
    peripheralcontroller.o(.constdata__ZTVN3ble20PeripheralControllerE) refers to peripheralcontroller.o(i._ZThn88_N3ble20PeripheralControllerD0Ev) for thunk{-88} to ble::PeripheralController::~PeripheralController__deallocating()
    peripheralcontroller.o(.constdata__ZTVN3ble20PeripheralControllerE) refers to xfreactive.o(i._ZN10XFReactive14startBehaviourEv) for XFReactive::startBehaviour()
    peripheralcontroller.o(.constdata__ZTVN3ble20PeripheralControllerE) refers to xfreactive.o(i._ZN10XFReactive9pushEventEP8IXFEvent) for XFReactive::pushEvent(IXFEvent*)
    peripheralcontroller.o(.constdata__ZTVN3ble20PeripheralControllerE) refers to xfreactive.o(i._ZN10XFReactive7processEP8IXFEvent) for XFReactive::process(IXFEvent*)
    peripheralcontroller.o(.constdata__ZTVN3ble20PeripheralControllerE) refers to xfreactive.o(i._ZN10XFReactive17pushCriticalEventEP8IXFEvent) for XFReactive::pushCriticalEvent(IXFEvent*)
    peripheralcontroller.o(.constdata__ZTVN3ble20PeripheralControllerE) refers to peripheralcontroller.o(i._ZThn88_N3ble20PeripheralController12processEventEv) for thunk{-88} to ble::PeripheralController::processEvent()
    peripheralcontroller.o(.constdata__ZTVN3ble20PeripheralControllerE) refers to xfreactive.o(i._ZN10XFReactive9getThreadEv) for XFReactive::getThread()
    peripheralcontroller.o(.constdata__ZTVN5flash9PersisterE) refers to batterymanager.o(.constdata__ZTIN5flash9PersisterE) for typeinfo for flash::Persister
    peripheralcontroller.o(.constdata__ZTVN5flash9PersisterE) refers to peripheralcontroller.o(i._ZN5flash9PersisterD2Ev) for flash::Persister::~Persister__sub_object()
    peripheralcontroller.o(.constdata__ZTVN5flash9PersisterE) refers to peripheralcontroller.o(i._ZN5flash9PersisterD0Ev) for flash::Persister::~Persister__deallocating()
    peripheralcontroller.o(.constdata__ZTVN5flash9PersisterE) refers to pure_virt.o(i.__cxa_pure_virtual) for __cxa_pure_virtual
    peripheralcontroller.o(.constdata__ZTIN3ble20PeripheralControllerE) refers to lib_rtti_impl.o(.constdata__ZTVN10__cxxabiv121__vmi_class_type_infoE) for vtable for __cxxabiv1::__vmi_class_type_info
    peripheralcontroller.o(.constdata__ZTIN3ble20PeripheralControllerE) refers to peripheralcontroller.o(.constdata__ZTSN3ble20PeripheralControllerE) for typeinfo name for ble::PeripheralController
    peripheralcontroller.o(.constdata__ZTIN3ble20PeripheralControllerE) refers to peripheralcontroller.o(.constdata__ZTI8ISubjectIN3ble18PeripheralObserverELi12EE) for typeinfo for ISubject<ble::PeripheralObserver, (int)12>
    peripheralcontroller.o(.constdata__ZTIN3ble20PeripheralControllerE) refers to peripheralcontroller.o(.constdata__ZTIN3ble14BleGapObserverE) for typeinfo for ble::BleGapObserver
    peripheralcontroller.o(.constdata__ZTIN3ble20PeripheralControllerE) refers to peripheralcontroller.o(.constdata__ZTIN3ble19BleServicesObserverE) for typeinfo for ble::BleServicesObserver
    peripheralcontroller.o(.constdata__ZTIN3ble20PeripheralControllerE) refers to batterymanager.o(.constdata__ZTIN5flash9PersisterE) for typeinfo for flash::Persister
    peripheralcontroller.o(.constdata__ZTIN3ble20PeripheralControllerE) refers to xfreactive.o(.constdata__ZTI10XFReactive) for typeinfo for XFReactive
    peripheralcontroller.o(.constdata__ZTIN3ble14BleGapObserverE) refers to lib_rtti_impl.o(.constdata__ZTVN10__cxxabiv117__class_type_infoE) for vtable for __cxxabiv1::__class_type_info
    peripheralcontroller.o(.constdata__ZTIN3ble14BleGapObserverE) refers to peripheralcontroller.o(.constdata__ZTSN3ble14BleGapObserverE) for typeinfo name for ble::BleGapObserver
    peripheralcontroller.o(.constdata__ZTI8ISubjectIN3ble18PeripheralObserverELi12EE) refers to lib_rtti_impl.o(.constdata__ZTVN10__cxxabiv117__class_type_infoE) for vtable for __cxxabiv1::__class_type_info
    peripheralcontroller.o(.constdata__ZTI8ISubjectIN3ble18PeripheralObserverELi12EE) refers to peripheralcontroller.o(.constdata__ZTS8ISubjectIN3ble18PeripheralObserverELi12EE) for typeinfo name for ISubject<ble::PeripheralObserver, (int)12>
    peripheralcontroller.o(.constdata__ZTIN3ble19BleServicesObserverE) refers to lib_rtti_impl.o(.constdata__ZTVN10__cxxabiv117__class_type_infoE) for vtable for __cxxabiv1::__class_type_info
    peripheralcontroller.o(.constdata__ZTIN3ble19BleServicesObserverE) refers to peripheralcontroller.o(.constdata__ZTSN3ble19BleServicesObserverE) for typeinfo name for ble::BleServicesObserver
    peripheralcontroller.o(.ARM.exidx) refers to peripheralcontroller.o(i._ZN5flash9PersisterD2Ev) for i._ZN5flash9PersisterD2Ev
    peripheralcontroller.o(i._ZN5flash9PersisterD0Ev) refers to delete.o(i._ZdlPv) for operator delete (void*)
    peripheralcontroller.o(.ARM.exidx) refers to peripheralcontroller.o(i._ZN5flash9PersisterD0Ev) for i._ZN5flash9PersisterD0Ev
    security.o(.constdata__ZTVN3ble8SecurityE) refers to security.o(.constdata__ZTIN3ble8SecurityE) for typeinfo for ble::Security
    security.o(.constdata__ZTVN3ble8SecurityE) refers to security.o(i._ZN3ble8Security10onBleEventEPK9ble_evt_tPv) for ble::Security::onBleEvent(const ble_evt_t*, void*)
    security.o(.constdata__ZTVN3ble8SecurityE) refers to security.o(i._ZN3ble8Security13onSystemEventEj) for ble::Security::onSystemEvent(unsigned)
    security.o(.constdata__ZTVN3ble8SecurityE) refers to security.o(i._ZN3ble8SecurityD1Ev) for ble::Security::~Security()
    security.o(.constdata__ZTVN3ble8SecurityE) refers to security.o(i._ZN3ble8SecurityD0Ev) for ble::Security::~Security__deallocating()
    security.o(i._ZN5tools8LogTrace5debugEPKcz) refers to printfa.o(i.__0vsprintf) for __c89vsprintf
    security.o(i._ZN5tools8LogTrace5debugEPKcz) refers to logtrace.o(i._ZN5tools8LogTrace3outEhPKc) for tools::LogTrace::out(unsigned char, const char*)
    security.o(.ARM.exidx) refers to security.o(i._ZN5tools8LogTrace5debugEPKcz) for i._ZN5tools8LogTrace5debugEPKcz
    security.o(.constdata__ZTIN3ble8SecurityE) refers to lib_rtti_impl.o(.constdata__ZTVN10__cxxabiv120__si_class_type_infoE) for vtable for __cxxabiv1::__si_class_type_info
    security.o(.constdata__ZTIN3ble8SecurityE) refers to security.o(.constdata__ZTSN3ble8SecurityE) for typeinfo name for ble::Security
    security.o(.constdata__ZTIN3ble8SecurityE) refers to gap.o(.constdata__ZTIN3ble11BleObserverE) for typeinfo for ble::BleObserver
    blevendor.o(.constdata__ZTVN3ble9BleVendorE) refers to blevendor.o(.constdata__ZTIN3ble9BleVendorE) for typeinfo for ble::BleVendor
    blevendor.o(.constdata__ZTVN3ble9BleVendorE) refers to blevendor.o(i._ZN3ble9BleVendorD1Ev) for ble::BleVendor::~BleVendor()
    blevendor.o(.constdata__ZTVN3ble9BleVendorE) refers to blevendor.o(i._ZN3ble9BleVendorD0Ev) for ble::BleVendor::~BleVendor__deallocating()
    blevendor.o(.constdata__ZTIN3ble9BleVendorE) refers to lib_rtti_impl.o(.constdata__ZTVN10__cxxabiv117__class_type_infoE) for vtable for __cxxabiv1::__class_type_info
    blevendor.o(.constdata__ZTIN3ble9BleVendorE) refers to blevendor.o(.constdata__ZTSN3ble9BleVendorE) for typeinfo name for ble::BleVendor
    privateservice.o(.constdata__ZTVN3ble14PrivateServiceE) refers to privateservice.o(.constdata__ZTIN3ble14PrivateServiceE) for typeinfo for ble::PrivateService
    privateservice.o(.constdata__ZTVN3ble14PrivateServiceE) refers to pure_virt.o(i.__cxa_pure_virtual) for __cxa_pure_virtual
    privateservice.o(.constdata__ZTVN3ble14PrivateServiceE) refers to privateservice.o(i._ZN3ble14PrivateServiceD2Ev) for ble::PrivateService::~PrivateService__sub_object()
    privateservice.o(.constdata__ZTVN3ble14PrivateServiceE) refers to privateservice.o(i._ZN3ble14PrivateServiceD0Ev) for ble::PrivateService::~PrivateService__deallocating()
    privateservice.o(.constdata__ZTIN3ble14PrivateServiceE) refers to lib_rtti_impl.o(.constdata__ZTVN10__cxxabiv120__si_class_type_infoE) for vtable for __cxxabiv1::__si_class_type_info
    privateservice.o(.constdata__ZTIN3ble14PrivateServiceE) refers to privateservice.o(.constdata__ZTSN3ble14PrivateServiceE) for typeinfo name for ble::PrivateService
    privateservice.o(.constdata__ZTIN3ble14PrivateServiceE) refers to gap.o(.constdata__ZTIN3ble11BleObserverE) for typeinfo for ble::BleObserver
    services.o(.constdata__ZTVN3ble8ServicesE) refers to services.o(.constdata__ZTIN3ble8ServicesE) for typeinfo for ble::Services
    services.o(.constdata__ZTVN3ble8ServicesE) refers to services.o(i._ZN3ble8ServicesD1Ev) for ble::Services::~Services()
    services.o(.constdata__ZTVN3ble8ServicesE) refers to services.o(i._ZN3ble8ServicesD0Ev) for ble::Services::~Services__deallocating()
    services.o(.constdata__ZTIN3ble8ServicesE) refers to lib_rtti_impl.o(.constdata__ZTVN10__cxxabiv121__vmi_class_type_infoE) for vtable for __cxxabiv1::__vmi_class_type_info
    services.o(.constdata__ZTIN3ble8ServicesE) refers to services.o(.constdata__ZTSN3ble8ServicesE) for typeinfo name for ble::Services
    services.o(.constdata__ZTIN3ble8ServicesE) refers to services.o(.constdata__ZTI8ISubjectIN3ble19BleServicesObserverELi12EE) for typeinfo for ISubject<ble::BleServicesObserver, (int)12>
    services.o(.constdata__ZTI8ISubjectIN3ble19BleServicesObserverELi12EE) refers to lib_rtti_impl.o(.constdata__ZTVN10__cxxabiv117__class_type_infoE) for vtable for __cxxabiv1::__class_type_info
    services.o(.constdata__ZTI8ISubjectIN3ble19BleServicesObserverELi12EE) refers to services.o(.constdata__ZTS8ISubjectIN3ble19BleServicesObserverELi12EE) for typeinfo name for ISubject<ble::BleServicesObserver, (int)12>
    mhfsservice.o(.constdata__ZTVN3ble11MhfsServiceE) refers to mhfsservice.o(.constdata__ZTIN3ble11MhfsServiceE) for typeinfo for ble::MhfsService
    mhfsservice.o(.constdata__ZTVN3ble11MhfsServiceE) refers to mhfsservice.o(i._ZN3ble11MhfsService10onBleEventEPK9ble_evt_tPv) for ble::MhfsService::onBleEvent(const ble_evt_t*, void*)
    mhfsservice.o(.constdata__ZTVN3ble11MhfsServiceE) refers to mhfsservice.o(i._ZN3ble11MhfsService13onSystemEventEj) for ble::MhfsService::onSystemEvent(unsigned)
    mhfsservice.o(.constdata__ZTVN3ble11MhfsServiceE) refers to mhfsservice.o(i._ZN3ble11MhfsServiceD1Ev) for ble::MhfsService::~MhfsService()
    mhfsservice.o(.constdata__ZTVN3ble11MhfsServiceE) refers to mhfsservice.o(i._ZN3ble11MhfsServiceD0Ev) for ble::MhfsService::~MhfsService__deallocating()
    mhfsservice.o(.constdata__ZTVN3ble11MhfsServiceE) refers to mhfsservice.o(i._ZN3ble11MhfsService32updateSecurityForCharacteristicsENS_8Security16eSecurityLevelIdE) for ble::MhfsService::updateSecurityForCharacteristics(ble::Security::eSecurityLevelId)
    mhfsservice.o(.constdata__ZTVN3ble11MhfsServiceE) refers to mhfsservice.o(i._ZN3ble11MhfsService12_initServiceEv) for ble::MhfsService::_initService()
    mhfsservice.o(.constdata__ZTVN3ble11MhfsServiceE) refers to mhfsservice.o(i._ZN3ble11MhfsService11addObserverEPNS_12MhfsObserverE) for ble::MhfsService::addObserver(ble::MhfsObserver*)
    mhfsservice.o(.ARM.exidx) refers to mhfsservice.o(i._ZNK3ble18GattCharacteristic7charLenEv) for i._ZNK3ble18GattCharacteristic7charLenEv
    mhfsservice.o(.constdata__ZTIN3ble11MhfsServiceE) refers to lib_rtti_impl.o(.constdata__ZTVN10__cxxabiv121__vmi_class_type_infoE) for vtable for __cxxabiv1::__vmi_class_type_info
    mhfsservice.o(.constdata__ZTIN3ble11MhfsServiceE) refers to mhfsservice.o(.constdata__ZTSN3ble11MhfsServiceE) for typeinfo name for ble::MhfsService
    mhfsservice.o(.constdata__ZTIN3ble11MhfsServiceE) refers to privateservice.o(.constdata__ZTIN3ble14PrivateServiceE) for typeinfo for ble::PrivateService
    mhfsservice.o(.constdata__ZTIN3ble11MhfsServiceE) refers to mhfsservice.o(.constdata__ZTI8ISubjectIN3ble12MhfsObserverELi12EE) for typeinfo for ISubject<ble::MhfsObserver, (int)12>
    mhfsservice.o(.constdata__ZTI8ISubjectIN3ble12MhfsObserverELi12EE) refers to lib_rtti_impl.o(.constdata__ZTVN10__cxxabiv117__class_type_infoE) for vtable for __cxxabiv1::__class_type_info
    mhfsservice.o(.constdata__ZTI8ISubjectIN3ble12MhfsObserverELi12EE) refers to mhfsservice.o(.constdata__ZTS8ISubjectIN3ble12MhfsObserverELi12EE) for typeinfo name for ISubject<ble::MhfsObserver, (int)12>
    button.o(.constdata__ZTVN4gpio6ButtonE) refers to button.o(.constdata__ZTIN4gpio6ButtonE) for typeinfo for gpio::Button
    button.o(.constdata__ZTVN4gpio6ButtonE) refers to button.o(i._ZN4gpio6ButtonD1Ev) for gpio::Button::~Button()
    button.o(.constdata__ZTVN4gpio6ButtonE) refers to button.o(i._ZN4gpio6ButtonD0Ev) for gpio::Button::~Button__deallocating()
    button.o(.constdata__ZTVN4gpio6ButtonE) refers to button.o(i._ZN4gpio6Button4saveEPt) for gpio::Button::save(unsigned short*)
    button.o(.constdata__ZTVN4gpio6ButtonE) refers to button.o(i._ZN4gpio6Button7restoreEPj) for gpio::Button::restore(unsigned*)
    button.o(i._ZN4gpio6ButtonD1Ev) refers to button.o(.constdata__ZTVN4gpio6ButtonE) for vtable for gpio::Button
    button.o(.ARM.exidx) refers to button.o(i._ZN4gpio6ButtonD1Ev) for i._ZN4gpio6ButtonD1Ev
    button.o(i._ZN4gpio6ButtonD0Ev) refers to delete.o(i._ZdlPv) for operator delete (void*)
    button.o(i._ZN4gpio6ButtonD0Ev) refers to button.o(.constdata__ZTVN4gpio6ButtonE) for vtable for gpio::Button
    button.o(.ARM.exidx) refers to button.o(i._ZN4gpio6ButtonD0Ev) for i._ZN4gpio6ButtonD0Ev
    button.o(.constdata__ZTIN4gpio6ButtonE) refers to lib_rtti_impl.o(.constdata__ZTVN10__cxxabiv121__vmi_class_type_infoE) for vtable for __cxxabiv1::__vmi_class_type_info
    button.o(.constdata__ZTIN4gpio6ButtonE) refers to button.o(.constdata__ZTSN4gpio6ButtonE) for typeinfo name for gpio::Button
    button.o(.constdata__ZTIN4gpio6ButtonE) refers to button.o(.constdata__ZTI8ISubjectIN4gpio14ButtonObserverELi12EE) for typeinfo for ISubject<gpio::ButtonObserver, (int)12>
    button.o(.constdata__ZTIN4gpio6ButtonE) refers to batterymanager.o(.constdata__ZTIN5flash9PersisterE) for typeinfo for flash::Persister
    button.o(.constdata__ZTI8ISubjectIN4gpio14ButtonObserverELi12EE) refers to lib_rtti_impl.o(.constdata__ZTVN10__cxxabiv117__class_type_infoE) for vtable for __cxxabiv1::__class_type_info
    button.o(.constdata__ZTI8ISubjectIN4gpio14ButtonObserverELi12EE) refers to button.o(.constdata__ZTS8ISubjectIN4gpio14ButtonObserverELi12EE) for typeinfo name for ISubject<gpio::ButtonObserver, (int)12>
    flashcontroller.o(.constdata__ZTVN5flash15FlashControllerE) refers to flashcontroller.o(.constdata__ZTIN5flash15FlashControllerE) for typeinfo for flash::FlashController
    flashcontroller.o(.constdata__ZTVN5flash15FlashControllerE) refers to flashcontroller.o(i._ZN5flash15FlashControllerD1Ev) for flash::FlashController::~FlashController()
    flashcontroller.o(.constdata__ZTVN5flash15FlashControllerE) refers to flashcontroller.o(i._ZN5flash15FlashControllerD0Ev) for flash::FlashController::~FlashController__deallocating()
    flashcontroller.o(.ARM.exidx) refers to flashcontroller.o(i._ZN5flash11FlashFileId7isValidEh) for i._ZN5flash11FlashFileId7isValidEh
    flashcontroller.o(.ARM.exidx) refers to flashcontroller.o(i._ZN5flash15FlashController20_operationInProgressEPNS_9PersisterE) for i._ZN5flash15FlashController20_operationInProgressEPNS_9PersisterE
    flashcontroller.o(.constdata__ZTIN5flash15FlashControllerE) refers to lib_rtti_impl.o(.constdata__ZTVN10__cxxabiv121__vmi_class_type_infoE) for vtable for __cxxabiv1::__vmi_class_type_info
    flashcontroller.o(.constdata__ZTIN5flash15FlashControllerE) refers to flashcontroller.o(.constdata__ZTSN5flash15FlashControllerE) for typeinfo name for flash::FlashController
    flashcontroller.o(.constdata__ZTIN5flash15FlashControllerE) refers to flashcontroller.o(.constdata__ZTI8ISubjectIN5flash13FlashObserverELi12EE) for typeinfo for ISubject<flash::FlashObserver, (int)12>
    flashcontroller.o(.constdata__ZTI8ISubjectIN5flash13FlashObserverELi12EE) refers to lib_rtti_impl.o(.constdata__ZTVN10__cxxabiv117__class_type_infoE) for vtable for __cxxabiv1::__class_type_info
    flashcontroller.o(.constdata__ZTI8ISubjectIN5flash13FlashObserverELi12EE) refers to flashcontroller.o(.constdata__ZTS8ISubjectIN5flash13FlashObserverELi12EE) for typeinfo name for ISubject<flash::FlashObserver, (int)12>
    ledcontroller.o(.constdata__ZTVN4gpio13LedControllerE) refers to ledcontroller.o(.constdata__ZTIN4gpio13LedControllerE) for typeinfo for gpio::LedController
    ledcontroller.o(.constdata__ZTVN4gpio13LedControllerE) refers to ledcontroller.o(i._ZN4gpio13LedControllerD1Ev) for gpio::LedController::~LedController()
    ledcontroller.o(.constdata__ZTVN4gpio13LedControllerE) refers to ledcontroller.o(i._ZN4gpio13LedControllerD0Ev) for gpio::LedController::~LedController__deallocating()
    ledcontroller.o(.constdata__ZTVN4gpio13LedControllerE) refers to xfreactive.o(i._ZN10XFReactive14startBehaviourEv) for XFReactive::startBehaviour()
    ledcontroller.o(.constdata__ZTVN4gpio13LedControllerE) refers to xfreactive.o(i._ZN10XFReactive9pushEventEP8IXFEvent) for XFReactive::pushEvent(IXFEvent*)
    ledcontroller.o(.constdata__ZTVN4gpio13LedControllerE) refers to xfreactive.o(i._ZN10XFReactive7processEP8IXFEvent) for XFReactive::process(IXFEvent*)
    ledcontroller.o(.constdata__ZTVN4gpio13LedControllerE) refers to xfreactive.o(i._ZN10XFReactive17pushCriticalEventEP8IXFEvent) for XFReactive::pushCriticalEvent(IXFEvent*)
    ledcontroller.o(.constdata__ZTVN4gpio13LedControllerE) refers to ledcontroller.o(i._ZN4gpio13LedController12processEventEv) for gpio::LedController::processEvent()
    ledcontroller.o(.constdata__ZTVN4gpio13LedControllerE) refers to xfreactive.o(i._ZN10XFReactive9getThreadEv) for XFReactive::getThread()
    ledcontroller.o(.constdata__ZTIN4gpio13LedControllerE) refers to lib_rtti_impl.o(.constdata__ZTVN10__cxxabiv120__si_class_type_infoE) for vtable for __cxxabiv1::__si_class_type_info
    ledcontroller.o(.constdata__ZTIN4gpio13LedControllerE) refers to ledcontroller.o(.constdata__ZTSN4gpio13LedControllerE) for typeinfo name for gpio::LedController
    ledcontroller.o(.constdata__ZTIN4gpio13LedControllerE) refers to xfreactive.o(.constdata__ZTI10XFReactive) for typeinfo for XFReactive
    ads1118.o(.constdata__ZTVN6sensor7ADS1118E) refers to ads1118.o(.constdata__ZTIN6sensor7ADS1118E) for typeinfo for sensor::ADS1118
    ads1118.o(.constdata__ZTVN6sensor7ADS1118E) refers to ads1118.o(i._ZN6sensor7ADS1118D1Ev) for sensor::ADS1118::~ADS1118()
    ads1118.o(.constdata__ZTVN6sensor7ADS1118E) refers to ads1118.o(i._ZN6sensor7ADS1118D0Ev) for sensor::ADS1118::~ADS1118__deallocating()
    ads1118.o(.constdata__ZTIN6sensor7ADS1118E) refers to lib_rtti_impl.o(.constdata__ZTVN10__cxxabiv117__class_type_infoE) for vtable for __cxxabiv1::__class_type_info
    ads1118.o(.constdata__ZTIN6sensor7ADS1118E) refers to ads1118.o(.constdata__ZTSN6sensor7ADS1118E) for typeinfo name for sensor::ADS1118
    sensorcontroller.o(.constdata__ZTVN6sensor16SensorControllerE) refers to sensorcontroller.o(.constdata__ZTIN6sensor16SensorControllerE) for typeinfo for sensor::SensorController
    sensorcontroller.o(.constdata__ZTVN6sensor16SensorControllerE) refers to sensorcontroller.o(i._ZN6sensor16SensorControllerD1Ev) for sensor::SensorController::~SensorController()
    sensorcontroller.o(.constdata__ZTVN6sensor16SensorControllerE) refers to sensorcontroller.o(i._ZN6sensor16SensorControllerD0Ev) for sensor::SensorController::~SensorController__deallocating()
    sensorcontroller.o(.constdata__ZTVN6sensor16SensorControllerE) refers to xfreactive.o(i._ZN10XFReactive14startBehaviourEv) for XFReactive::startBehaviour()
    sensorcontroller.o(.constdata__ZTVN6sensor16SensorControllerE) refers to xfreactive.o(i._ZN10XFReactive9pushEventEP8IXFEvent) for XFReactive::pushEvent(IXFEvent*)
    sensorcontroller.o(.constdata__ZTVN6sensor16SensorControllerE) refers to xfreactive.o(i._ZN10XFReactive7processEP8IXFEvent) for XFReactive::process(IXFEvent*)
    sensorcontroller.o(.constdata__ZTVN6sensor16SensorControllerE) refers to xfreactive.o(i._ZN10XFReactive17pushCriticalEventEP8IXFEvent) for XFReactive::pushCriticalEvent(IXFEvent*)
    sensorcontroller.o(.constdata__ZTVN6sensor16SensorControllerE) refers to sensorcontroller.o(i._ZN6sensor16SensorController12processEventEv) for sensor::SensorController::processEvent()
    sensorcontroller.o(.constdata__ZTVN6sensor16SensorControllerE) refers to xfreactive.o(i._ZN10XFReactive9getThreadEv) for XFReactive::getThread()
    sensorcontroller.o(.constdata__ZTV11SensorEvent) refers to sensorcontroller.o(.constdata__ZTI11SensorEvent) for typeinfo for SensorEvent
    sensorcontroller.o(.constdata__ZTV11SensorEvent) refers to sensorcontroller.o(i._ZN11SensorEventD1Ev) for SensorEvent::~SensorEvent()
    sensorcontroller.o(.constdata__ZTV11SensorEvent) refers to sensorcontroller.o(i._ZN11SensorEventD0Ev) for SensorEvent::~SensorEvent__deallocating()
    sensorcontroller.o(.constdata__ZTIN6sensor16SensorControllerE) refers to lib_rtti_impl.o(.constdata__ZTVN10__cxxabiv120__si_class_type_infoE) for vtable for __cxxabiv1::__si_class_type_info
    sensorcontroller.o(.constdata__ZTIN6sensor16SensorControllerE) refers to sensorcontroller.o(.constdata__ZTSN6sensor16SensorControllerE) for typeinfo name for sensor::SensorController
    sensorcontroller.o(.constdata__ZTIN6sensor16SensorControllerE) refers to xfreactive.o(.constdata__ZTI10XFReactive) for typeinfo for XFReactive
    sensorcontroller.o(.constdata__ZTI11SensorEvent) refers to lib_rtti_impl.o(.constdata__ZTVN10__cxxabiv120__si_class_type_infoE) for vtable for __cxxabiv1::__si_class_type_info
    sensorcontroller.o(.constdata__ZTI11SensorEvent) refers to sensorcontroller.o(.constdata__ZTS11SensorEvent) for typeinfo name for SensorEvent
    sensorcontroller.o(.constdata__ZTI11SensorEvent) refers to xfevent.o(.constdata__ZTI7XFEvent) for typeinfo for XFEvent
    sensorcontroller.o(i._ZN11SensorEventD1Ev) refers to xfevent.o(i._ZN7XFEventD1Ev) for XFEvent::~XFEvent()
    sensorcontroller.o(.ARM.exidx) refers to sensorcontroller.o(i._ZN11SensorEventD1Ev) for i._ZN11SensorEventD1Ev
    sensorcontroller.o(i._ZN11SensorEventD0Ev) refers to xfevent.o(i._ZN7XFEventD1Ev) for XFEvent::~XFEvent()
    sensorcontroller.o(i._ZN11SensorEventD0Ev) refers to xfevent.o(i._ZN7XFEventdlEPv) for XFEvent::operator delete (void*)
    sensorcontroller.o(.ARM.exidx) refers to sensorcontroller.o(i._ZN11SensorEventD0Ev) for i._ZN11SensorEventD0Ev
    memorypool.o(t._ZN10ObjectPoolIN10MemoryPool11SmallObjectEXadL_Z13enterCriticalEEXadL_Z12exitCriticalEEED1Ev) refers to array_del.o(i._ZdaPv) for operator delete[] (void*)
    memorypool.o(t._ZN10ObjectPoolIN10MemoryPool11SmallObjectEXadL_Z13enterCriticalEEXadL_Z12exitCriticalEEED1Ev) refers to memorypool.o(.constdata__ZTV10ObjectPoolIN10MemoryPool11SmallObjectEXadL_Z13enterCriticalEEXadL_Z12exitCriticalEEE) for vtable for ObjectPool<MemoryPool::SmallObject, (&enterCritical), (&exitCritical)>
    memorypool.o(.ARM.exidx) refers to memorypool.o(t._ZN10ObjectPoolIN10MemoryPool11SmallObjectEXadL_Z13enterCriticalEEXadL_Z12exitCriticalEEED1Ev) for t._ZN10ObjectPoolIN10MemoryPool11SmallObjectEXadL_Z13enterCriticalEEXadL_Z12exitCriticalEEED1Ev
    memorypool.o(t._ZN10ObjectPoolIN10MemoryPool12MediumObjectEXadL_Z13enterCriticalEEXadL_Z12exitCriticalEEED1Ev) refers to array_del.o(i._ZdaPv) for operator delete[] (void*)
    memorypool.o(t._ZN10ObjectPoolIN10MemoryPool12MediumObjectEXadL_Z13enterCriticalEEXadL_Z12exitCriticalEEED1Ev) refers to memorypool.o(.constdata__ZTV10ObjectPoolIN10MemoryPool12MediumObjectEXadL_Z13enterCriticalEEXadL_Z12exitCriticalEEE) for vtable for ObjectPool<MemoryPool::MediumObject, (&enterCritical), (&exitCritical)>
    memorypool.o(.ARM.exidx) refers to memorypool.o(t._ZN10ObjectPoolIN10MemoryPool12MediumObjectEXadL_Z13enterCriticalEEXadL_Z12exitCriticalEEED1Ev) for t._ZN10ObjectPoolIN10MemoryPool12MediumObjectEXadL_Z13enterCriticalEEXadL_Z12exitCriticalEEED1Ev
    memorypool.o(t._ZN10ObjectPoolIN10MemoryPool9BigObjectEXadL_Z13enterCriticalEEXadL_Z12exitCriticalEEED1Ev) refers to array_del.o(i._ZdaPv) for operator delete[] (void*)
    memorypool.o(t._ZN10ObjectPoolIN10MemoryPool9BigObjectEXadL_Z13enterCriticalEEXadL_Z12exitCriticalEEED1Ev) refers to memorypool.o(.constdata__ZTV10ObjectPoolIN10MemoryPool9BigObjectEXadL_Z13enterCriticalEEXadL_Z12exitCriticalEEE) for vtable for ObjectPool<MemoryPool::BigObject, (&enterCritical), (&exitCritical)>
    memorypool.o(.ARM.exidx) refers to memorypool.o(t._ZN10ObjectPoolIN10MemoryPool9BigObjectEXadL_Z13enterCriticalEEXadL_Z12exitCriticalEEED1Ev) for t._ZN10ObjectPoolIN10MemoryPool9BigObjectEXadL_Z13enterCriticalEEXadL_Z12exitCriticalEEED1Ev
    memorypool.o(t._ZN10ObjectPoolIN10MemoryPool11SmallObjectEXadL_Z13enterCriticalEEXadL_Z12exitCriticalEEEC1EjPPh) refers to array_new.o(i._Znaj) for operator new[] (unsigned)
    memorypool.o(t._ZN10ObjectPoolIN10MemoryPool11SmallObjectEXadL_Z13enterCriticalEEXadL_Z12exitCriticalEEEC1EjPPh) refers to memseta.o(.text) for __aeabi_memclr
    memorypool.o(t._ZN10ObjectPoolIN10MemoryPool11SmallObjectEXadL_Z13enterCriticalEEXadL_Z12exitCriticalEEEC1EjPPh) refers to array_del.o(i._ZdaPv) for operator delete[] (void*)
    memorypool.o(t._ZN10ObjectPoolIN10MemoryPool11SmallObjectEXadL_Z13enterCriticalEEXadL_Z12exitCriticalEEEC1EjPPh) refers to memorypool.o(.constdata__ZTV10ObjectPoolIN10MemoryPool11SmallObjectEXadL_Z13enterCriticalEEXadL_Z12exitCriticalEEE) for vtable for ObjectPool<MemoryPool::SmallObject, (&enterCritical), (&exitCritical)>
    memorypool.o(.ARM.exidx) refers to memorypool.o(t._ZN10ObjectPoolIN10MemoryPool11SmallObjectEXadL_Z13enterCriticalEEXadL_Z12exitCriticalEEEC1EjPPh) for t._ZN10ObjectPoolIN10MemoryPool11SmallObjectEXadL_Z13enterCriticalEEXadL_Z12exitCriticalEEEC1EjPPh
    memorypool.o(t._ZN10ObjectPoolIN10MemoryPool12MediumObjectEXadL_Z13enterCriticalEEXadL_Z12exitCriticalEEEC1EjPPh) refers to array_new.o(i._Znaj) for operator new[] (unsigned)
    memorypool.o(t._ZN10ObjectPoolIN10MemoryPool12MediumObjectEXadL_Z13enterCriticalEEXadL_Z12exitCriticalEEEC1EjPPh) refers to memseta.o(.text) for __aeabi_memclr
    memorypool.o(t._ZN10ObjectPoolIN10MemoryPool12MediumObjectEXadL_Z13enterCriticalEEXadL_Z12exitCriticalEEEC1EjPPh) refers to array_del.o(i._ZdaPv) for operator delete[] (void*)
    memorypool.o(t._ZN10ObjectPoolIN10MemoryPool12MediumObjectEXadL_Z13enterCriticalEEXadL_Z12exitCriticalEEEC1EjPPh) refers to memorypool.o(.constdata__ZTV10ObjectPoolIN10MemoryPool12MediumObjectEXadL_Z13enterCriticalEEXadL_Z12exitCriticalEEE) for vtable for ObjectPool<MemoryPool::MediumObject, (&enterCritical), (&exitCritical)>
    memorypool.o(.ARM.exidx) refers to memorypool.o(t._ZN10ObjectPoolIN10MemoryPool12MediumObjectEXadL_Z13enterCriticalEEXadL_Z12exitCriticalEEEC1EjPPh) for t._ZN10ObjectPoolIN10MemoryPool12MediumObjectEXadL_Z13enterCriticalEEXadL_Z12exitCriticalEEEC1EjPPh
    memorypool.o(t._ZN10ObjectPoolIN10MemoryPool9BigObjectEXadL_Z13enterCriticalEEXadL_Z12exitCriticalEEEC1EjPPh) refers to array_new.o(i._Znaj) for operator new[] (unsigned)
    memorypool.o(t._ZN10ObjectPoolIN10MemoryPool9BigObjectEXadL_Z13enterCriticalEEXadL_Z12exitCriticalEEEC1EjPPh) refers to memseta.o(.text) for __aeabi_memclr
    memorypool.o(t._ZN10ObjectPoolIN10MemoryPool9BigObjectEXadL_Z13enterCriticalEEXadL_Z12exitCriticalEEEC1EjPPh) refers to array_del.o(i._ZdaPv) for operator delete[] (void*)
    memorypool.o(t._ZN10ObjectPoolIN10MemoryPool9BigObjectEXadL_Z13enterCriticalEEXadL_Z12exitCriticalEEEC1EjPPh) refers to memorypool.o(.constdata__ZTV10ObjectPoolIN10MemoryPool9BigObjectEXadL_Z13enterCriticalEEXadL_Z12exitCriticalEEE) for vtable for ObjectPool<MemoryPool::BigObject, (&enterCritical), (&exitCritical)>
    memorypool.o(.ARM.exidx) refers to memorypool.o(t._ZN10ObjectPoolIN10MemoryPool9BigObjectEXadL_Z13enterCriticalEEXadL_Z12exitCriticalEEEC1EjPPh) for t._ZN10ObjectPoolIN10MemoryPool9BigObjectEXadL_Z13enterCriticalEEXadL_Z12exitCriticalEEEC1EjPPh
    memorypool.o(.constdata__ZTV10ObjectPoolIN10MemoryPool11SmallObjectEXadL_Z13enterCriticalEEXadL_Z12exitCriticalEEE) refers to memorypool.o(.constdata__ZTI10ObjectPoolIN10MemoryPool11SmallObjectEXadL_Z13enterCriticalEEXadL_Z12exitCriticalEEE) for typeinfo for ObjectPool<MemoryPool::SmallObject, (&enterCritical), (&exitCritical)>
    memorypool.o(.constdata__ZTV10ObjectPoolIN10MemoryPool11SmallObjectEXadL_Z13enterCriticalEEXadL_Z12exitCriticalEEE) refers to memorypool.o(t._ZN10ObjectPoolIN10MemoryPool11SmallObjectEXadL_Z13enterCriticalEEXadL_Z12exitCriticalEEED1Ev) for ObjectPool<MemoryPool::SmallObject, (&enterCritical), (&exitCritical)>::~ObjectPool()
    memorypool.o(.constdata__ZTV10ObjectPoolIN10MemoryPool11SmallObjectEXadL_Z13enterCriticalEEXadL_Z12exitCriticalEEE) refers to memorypool.o(t._ZN10ObjectPoolIN10MemoryPool11SmallObjectEXadL_Z13enterCriticalEEXadL_Z12exitCriticalEEED0Ev) for ObjectPool<MemoryPool::SmallObject, (&enterCritical), (&exitCritical)>::~ObjectPool__deallocating()
    memorypool.o(.constdata__ZTV10ObjectPoolIN10MemoryPool12MediumObjectEXadL_Z13enterCriticalEEXadL_Z12exitCriticalEEE) refers to memorypool.o(.constdata__ZTI10ObjectPoolIN10MemoryPool12MediumObjectEXadL_Z13enterCriticalEEXadL_Z12exitCriticalEEE) for typeinfo for ObjectPool<MemoryPool::MediumObject, (&enterCritical), (&exitCritical)>
    memorypool.o(.constdata__ZTV10ObjectPoolIN10MemoryPool12MediumObjectEXadL_Z13enterCriticalEEXadL_Z12exitCriticalEEE) refers to memorypool.o(t._ZN10ObjectPoolIN10MemoryPool12MediumObjectEXadL_Z13enterCriticalEEXadL_Z12exitCriticalEEED1Ev) for ObjectPool<MemoryPool::MediumObject, (&enterCritical), (&exitCritical)>::~ObjectPool()
    memorypool.o(.constdata__ZTV10ObjectPoolIN10MemoryPool12MediumObjectEXadL_Z13enterCriticalEEXadL_Z12exitCriticalEEE) refers to memorypool.o(t._ZN10ObjectPoolIN10MemoryPool12MediumObjectEXadL_Z13enterCriticalEEXadL_Z12exitCriticalEEED0Ev) for ObjectPool<MemoryPool::MediumObject, (&enterCritical), (&exitCritical)>::~ObjectPool__deallocating()
    memorypool.o(.constdata__ZTV10ObjectPoolIN10MemoryPool9BigObjectEXadL_Z13enterCriticalEEXadL_Z12exitCriticalEEE) refers to memorypool.o(.constdata__ZTI10ObjectPoolIN10MemoryPool9BigObjectEXadL_Z13enterCriticalEEXadL_Z12exitCriticalEEE) for typeinfo for ObjectPool<MemoryPool::BigObject, (&enterCritical), (&exitCritical)>
    memorypool.o(.constdata__ZTV10ObjectPoolIN10MemoryPool9BigObjectEXadL_Z13enterCriticalEEXadL_Z12exitCriticalEEE) refers to memorypool.o(t._ZN10ObjectPoolIN10MemoryPool9BigObjectEXadL_Z13enterCriticalEEXadL_Z12exitCriticalEEED1Ev) for ObjectPool<MemoryPool::BigObject, (&enterCritical), (&exitCritical)>::~ObjectPool()
    memorypool.o(.constdata__ZTV10ObjectPoolIN10MemoryPool9BigObjectEXadL_Z13enterCriticalEEXadL_Z12exitCriticalEEE) refers to memorypool.o(t._ZN10ObjectPoolIN10MemoryPool9BigObjectEXadL_Z13enterCriticalEEXadL_Z12exitCriticalEEED0Ev) for ObjectPool<MemoryPool::BigObject, (&enterCritical), (&exitCritical)>::~ObjectPool__deallocating()
    memorypool.o(.constdata__ZTI10ObjectPoolIN10MemoryPool11SmallObjectEXadL_Z13enterCriticalEEXadL_Z12exitCriticalEEE) refers to lib_rtti_impl.o(.constdata__ZTVN10__cxxabiv117__class_type_infoE) for vtable for __cxxabiv1::__class_type_info
    memorypool.o(.constdata__ZTI10ObjectPoolIN10MemoryPool11SmallObjectEXadL_Z13enterCriticalEEXadL_Z12exitCriticalEEE) refers to memorypool.o(.constdata__ZTS10ObjectPoolIN10MemoryPool11SmallObjectEXadL_Z13enterCriticalEEXadL_Z12exitCriticalEEE) for typeinfo name for ObjectPool<MemoryPool::SmallObject, (&enterCritical), (&exitCritical)>
    memorypool.o(.constdata__ZTI10ObjectPoolIN10MemoryPool12MediumObjectEXadL_Z13enterCriticalEEXadL_Z12exitCriticalEEE) refers to lib_rtti_impl.o(.constdata__ZTVN10__cxxabiv117__class_type_infoE) for vtable for __cxxabiv1::__class_type_info
    memorypool.o(.constdata__ZTI10ObjectPoolIN10MemoryPool12MediumObjectEXadL_Z13enterCriticalEEXadL_Z12exitCriticalEEE) refers to memorypool.o(.constdata__ZTS10ObjectPoolIN10MemoryPool12MediumObjectEXadL_Z13enterCriticalEEXadL_Z12exitCriticalEEE) for typeinfo name for ObjectPool<MemoryPool::MediumObject, (&enterCritical), (&exitCritical)>
    memorypool.o(.constdata__ZTI10ObjectPoolIN10MemoryPool9BigObjectEXadL_Z13enterCriticalEEXadL_Z12exitCriticalEEE) refers to lib_rtti_impl.o(.constdata__ZTVN10__cxxabiv117__class_type_infoE) for vtable for __cxxabiv1::__class_type_info
    memorypool.o(.constdata__ZTI10ObjectPoolIN10MemoryPool9BigObjectEXadL_Z13enterCriticalEEXadL_Z12exitCriticalEEE) refers to memorypool.o(.constdata__ZTS10ObjectPoolIN10MemoryPool9BigObjectEXadL_Z13enterCriticalEEXadL_Z12exitCriticalEEE) for typeinfo name for ObjectPool<MemoryPool::BigObject, (&enterCritical), (&exitCritical)>
    memorypool.o(t._ZN10ObjectPoolIN10MemoryPool11SmallObjectEXadL_Z13enterCriticalEEXadL_Z12exitCriticalEEED0Ev) refers to memorypool.o(t._ZN10ObjectPoolIN10MemoryPool11SmallObjectEXadL_Z13enterCriticalEEXadL_Z12exitCriticalEEED1Ev) for ObjectPool<MemoryPool::SmallObject, (&enterCritical), (&exitCritical)>::~ObjectPool()
    memorypool.o(t._ZN10ObjectPoolIN10MemoryPool11SmallObjectEXadL_Z13enterCriticalEEXadL_Z12exitCriticalEEED0Ev) refers to delete.o(i._ZdlPv) for operator delete (void*)
    memorypool.o(.ARM.exidx) refers to memorypool.o(t._ZN10ObjectPoolIN10MemoryPool11SmallObjectEXadL_Z13enterCriticalEEXadL_Z12exitCriticalEEED0Ev) for t._ZN10ObjectPoolIN10MemoryPool11SmallObjectEXadL_Z13enterCriticalEEXadL_Z12exitCriticalEEED0Ev
    memorypool.o(t._ZN10ObjectPoolIN10MemoryPool12MediumObjectEXadL_Z13enterCriticalEEXadL_Z12exitCriticalEEED0Ev) refers to memorypool.o(t._ZN10ObjectPoolIN10MemoryPool12MediumObjectEXadL_Z13enterCriticalEEXadL_Z12exitCriticalEEED1Ev) for ObjectPool<MemoryPool::MediumObject, (&enterCritical), (&exitCritical)>::~ObjectPool()
    memorypool.o(t._ZN10ObjectPoolIN10MemoryPool12MediumObjectEXadL_Z13enterCriticalEEXadL_Z12exitCriticalEEED0Ev) refers to delete.o(i._ZdlPv) for operator delete (void*)
    memorypool.o(.ARM.exidx) refers to memorypool.o(t._ZN10ObjectPoolIN10MemoryPool12MediumObjectEXadL_Z13enterCriticalEEXadL_Z12exitCriticalEEED0Ev) for t._ZN10ObjectPoolIN10MemoryPool12MediumObjectEXadL_Z13enterCriticalEEXadL_Z12exitCriticalEEED0Ev
    memorypool.o(t._ZN10ObjectPoolIN10MemoryPool9BigObjectEXadL_Z13enterCriticalEEXadL_Z12exitCriticalEEED0Ev) refers to memorypool.o(t._ZN10ObjectPoolIN10MemoryPool9BigObjectEXadL_Z13enterCriticalEEXadL_Z12exitCriticalEEED1Ev) for ObjectPool<MemoryPool::BigObject, (&enterCritical), (&exitCritical)>::~ObjectPool()
    memorypool.o(t._ZN10ObjectPoolIN10MemoryPool9BigObjectEXadL_Z13enterCriticalEEXadL_Z12exitCriticalEEED0Ev) refers to delete.o(i._ZdlPv) for operator delete (void*)
    memorypool.o(.ARM.exidx) refers to memorypool.o(t._ZN10ObjectPoolIN10MemoryPool9BigObjectEXadL_Z13enterCriticalEEXadL_Z12exitCriticalEEED0Ev) for t._ZN10ObjectPoolIN10MemoryPool9BigObjectEXadL_Z13enterCriticalEEXadL_Z12exitCriticalEEED0Ev
    initialevent.o(.constdata__ZTV12InitialEvent) refers to initialevent.o(.constdata__ZTI12InitialEvent) for typeinfo for InitialEvent
    initialevent.o(.constdata__ZTV12InitialEvent) refers to initialevent.o(i._ZN12InitialEventD1Ev) for InitialEvent::~InitialEvent()
    initialevent.o(.constdata__ZTV12InitialEvent) refers to initialevent.o(i._ZN12InitialEventD0Ev) for InitialEvent::~InitialEvent__deallocating()
    initialevent.o(.constdata__ZTI12InitialEvent) refers to lib_rtti_impl.o(.constdata__ZTVN10__cxxabiv120__si_class_type_infoE) for vtable for __cxxabiv1::__si_class_type_info
    initialevent.o(.constdata__ZTI12InitialEvent) refers to initialevent.o(.constdata__ZTS12InitialEvent) for typeinfo name for InitialEvent
    initialevent.o(.constdata__ZTI12InitialEvent) refers to initialevent.o(.constdata__ZTI8IXFEvent) for typeinfo for IXFEvent
    initialevent.o(.constdata__ZTI8IXFEvent) refers to lib_rtti_impl.o(.constdata__ZTVN10__cxxabiv117__class_type_infoE) for vtable for __cxxabiv1::__class_type_info
    initialevent.o(.constdata__ZTI8IXFEvent) refers to initialevent.o(.constdata__ZTS8IXFEvent) for typeinfo name for IXFEvent
    xfevent.o(.constdata__ZTV7XFEvent) refers to xfevent.o(.constdata__ZTI7XFEvent) for typeinfo for XFEvent
    xfevent.o(.constdata__ZTV7XFEvent) refers to xfevent.o(i._ZN7XFEventD1Ev) for XFEvent::~XFEvent()
    xfevent.o(.constdata__ZTV7XFEvent) refers to xfevent.o(i._ZN7XFEventD0Ev) for XFEvent::~XFEvent__deallocating()
    xfevent.o(.constdata__ZTI7XFEvent) refers to lib_rtti_impl.o(.constdata__ZTVN10__cxxabiv120__si_class_type_infoE) for vtable for __cxxabiv1::__si_class_type_info
